 jampgamex86

 Timestamp is 659f0321 (Wed Jan 10 21:50:41 2024)

 Preferred load address is 20000000

 Start         Length     Name                   Class
 0001:00000000 00019d70H .text$di                CODE
 0001:00019d70 00373b50H .text$mn                CODE
 0001:0038d8c0 00002fd0H .text$x                 CODE
 0001:00390890 00001012H .text$yd                CODE
 0002:00000000 00000104H .CRT$XCA                DATA
 0002:00000104 00000104H .CRT$XCC                DATA
 0002:00000208 000001f8H .CRT$XCU                DATA
 0002:00000400 00000104H .CRT$XCZ                DATA
 0002:00000504 00000104H .CRT$XIA                DATA
 0002:00000608 00000114H .CRT$XIC                DATA
 0002:0000071c 00000104H .CRT$XIZ                DATA
 0002:00000820 00000104H .CRT$XPA                DATA
 0002:00000924 0000010cH .CRT$XPX                DATA
 0002:00000a30 00000104H .CRT$XPXA               DATA
 0002:00000b34 00000104H .CRT$XPZ                DATA
 0002:00000c38 00000104H .CRT$XTA                DATA
 0002:00000d3c 00000104H .CRT$XTZ                DATA
 0002:00000e40 00084e00H .rdata                  DATA
 0002:00085c40 00000180H .rdata$CastGuardVftablesA DATA
 0002:00085dc0 0000014cH .rdata$CastGuardVftablesC DATA
 0002:00085f0c 0000080cH .rdata$r                DATA
 0002:00086718 00000400H .rdata$sxdata           DATA
 0002:00086b18 0000018cH .rdata$zzzdbg           DATA
 0002:00086ca4 00000104H .rtc$IAA                DATA
 0002:00086da8 00000104H .rtc$IZZ                DATA
 0002:00086eac 00000104H .rtc$TAA                DATA
 0002:00086fb0 00000108H .rtc$TZZ                DATA
 0002:000870b8 00002e88H .xdata$x                DATA
 0002:00089f40 0000022aH .edata                  DATA
 0003:00000000 00016538H .data                   DATA
 0003:00016538 000002e8H .data$r                 DATA
 0003:00016820 000001d8H .data$rs                DATA
 0003:000169f8 00aeea5cH .bss                    DATA
 0004:00000000 000002f4H .idata$5                DATA
 0004:000002f4 00000050H .idata$2                DATA
 0004:00000344 00000014H .idata$3                DATA
 0004:00000358 000002f4H .idata$4                DATA
 0004:0000064c 00000b00H .idata$6                DATA
 0005:00000000 0000010eH .00cfg                  DATA
 0006:00000000 000001c0H .rsrc$01                DATA
 0006:000001c0 00000760H .rsrc$02                DATA

  Address         Publics by Value              Rva+Base       Lib:Object

 0000:00000000       ___AbsoluteZero            00000000     <absolute>
 0000:00000000       ___arm64x_extra_rfe_table  00000000     <absolute>
 0000:00000000       ___arm64x_extra_rfe_table_size 00000000     <absolute>
 0000:00000000       ___arm64x_native_entrypoint 00000000     <absolute>
 0000:00000000       ___arm64x_redirection_metadata 00000000     <absolute>
 0000:00000000       ___arm64x_redirection_metadata_count 00000000     <absolute>
 0000:00000000       ___dynamic_value_reloc_table 00000000     <absolute>
 0000:00000000       ___enclave_config          00000000     <absolute>
 0000:00000000       ___guard_check_icall_a64n_fptr 00000000     <absolute>
 0000:00000000       ___guard_eh_cont_count     00000000     <absolute>
 0000:00000000       ___guard_eh_cont_table     00000000     <absolute>
 0000:00000000       ___guard_fids_count        00000000     <absolute>
 0000:00000000       ___guard_fids_table        00000000     <absolute>
 0000:00000000       ___guard_iat_count         00000000     <absolute>
 0000:00000000       ___guard_iat_table         00000000     <absolute>
 0000:00000000       ___guard_longjmp_count     00000000     <absolute>
 0000:00000000       ___guard_longjmp_table     00000000     <absolute>
 0000:00000000       ___hybrid_auxiliary_delayload_iat 00000000     <absolute>
 0000:00000000       ___hybrid_auxiliary_delayload_iat_copy 00000000     <absolute>
 0000:00000000       ___hybrid_auxiliary_iat    00000000     <absolute>
 0000:00000000       ___hybrid_auxiliary_iat_copy 00000000     <absolute>
 0000:00000000       ___hybrid_code_map         00000000     <absolute>
 0000:00000000       ___hybrid_code_map_count   00000000     <absolute>
 0000:00000000       ___hybrid_image_info_bitfield 00000000     <absolute>
 0000:00000000       ___volatile_metadata       00000000     <absolute>
 0000:00000000       ___x64_code_ranges_to_entry_points 00000000     <absolute>
 0000:00000000       ___x64_code_ranges_to_entry_points_count 00000000     <absolute>
 0000:00000000       __except_list              00000000     <absolute>
 0000:000000a0       ___safe_se_handler_count   000000a0     <absolute>
 0000:00000100       ___guard_flags             00000100     <absolute>
 0000:00000000       ___ImageBase               20000000     <linker-defined>
 0001:00019d70       ?AltFiring@@YAHPAUbot_state_s@@@Z 2001ad70 f   ai_main.obj
 0001:00019de0       ?AngleDifference@@YAMMM@Z  2001ade0 f   ai_main.obj
 0001:00019e80       ?ApproachTracing@@YAXPAUbot_state_s@@@Z 2001ae80 f   ai_main.obj
 0001:0001a2b0       ?BotAI@@YAHHM@Z            2001b2b0 f   ai_main.obj
 0001:0001a7a0       ?BotAILoadMap@@YAHH@Z      2001b7a0 f   ai_main.obj
 0001:0001a830       ?BotAIRegularUpdate@@YAXXZ 2001b830 f   ai_main.obj
 0001:0001a890       ?BotAISetup@@YAHH@Z        2001b890 f   ai_main.obj
 0001:0001aab0       ?BotAISetupClient@@YAHHPAUbot_settings_s@@H@Z 2001bab0 f   ai_main.obj
 0001:0001ae90       ?BotAIShutdown@@YAHH@Z     2001be90 f   ai_main.obj
 0001:0001af20       ?BotAIShutdownClient@@YAHHH@Z 2001bf20 f   ai_main.obj
 0001:0001afe0       ?BotAIStartFrame@@YAHH@Z   2001bfe0 f   ai_main.obj
 0001:0001b2d0       ?BotAI_GetClientState@@YAHHPAUplayerState_s@@@Z 2001c2d0 f   ai_main.obj
 0001:0001b350       ?BotAI_GetEntityState@@YAHHPAUentityState_s@@@Z 2001c350 f   ai_main.obj
 0001:0001b3f0       ?BotAI_GetSnapshotEntity@@YAHHHPAUentityState_s@@@Z 2001c3f0 f   ai_main.obj
 0001:0001b460       ?BotAI_Print@@YAXHPADZZ    2001c460 f   ai_main.obj
 0001:0001b480       ?BotAimLeading@@YAXPAUbot_state_s@@QAMM@Z 2001c480 f   ai_main.obj
 0001:0001ba30       ?BotAimOffsetGoalAngles@@YAXPAUbot_state_s@@@Z 2001ca30 f   ai_main.obj
 0001:0001bff0       ?BotCTFGuardDuty@@YAHPAUbot_state_s@@@Z 2001cff0 f   ai_main.obj
 0001:0001c040       ?BotCanHear@@YAHPAUbot_state_s@@PAUgentity_s@@M@Z 2001d040 f   ai_main.obj
 0001:0001c2c0       ?BotChangeViewAngle@@YAMMMM@Z 2001d2c0 f   ai_main.obj
 0001:0001c430       ?BotChangeViewAngles@@YAXPAUbot_state_s@@M@Z 2001d430 f   ai_main.obj
 0001:0001c980       ?BotCheckDetPacks@@YAXPAUbot_state_s@@@Z 2001d980 f   ai_main.obj
 0001:0001cd00       ?BotDamageNotification@@YAXPAUgclient_s@@PAUgentity_s@@@Z 2001dd00 f   ai_main.obj
 0001:0001d020       ?BotDeathNotify@@YAXPAUbot_state_s@@@Z 2001e020 f   ai_main.obj
 0001:0001d150       ?BotDefendFlag@@YAHPAUbot_state_s@@@Z 2001e150 f   ai_main.obj
 0001:0001d2f0       ?BotDoTeamplayAI@@YAXPAUbot_state_s@@@Z 2001e2f0 f   ai_main.obj
 0001:0001d360       ?BotEntityInfo@@YAXHPAUaas_entityinfo_s@@@Z 2001e360 f   ai_main.obj
 0001:0001d390       ?BotFallbackNavigation@@YAHPAUbot_state_s@@@Z 2001e390 f   ai_main.obj
 0001:0001d710       ?BotForceNotification@@YAXPAUgclient_s@@PAUgentity_s@@@Z 2001e710 f   ai_main.obj
 0001:0001d920       ?BotGetEnemyFlag@@YAHPAUbot_state_s@@@Z 2001e920 f   ai_main.obj
 0001:0001dac0       ?BotGetFlagBack@@YAHPAUbot_state_s@@@Z 2001eac0 f   ai_main.obj
 0001:0001ddb0       ?BotGetFlagHome@@YAHPAUbot_state_s@@@Z 2001edb0 f   ai_main.obj
 0001:0001df50       ?BotGetWeaponRange@@YAHPAUbot_state_s@@@Z 2001ef50 f   ai_main.obj
 0001:0001e060       ?BotGuardFlagCarrier@@YAHPAUbot_state_s@@@Z 2001f060 f   ai_main.obj
 0001:0001e350       ?BotHasAssociated@@YAHPAUbot_state_s@@PAUwpobject_s@@@Z 2001f350 f   ai_main.obj
 0001:0001e4f0       ?BotInputToUserCommand@@YAXPAUbot_input_s@@PAUusercmd_s@@QAHHH@Z 2001f4f0 f   ai_main.obj
 0001:0001eb40       ?BotIsAChickenWuss@@YAHPAUbot_state_s@@@Z 2001fb40 f   ai_main.obj
 0001:0001ee60       ?BotLovedOneDied@@YAXPAUbot_state_s@@0H@Z 2001fe60 f   ai_main.obj
 0001:0001f120       ?BotMindTricked@@YAHHH@Z   20020120 f   ai_main.obj
 0001:0001f230       ?BotOrder@@YAXPAUgentity_s@@HH@Z 20020230 f   ai_main.obj
 0001:0001f5e0       ?BotPVSCheck@@YAHQBM0@Z    200205e0 f   ai_main.obj
 0001:0001f730       ?BotReplyGreetings@@YAXPAUbot_state_s@@@Z 20020730 f   ai_main.obj
 0001:0001f830       ?BotReportStatus@@YAXPAUbot_state_s@@@Z 20020830 f   ai_main.obj
 0001:0001f8f0       ?BotResetState@@YAXPAUbot_state_s@@@Z 200208f0 f   ai_main.obj
 0001:0001fb50       ?BotScanForLeader@@YAXPAUbot_state_s@@@Z 20020b50 f   ai_main.obj
 0001:0001fc90       ?BotScheduleBotThink@@YAXXZ 20020c90 f   ai_main.obj
 0001:0001fd20       ?BotSelectChoiceWeapon@@YAHPAUbot_state_s@@HH@Z 20020d20 f   ai_main.obj
 0001:0001fe40       ?BotSelectIdealWeapon@@YAHPAUbot_state_s@@@Z 20020e40 f   ai_main.obj
 0001:000201c0       ?BotSelectMelee@@YAHPAUbot_state_s@@@Z 200211c0 f   ai_main.obj
 0001:00020230       ?BotSelectWeapon@@YAXHH@Z  20021230 f   ai_main.obj
 0001:00020270       ?BotStraightTPOrderCheck@@YAXPAUgentity_s@@HPAUbot_state_s@@@Z 20021270 f   ai_main.obj
 0001:00020370       ?BotSurfaceNear@@YAHPAUbot_state_s@@@Z 20021370 f   ai_main.obj
 0001:000204f0       ?BotTrace_Duck@@YAHPAUbot_state_s@@QAM@Z 200214f0 f   ai_main.obj
 0001:000209a0       ?BotTrace_Jump@@YAHPAUbot_state_s@@QAM@Z 200219a0 f   ai_main.obj
 0001:00020f00       ?BotTrace_Strafe@@YAHPAUbot_state_s@@QAM@Z 20021f00 f   ai_main.obj
 0001:00021800       ?BotTryAnotherWeapon@@YAHPAUbot_state_s@@@Z 20022800 f   ai_main.obj
 0001:00021900       ?BotUpdateInput@@YAXPAUbot_state_s@@HH@Z 20022900 f   ai_main.obj
 0001:00021c30       ?BotUseInventoryItem@@YAHPAUbot_state_s@@@Z 20022c30 f   ai_main.obj
 0001:00021ea0       ?BotWeaponBlockable@@YAHH@Z 20022ea0 f   ai_main.obj
 0001:00021f50       ?BotWeaponCanLead@@YAMPAUbot_state_s@@@Z 20022f50 f   ai_main.obj
 0001:00021ff0       ?BotWeaponSelectable@@YAHPAUbot_state_s@@H@Z 20022ff0 f   ai_main.obj
 0001:00022070       ?Bot_SetForcedMovement@@YAXHHHH@Z 20023070 f   ai_main.obj
 0001:00022150       ?CTFFlagMovement@@YAXPAUbot_state_s@@@Z 20023150 f   ai_main.obj
 0001:000228e0       ?CTFTakesPriority@@YAHPAUbot_state_s@@@Z 200238e0 f   ai_main.obj
 0001:00022f60       ?CheckForFriendInLOF@@YAPAUgentity_s@@PAUbot_state_s@@@Z 20023f60 f   ai_main.obj
 0001:00023280       ?CheckForFunc@@YAHQAMH@Z   20024280 f   ai_main.obj
 0001:000233d0       ?CheckForShorterRoutes@@YAXPAUbot_state_s@@H@Z 200243d0 f   ai_main.obj
 0001:000236c0       ?CombatBotAI@@YAHPAUbot_state_s@@M@Z 200246c0 f   ai_main.obj
 0001:00023cc0       ?CommanderBotAI@@YAXPAUbot_state_s@@@Z 20024cc0 f   ai_main.obj
 0001:00023d50       ?CommanderBotCTFAI@@YAXPAUbot_state_s@@@Z 20024d50 f   ai_main.obj
 0001:000243d0       ?CommanderBotSiegeAI@@YAXPAUbot_state_s@@@Z 200253d0 f   ai_main.obj
 0001:00024690       ?CommanderBotTeamplayAI@@YAXPAUbot_state_s@@@Z 20025690 f   ai_main.obj
 0001:00024bb0       ?EntityVisibleBox@@YAHQAM000HH@Z 20025bb0 f   ai_main.obj
 0001:00024c70       ?GetBestIdleGoal@@YAHPAUbot_state_s@@@Z 20025c70 f   ai_main.obj
 0001:00024eb0       ?GetIdealDestination@@YAXPAUbot_state_s@@@Z 20025eb0 f   ai_main.obj
 0001:000260a0       ?GetLoveLevel@@YAHPAUbot_state_s@@0@Z 200270a0 f   ai_main.obj
 0001:000261c0       ?GetNearestBadThing@@YAPAUgentity_s@@PAUbot_state_s@@@Z 200271c0 f   ai_main.obj
 0001:00026900       ?GetNearestVisibleWP@@YAHQAMH@Z 20027900 f   ai_main.obj
 0001:00026bd0       ?GetNewFlagPoint@@YAXPAUwpobject_s@@PAUgentity_s@@H@Z 20027bd0 f   ai_main.obj
 0001:00026fc0       ?HaveTargetHandling@@YAXPAUbot_state_s@@@Z 20027fc0 f   ai_main.obj
 0001:00027820       ?InFieldOfVision@@YAHQAMM0@Z 20028820 f   ai_main.obj
 0001:000279b0       ?IsTeamplay@@YAHXZ         200289b0 f   ai_main.obj
 0001:000279e0       ?JMTakesPriority@@YAHPAUbot_state_s@@@Z 200289e0 f   ai_main.obj
 0001:00027bf0       ?KeepAltFromFiring@@YAHPAUbot_state_s@@@Z 20028bf0 f   ai_main.obj
 0001:00027c70       ?KeepPrimFromFiring@@YAHPAUbot_state_s@@@Z 20028c70 f   ai_main.obj
 0001:00027cf0       ?MeleeCombatHandling@@YAXPAUbot_state_s@@@Z 20028cf0 f   ai_main.obj
 0001:00028470       ?MoveTowardIdealAngles@@YAXPAUbot_state_s@@@Z 20029470 f   ai_main.obj
 0001:00028510       ?NumBots@@YAHXZ            20029510 f   ai_main.obj
 0001:00028530       ?OrgVisible@@YAHQAM0H@Z    20029530 f   ai_main.obj
 0001:000285b0       ?OrgVisibleBox@@YAHQAM000H@Z 200295b0 f   ai_main.obj
 0001:00028680       ?PassLovedOneCheck@@YAHPAUbot_state_s@@PAUgentity_s@@@Z 20029680 f   ai_main.obj
 0001:00028830       ?PassStandardEnemyChecks@@YAHPAUbot_state_s@@PAUgentity_s@@@Z 20029830 f   ai_main.obj
 0001:00028d50       ?PassWayCheck@@YAHPAUbot_state_s@@H@Z 20029d50 f   ai_main.obj
 0001:00028e40       ?PlayersInGame@@YAHXZ      20029e40 f   ai_main.obj
 0001:00028ed0       ?PrimFiring@@YAHPAUbot_state_s@@@Z 20029ed0 f   ai_main.obj
 0001:00028f40       ?RemoveColorEscapeSequences@@YAXPAD@Z 20029f40 f   ai_main.obj
 0001:00029050       ?SaberCombatHandling@@YAXPAUbot_state_s@@@Z 2002a050 f   ai_main.obj
 0001:00029cf0       ?ScanForEnemies@@YAHPAUbot_state_s@@@Z 2002acf0 f   ai_main.obj
 0001:0002a310       ?ShouldSecondaryFire@@YAHPAUbot_state_s@@@Z 2002b310 f   ai_main.obj
 0001:0002a5f0       ?SiegeTakesPriority@@YAHPAUbot_state_s@@@Z 2002b5f0 f   ai_main.obj
 0001:0002ae70       ?Siege_CountDefenders@@YAHPAUbot_state_s@@@Z 2002be70 f   ai_main.obj
 0001:0002af40       ?Siege_CountTeammates@@YAHPAUbot_state_s@@@Z 2002bf40 f   ai_main.obj
 0001:0002afe0       ?Siege_DefendFromAttackers@@YAXPAUbot_state_s@@@Z 2002bfe0 f   ai_main.obj
 0001:0002b2a0       ?Siege_TargetClosestObjective@@YAHPAUbot_state_s@@H@Z 2002c2a0 f   ai_main.obj
 0001:0002b9e0       ?SingleSaberCombatHandling@@YAXPAUbot_state_s@@@Z 2002c9e0 f   ai_main.obj
 0001:0002c6e0       ?StandardBotAI@@YAXPAUbot_state_s@@M@Z 2002d6e0 f   ai_main.obj
 0001:000346f0       ?StrafeTracing@@YAXPAUbot_state_s@@@Z 200356f0 f   ai_main.obj
 0001:00034b20       ?TotalTrailDistance@@YAMHHPAUbot_state_s@@@Z 20035b20 f   ai_main.obj
 0001:00034c50       ?UpdateEventTracker@@YAXXZ 20035c50 f   ai_main.obj
 0001:00034e50       ?WPConstantRoutine@@YAXPAUbot_state_s@@@Z 20035e50 f   ai_main.obj
 0001:00034f80       ?WPOrgVisible@@YAHPAUgentity_s@@QAM1H@Z 20035f80 f   ai_main.obj
 0001:00035100       ?WPTouchRoutine@@YAXPAUbot_state_s@@@Z 20036100 f   ai_main.obj
 0001:00035510       ?WaitingForNow@@YAHPAUbot_state_s@@QAM@Z 20036510 f   ai_main.obj
 0001:000358a0       ?abs@@YAMM@Z               200368a0 f i ai_main.obj
 0001:000358d0       ?isLame@@YAHPAUbot_state_s@@@Z 200368d0 f   ai_main.obj
 0001:00035b40       ?sqrt@@YAMM@Z              20036b40 f i ai_main.obj
 0001:00035b70       ?strchr@@YAPADQADH@Z       20036b70 f i ai_main.obj
 0001:00035ba0       ?strstr@@YAPADQADQBD@Z     20036ba0 f i ai_main.obj
 0001:00035bd0       _fabsf                     20036bd0 f i ai_main.obj
 0001:00035c10       _sqrtf                     20036c10 f i ai_main.obj
 0001:00035c50       ?AcceptBotCommand@@YAHPADPAUgentity_s@@@Z 20036c50 f   ai_wpnav.obj
 0001:000367b0       ?BeginAutoPathRoutine@@YAXXZ 200377b0 f   ai_wpnav.obj
 0001:00036b00       ?BotWaypointRender@@YAXXZ  20037b00 f   ai_wpnav.obj
 0001:000370c0       ?CalculateJumpRoutes@@YAXXZ 200380c0 f   ai_wpnav.obj
 0001:00037390       ?CalculatePaths@@YAXXZ     20038390 f   ai_wpnav.obj
 0001:00037950       ?CalculateSiegeGoals@@YAXXZ 20038950 f   ai_wpnav.obj
 0001:00037c70       ?CalculateWeightGoals@@YAXXZ 20038c70 f   ai_wpnav.obj
 0001:000380d0       ?CanForceJumpTo@@YAHHHM@Z  200390d0 f   ai_wpnav.obj
 0001:000384c0       ?CanGetToVector@@YAHQAM000@Z 200394c0 f   ai_wpnav.obj
 0001:00038560       ?CanGetToVectorTravel@@YAHQAM000@Z 20039560 f   ai_wpnav.obj
 0001:00039160       ?ConnectTrail@@YAHHHH@Z    2003a160 f   ai_wpnav.obj
 0001:0003b1b0       ?CreateNewWP@@YAXQAMH@Z    2003c1b0 f   ai_wpnav.obj
 0001:0003b3a0       ?CreateNewWP_FromObject@@YAXPAUwpobject_s@@@Z 2003c3a0 f   ai_wpnav.obj
 0001:0003b680       ?CreateNewWP_InTrail@@YAHQAMHH@Z 2003c680 f   ai_wpnav.obj
 0001:0003b9e0       ?CreateNewWP_InsertUnder@@YAHQAMHH@Z 2003c9e0 f   ai_wpnav.obj
 0001:0003bd50       ?DoorBlockingSection@@YAHHH@Z 2003cd50 f   ai_wpnav.obj
 0001:0003bef0       ?FlagObjects@@YAXXZ        2003cef0 f   ai_wpnav.obj
 0001:0003c570       ?G_BackwardAttachment@@YAHHHH@Z 2003d570 f   ai_wpnav.obj
 0001:0003ca30       ?G_NearestNodeToPoint@@YAHQAM@Z 2003da30 f   ai_wpnav.obj
 0001:0003cbe0       ?G_NodeClearFlags@@YAXXZ   2003dbe0 f   ai_wpnav.obj
 0001:0003cc30       ?G_NodeClearForNext@@YAXXZ 2003dc30 f   ai_wpnav.obj
 0001:0003cca0       ?G_NodeMatchingXY@@YAHMM@Z 2003dca0 f   ai_wpnav.obj
 0001:0003cd40       ?G_NodeMatchingXY_BA@@YAHHHH@Z 2003dd40 f   ai_wpnav.obj
 0001:0003ce40       ?G_RMGPathing@@YAXXZ       2003de40 f   ai_wpnav.obj
 0001:0003d660       ?G_RecursiveConnection@@YAHHHHHM@Z 2003e660 f   ai_wpnav.obj
 0001:0003db40       ?G_TestLine@@YAXQAM0HH@Z   2003eb40 f   ai_wpnav.obj
 0001:0003dc80       ?GetClosestSpawn@@YAPAUgentity_s@@PAU1@@Z 2003ec80 f   ai_wpnav.obj
 0001:0003dea0       ?GetFlagStr@@YAPADH@Z      2003eea0 f   ai_wpnav.obj
 0001:0003e430       ?GetNearestVisibleWPToItem@@YAHQAMH@Z 2003f430 f   ai_wpnav.obj
 0001:0003e750       ?GetNextSpawnInIndex@@YAPAUgentity_s@@PAU1@@Z 2003f750 f   ai_wpnav.obj
 0001:0003e8c0       ?GetObjectThatTargets@@YAPAUgentity_s@@PAU1@@Z 2003f8c0 f   ai_wpnav.obj
 0001:0003e930       ?LoadPathData@@YAHPBD@Z    2003f930 f   ai_wpnav.obj
 0001:0003f3c0       ?LoadPath_ThisLevel@@YAXXZ 200403c0 f   ai_wpnav.obj
 0001:0003f590       ?NodeHere@@YAHQAM@Z        20040590 f   ai_wpnav.obj
 0001:0003f7b0       ?OpposingEnds@@YAHHH@Z     200407b0 f   ai_wpnav.obj
 0001:0003f860       ?OrgVisibleCurve@@YAHQAM000H@Z 20040860 f   ai_wpnav.obj
 0001:0003f9d0       ?RemoveAllWP@@YAXXZ        200409d0 f   ai_wpnav.obj
 0001:0003fa00       ?RemoveWP@@YAXXZ           20040a00 f   ai_wpnav.obj
 0001:0003fac0       ?RemoveWP_InTrail@@YAXH@Z  20040ac0 f   ai_wpnav.obj
 0001:0003fcc0       ?RepairPaths@@YAHH@Z       20040cc0 f   ai_wpnav.obj
 0001:00040040       ?SavePathData@@YAHPBD@Z    20041040 f   ai_wpnav.obj
 0001:000408a0       ?TeleportToWP@@YAXPAUgentity_s@@H@Z 200418a0 f   ai_wpnav.obj
 0001:00040a40       ?TransferWPData@@YAXHH@Z   20041a40 f   ai_wpnav.obj
 0001:00040ce0       ?WPFlagsModify@@YAXHH@Z    20041ce0 f   ai_wpnav.obj
 0001:00040d60       ?AnimalProcessOri@@YAXPAUVehicle_s@@@Z 20041d60 f   AnimalNPC.obj
 0001:00041930       ?G_CreateAnimalNPC@@YAXPAPAUVehicle_s@@PBD@Z 20042930 f   AnimalNPC.obj
 0001:000419a0       ?G_SetAnimalVehicleFunctions@@YAXPAUvehicleInfo_t@@@Z 200429a0 f   AnimalNPC.obj
 0001:000421b0       _Decodeaddress             200431b0 f   asmserv.obj
 0001:000421d0       _Disassembleback           200431d0 f   asmserv.obj
 0001:000423f0       _Disassembleforward        200433f0 f   asmserv.obj
 0001:00042510       _Isfilling                 20043510 f   asmserv.obj
 0001:000427f0       _Print3dnow                200437f0 f   asmserv.obj
 0001:00042880       _Printfloat10              20043880 f   asmserv.obj
 0001:00042c70       _Printfloat4               20043c70 f   asmserv.obj
 0001:00042da0       _Printfloat8               20043da0 f   asmserv.obj
 0001:00042f10       ___local_stdio_printf_options 20043f10 f i asmserv.obj
 0001:00042f30       __vsnprintf_l              20043f30 f i asmserv.obj
 0001:00042fa0       __vsprintf_l               20043fa0 f i asmserv.obj
 0001:00042fe0       _sprintf                   20043fe0 f i asmserv.obj
 0001:00045d40       _Assemble                  20046d40 f   assembl.obj
 0001:00049230       _powf                      2004a230 f i assembl.obj
 0001:00049280       ?BG_AttachToRancor@@YAXPAXMQAMHPAH1H11QAY02M@Z 2004a280 f   bg_g2_utils.obj
 0001:000495e0       ?BG_GetRootSurfNameWithVariant@@YAHPAXPBDPADH@Z 2004a5e0 f   bg_g2_utils.obj
 0001:00049b70       ?BG_AddPredictableEventToPlayerstate@@YAXHHPAUplayerState_s@@@Z 2004ab70 f   bg_misc.obj
 0001:00049c60       ?BG_Alloc@@YAPAXH@Z        2004ac60 f   bg_misc.obj
 0001:00049d20       ?BG_AllocUnaligned@@YAPAXH@Z 2004ad20 f   bg_misc.obj
 0001:00049da0       ?BG_CanItemBeGrabbed@@YAHHPBUentityState_s@@PBUplayerState_s@@@Z 2004ada0 f   bg_misc.obj
 0001:0004a440       ?BG_CanUseFPNow@@YAHHPAUplayerState_s@@HH@Z 2004b440 f   bg_misc.obj
 0001:0004a690       ?BG_CompareFields@@YAHPAUBG_field_t@@PAE1@Z 2004b690 f   bg_misc.obj
 0001:0004a810       ?BG_CopyField@@YAXPAUBG_field_t@@PAE1@Z 2004b810 f   bg_misc.obj
 0001:0004a960       ?BG_CycleForce@@YAXPAUplayerState_s@@H@Z 2004b960 f   bg_misc.obj
 0001:0004ab30       ?BG_CycleInven@@YAXPAUplayerState_s@@H@Z 2004bb30 f   bg_misc.obj
 0001:0004ac90       ?BG_EmplacedView@@YAHQAM0PAMM@Z 2004bc90 f   bg_misc.obj
 0001:0004ae10       ?BG_EvaluateTrajectory@@YAXPBUtrajectory_t@@HQAM@Z 2004be10 f   bg_misc.obj
 0001:0004b5b0       ?BG_EvaluateTrajectoryDelta@@YAXPBUtrajectory_t@@HQAM@Z 2004c5b0 f   bg_misc.obj
 0001:0004bb50       ?BG_FileExists@@YAHPBD@Z   2004cb50 f   bg_misc.obj
 0001:0004bbd0       ?BG_FindItem@@YAPAUgitem_s@@PBD@Z 2004cbd0 f   bg_misc.obj
 0001:0004bc30       ?BG_FindItemForAmmo@@YAPAUgitem_s@@W4ammo_t@@@Z 2004cc30 f   bg_misc.obj
 0001:0004bca0       ?BG_FindItemForHoldable@@YAPAUgitem_s@@H@Z 2004cca0 f   bg_misc.obj
 0001:0004bd20       ?BG_FindItemForPowerup@@YAPAUgitem_s@@H@Z 2004cd20 f   bg_misc.obj
 0001:0004bda0       ?BG_FindItemForWeapon@@YAPAUgitem_s@@H@Z 2004cda0 f   bg_misc.obj
 0001:0004be10       ?BG_FreeField@@YAXW4fieldtype_t@@PAX@Z 2004ce10 f   bg_misc.obj
 0001:0004be60       ?BG_FreeFields@@YAXPAUBG_field_t@@PAE@Z 2004ce60 f   bg_misc.obj
 0001:0004bec0       ?BG_GetField@@YAHPAUBG_field_t@@PADIPAE@Z 2004cec0 f   bg_misc.obj
 0001:0004c210       ?BG_GetItemIndexByTag@@YAHHH@Z 2004d210 f   bg_misc.obj
 0001:0004c280       ?BG_HasYsalamiri@@YAHHPAUplayerState_s@@@Z 2004d280 f   bg_misc.obj
 0001:0004c300       ?BG_IsItemSelectable@@YAHPAUplayerState_s@@H@Z 2004d300 f   bg_misc.obj
 0001:0004c340       ?BG_IsValidCharacterModel@@YAHPBD0@Z 2004d340 f   bg_misc.obj
 0001:0004c400       ?BG_LegalizedForcePowers@@YAHPADHHHHH@Z 2004d400 f   bg_misc.obj
 0001:0004d140       ?BG_ModelCache@@YAHPBD0@Z  2004e140 f   bg_misc.obj
 0001:0004d1d0       ?BG_OutOfMemory@@YAHXZ     2004e1d0 f   bg_misc.obj
 0001:0004d210       ?BG_ParseField@@YAHPAUBG_field_t@@PBD1PAX@Z 2004e210 f   bg_misc.obj
 0001:0004d290       ?BG_ParseType@@YAHW4fieldtype_t@@PBDPAX@Z 2004e290 f   bg_misc.obj
 0001:0004d570       ?BG_PlayerStateToEntityState@@YAXPAUplayerState_s@@PAUentityState_s@@H@Z 2004e570 f   bg_misc.obj
 0001:0004de20       ?BG_PlayerStateToEntityStateExtraPolate@@YAXPAUplayerState_s@@PAUentityState_s@@HH@Z 2004ee20 f   bg_misc.obj
 0001:0004e6e0       ?BG_PlayerTouchesItem@@YAHPAUplayerState_s@@PAUentityState_s@@H@Z 2004f6e0 f   bg_misc.obj
 0001:0004e880       ?BG_ProperForceIndex@@YAHH@Z 2004f880 f   bg_misc.obj
 0001:0004e8d0       ?BG_StringAlloc@@YAPADPBD@Z 2004f8d0 f   bg_misc.obj
 0001:0004e920       ?BG_TempAlloc@@YAPAXH@Z    2004f920 f   bg_misc.obj
 0001:0004e9a0       ?BG_TempFree@@YAXH@Z       2004f9a0 f   bg_misc.obj
 0001:0004ea10       ?BG_TouchJumpPad@@YAXPAUplayerState_s@@PAUentityState_s@@@Z 2004fa10 f   bg_misc.obj
 0001:0004ee00       ?BG_ValidateSkinForTeam@@YAHPBDPADHPAM@Z 2004fe00 f   bg_misc.obj
 0001:0004f330       ?duelInProgress@@YAHPBUplayerState_s@@@Z 20050330 f   bg_misc.obj
 0001:0004f350       ?vectoyaw@@YAMQBM@Z        20050350 f   bg_misc.obj
 0001:0004f4c0       ___local_stdio_scanf_options 200504c0 f i bg_misc.obj
 0001:0004f4e0       __vsscanf_l                200504e0 f i bg_misc.obj
 0001:0004f530       _sscanf                    20050530 f i bg_misc.obj
 0001:0004f580       ?BG_AnimLength@@YAHHW4animNumber_t@@@Z 20050580 f   bg_panimate.obj
 0001:0004f620       ?BG_AnimsetAlloc@@YAPAUanimation_s@@XZ 20050620 f   bg_panimate.obj
 0001:0004f6a0       ?BG_AnimsetFree@@YAXPAUanimation_s@@@Z 200506a0 f   bg_panimate.obj
 0001:0004f6c0       ?BG_BrokenParryForAttack@@YAHH@Z 200506c0 f   bg_panimate.obj
 0001:0004f780       ?BG_BrokenParryForParry@@YAHH@Z 20050780 f   bg_panimate.obj
 0001:0004f910       ?BG_ClearAnimsets@@YAXXZ   20050910 f   bg_panimate.obj
 0001:0004f930       ?BG_CrouchAnim@@YAHH@Z     20050930 f   bg_panimate.obj
 0001:0004fae0       ?BG_DirectFlippingAnim@@YAHH@Z 20050ae0 f   bg_panimate.obj
 0001:0004fb40       ?BG_FlipPart@@YAXPAUplayerState_s@@H@Z 20050b40 f   bg_panimate.obj
 0001:0004fbc0       ?BG_FlippingAnim@@YAHH@Z   20050bc0 f   bg_panimate.obj
 0001:0004fd30       ?BG_FullBodyTauntAnim@@YAHH@Z 20050d30 f   bg_panimate.obj
 0001:0004fee0       ?BG_HasAnimation@@YAHHH@Z  20050ee0 f   bg_panimate.obj
 0001:0004ff60       ?BG_InBackFlip@@YAHH@Z     20050f60 f   bg_panimate.obj
 0001:0004ffb0       ?BG_InDeathAnim@@YAHH@Z    20050fb0 f   bg_panimate.obj
 0001:000501e0       ?BG_InExtraDefenseSaberMove@@YAHH@Z 200511e0 f   bg_panimate.obj
 0001:00050270       ?BG_InGrappleMove@@YAHH@Z  20051270 f   bg_panimate.obj
 0001:00050300       ?BG_InKataAnim@@YAHH@Z     20051300 f   bg_panimate.obj
 0001:00050370       ?BG_InKnockDownOnGround@@YAHPAUplayerState_s@@@Z 20051370 f   bg_panimate.obj
 0001:00050520       ?BG_InKnockDownOnly@@YAHH@Z 20051520 f   bg_panimate.obj
 0001:00050590       ?BG_InReboundHold@@YAHH@Z  20051590 f   bg_panimate.obj
 0001:000505f0       ?BG_InReboundJump@@YAHH@Z  200515f0 f   bg_panimate.obj
 0001:00050650       ?BG_InReboundRelease@@YAHH@Z 20051650 f   bg_panimate.obj
 0001:000506b0       ?BG_InRoll@@YAHPAUplayerState_s@@H@Z 200516b0 f   bg_panimate.obj
 0001:00050780       ?BG_InSaberLock@@YAHH@Z    20051780 f   bg_panimate.obj
 0001:00050870       ?BG_InSaberLockOld@@YAHH@Z 20051870 f   bg_panimate.obj
 0001:000508e0       ?BG_InSaberStandAnim@@YAHH@Z 200518e0 f   bg_panimate.obj
 0001:000509a0       ?BG_InSpecialDeathAnim@@YAHH@Z 200519a0 f   bg_panimate.obj
 0001:00050a20       ?BG_InSpecialJump@@YAHH@Z  20051a20 f   bg_panimate.obj
 0001:00050bd0       ?BG_InitAnimsets@@YAXXZ    20051bd0 f   bg_panimate.obj
 0001:00050c10       ?BG_KickMove@@YAHH@Z       20051c10 f   bg_panimate.obj
 0001:00050c90       ?BG_KickingAnim@@YAHH@Z    20051c90 f   bg_panimate.obj
 0001:00050d90       ?BG_KnockawayForParry@@YAHH@Z 20051d90 f   bg_panimate.obj
 0001:00050e20       ?BG_ParseAnimationFile@@YAHPBDPAUanimation_s@@H@Z 20051e20 f   bg_panimate.obj
 0001:00051520       ?BG_PickAnim@@YAHHHH@Z     20052520 f   bg_panimate.obj
 0001:000515a0       ?BG_SaberInAttack@@YAHH@Z  200525a0 f   bg_panimate.obj
 0001:00051700       ?BG_SaberInAttackPure@@YAHH@Z 20052700 f   bg_panimate.obj
 0001:00051730       ?BG_SaberInDefense@@YAHH@Z 20052730 f   bg_panimate.obj
 0001:00051810       ?BG_SaberInIdle@@YAHH@Z    20052810 f   bg_panimate.obj
 0001:00051860       ?BG_SaberInKata@@YAHH@Z    20052860 f   bg_panimate.obj
 0001:000518c0       ?BG_SaberInReturn@@YAHH@Z  200528c0 f   bg_panimate.obj
 0001:000518f0       ?BG_SaberInSpecial@@YAHH@Z 200528f0 f   bg_panimate.obj
 0001:000519f0       ?BG_SaberInSpecialAttack@@YAHH@Z 200529f0 f   bg_panimate.obj
 0001:00051c20       ?BG_SaberInTransitionAny@@YAHH@Z 20052c20 f   bg_panimate.obj
 0001:00051ca0       ?BG_SaberLockBreakAnim@@YAHH@Z 20052ca0 f   bg_panimate.obj
 0001:00051dd0       ?BG_SaberStanceAnim@@YAHH@Z 20052dd0 f   bg_panimate.obj
 0001:00051e90       ?BG_SaberStartTransAnim@@YAXHHHHPAMH@Z 20052e90 f   bg_panimate.obj
 0001:00052120       ?BG_SetAnim@@YAXPAUplayerState_s@@PAUanimation_s@@HHHH@Z 20053120 f   bg_panimate.obj
 0001:00052270       ?BG_SetAnimFinal@@YAXPAUplayerState_s@@PAUanimation_s@@HHHH@Z 20053270 f   bg_panimate.obj
 0001:000527f0       ?BG_SetLegsAnimTimer@@YAXPAUplayerState_s@@H@Z 200537f0 f   bg_panimate.obj
 0001:00052830       ?BG_SetTorsoAnimTimer@@YAXPAUplayerState_s@@H@Z 20053830 f   bg_panimate.obj
 0001:00052870       ?BG_SpinningSaberAnim@@YAHH@Z 20053870 f   bg_panimate.obj
 0001:00052bf0       ?BG_StabDownAnim@@YAHH@Z   20053bf0 f   bg_panimate.obj
 0001:00052cf0       ?BG_StartTorsoAnim@@YAXPAUplayerState_s@@H@Z 20053cf0 f   bg_panimate.obj
 0001:00052d70       ?BG_SuperBreakLoseAnim@@YAHH@Z 20053d70 f   bg_panimate.obj
 0001:00052e40       ?BG_SuperBreakWinAnim@@YAHH@Z 20053e40 f   bg_panimate.obj
 0001:00052f10       ?PM_AnimLength@@YAHHW4animNumber_t@@@Z 20053f10 f   bg_panimate.obj
 0001:00052fe0       ?PM_CanRollFromSoulCal@@YAHPAUplayerState_s@@@Z 20053fe0 f   bg_panimate.obj
 0001:00053030       ?PM_ContinueLegsAnim@@YAXH@Z 20054030 f   bg_panimate.obj
 0001:00053090       ?PM_DebugLegsAnim@@YAXH@Z  20054090 f   bg_panimate.obj
 0001:00053140       ?PM_ForceLegsAnim@@YAXH@Z  20054140 f   bg_panimate.obj
 0001:00053220       ?PM_InCartwheel@@YAHH@Z    20054220 f   bg_panimate.obj
 0001:000532d0       ?PM_InKnockDown@@YAHPAUplayerState_s@@@Z 200542d0 f   bg_panimate.obj
 0001:000533c0       ?PM_InOnGroundAnim@@YAHH@Z 200543c0 f   bg_panimate.obj
 0001:00053580       ?PM_InRollComplete@@YAHPAUplayerState_s@@H@Z 20054580 f   bg_panimate.obj
 0001:000535f0       ?PM_InSaberAnim@@YAHH@Z    200545f0 f   bg_panimate.obj
 0001:00053630       ?PM_JumpingAnim@@YAHH@Z    20054630 f   bg_panimate.obj
 0001:00053700       ?PM_LandingAnim@@YAHH@Z    20054700 f   bg_panimate.obj
 0001:00053780       ?PM_PainAnim@@YAHH@Z       20054780 f   bg_panimate.obj
 0001:00053820       ?PM_SaberBounceForAttack@@YAHH@Z 20054820 f   bg_panimate.obj
 0001:000538d0       ?PM_SaberDeflectionForQuad@@YAHH@Z 200548d0 f   bg_panimate.obj
 0001:00053990       ?PM_SaberInDeflect@@YAHH@Z 20054990 f   bg_panimate.obj
 0001:000539d0       ?PM_SaberInKnockaway@@YAHH@Z 200549d0 f   bg_panimate.obj
 0001:00053a10       ?PM_SaberInParry@@YAHH@Z   20054a10 f   bg_panimate.obj
 0001:00053a50       ?PM_SaberInReflect@@YAHH@Z 20054a50 f   bg_panimate.obj
 0001:00053a90       ?PM_SaberInReturn@@YAHH@Z  20054a90 f   bg_panimate.obj
 0001:00053ac0       ?PM_SaberInStart@@YAHH@Z   20054ac0 f   bg_panimate.obj
 0001:00053af0       ?PM_SaberInTransition@@YAHH@Z 20054af0 f   bg_panimate.obj
 0001:00053b20       ?PM_SetAnim@@YAXHHHH@Z     20054b20 f   bg_panimate.obj
 0001:00053b70       ?PM_SetAnimFinal@@YAXHHHH@Z 20054b70 f   bg_panimate.obj
 0001:00053bc0       ?PM_SetLegsAnimTimer@@YAXH@Z 20054bc0 f   bg_panimate.obj
 0001:00053bf0       ?PM_SetTorsoAnimTimer@@YAXH@Z 20054bf0 f   bg_panimate.obj
 0001:00053c20       ?PM_SpinningAnim@@YAHH@Z   20054c20 f   bg_panimate.obj
 0001:00053c50       ?PM_StartTorsoAnim@@YAXH@Z 20054c50 f   bg_panimate.obj
 0001:00053c80       ?BG_AdjustClientSpeed@@YAXPAUplayerState_s@@PAUusercmd_s@@H@Z 20054c80 f   bg_pmove.obj
 0001:00054410       ?BG_ClearRocketLock@@YAXPAUplayerState_s@@@Z 20055410 f   bg_pmove.obj
 0001:00054480       ?BG_CmdForRoll@@YAXPAUplayerState_s@@HPAUusercmd_s@@@Z 20055480 f   bg_pmove.obj
 0001:00054810       ?BG_ExternThisSoICanRecompileInDebug@@YAXPAUVehicle_s@@PAUplayerState_s@@@Z 20055810 f   bg_pmove.obj
 0001:00054870       ?BG_G2ATSTAngles@@YAXPAXHQAM@Z 20055870 f   bg_pmove.obj
 0001:00055670       ?BG_G2PlayerAngles@@YAXPAXHPAUentityState_s@@HQAM2QAY02M2PAH44PAM55H22HH422H14@Z 20056670 f   bg_pmove.obj
 0001:00057350       ?BG_IK_MoveArm@@YAXPAXHHPAUentityState_s@@HQAMPAH222HH@Z 20058350 f   bg_pmove.obj
 0001:00057f70       ?BG_InKnockDown@@YAHH@Z    20058f70 f   bg_pmove.obj
 0001:00058060       ?BG_InRoll2@@YAHPAUentityState_s@@@Z 20059060 f   bg_pmove.obj
 0001:00058130       ?BG_InRollAnim@@YAHPAUentityState_s@@@Z 20059130 f   bg_pmove.obj
 0001:000581a0       ?BG_InRollES@@YAHPAUentityState_s@@H@Z 200591a0 f   bg_pmove.obj
 0001:00058200       ?BG_InSlopeAnim@@YAHH@Z    20059200 f   bg_pmove.obj
 0001:00058350       ?BG_KnockDownable@@YAHPAUplayerState_s@@@Z 20059350 f   bg_pmove.obj
 0001:000583a0       ?BG_SabersOff@@YAHPAUplayerState_s@@@Z 200593a0 f   bg_pmove.obj
 0001:000586f0       ?BG_UnrestrainedPitchRoll@@YAHPAUplayerState_s@@PAUVehicle_s@@@Z 200596f0 f   bg_pmove.obj
 0001:00058770       ?BG_UpdateLookAngles@@YAXHQAMH0MMMMMMM@Z 20059770 f   bg_pmove.obj
 0001:00058c00       ?BG_VehTraceFromCamPos@@YAHPAUtrace_t@@PAUbgEntity_s@@QBM22QAM3M@Z 20059c00 f   bg_pmove.obj
 0001:000590d0       ?BG_VehicleAdjustBBoxForOrientation@@YAXPAUVehicle_s@@QAM11HHP6AXPAUtrace_t@@QBM333HH@Z@Z 2005a0d0 f   bg_pmove.obj
 0001:0005ad10       ?BG_VehicleTurnRateForSpeed@@YAXPAUVehicle_s@@MPAM1@Z 2005bd10 f   bg_pmove.obj
 0001:0005b490       ?PM_AddEvent@@YAXH@Z       2005c490 f   bg_pmove.obj
 0001:0005b4c0       ?PM_AddEventWithParm@@YAXHH@Z 2005c4c0 f   bg_pmove.obj
 0001:0005b500       ?PM_AddTouchEnt@@YAXH@Z    2005c500 f   bg_pmove.obj
 0001:0005b5b0       ?PM_AdjustAngleForWallJump@@YAHPAUplayerState_s@@PAUusercmd_s@@H@Z 2005c5b0 f   bg_pmove.obj
 0001:0005c050       ?PM_AdjustAngleForWallRun@@YAHPAUplayerState_s@@PAUusercmd_s@@H@Z 2005d050 f   bg_pmove.obj
 0001:0005ca50       ?PM_AdjustAngleForWallRunUp@@YAHPAUplayerState_s@@PAUusercmd_s@@H@Z 2005da50 f   bg_pmove.obj
 0001:0005d510       ?PM_AdjustAnglesForWallRunUpFlipAlt@@YAHPAUusercmd_s@@@Z 2005e510 f   bg_pmove.obj
 0001:0005d560       ?PM_AdjustAttackStates@@YAXPAUpmove_t@@@Z 2005e560 f   bg_pmove.obj
 0001:0005dbb0       ?PM_AdjustStandAnimForSlope@@YAHXZ 2005ebb0 f   bg_pmove.obj
 0001:0005f020       ?PM_AnglesForSlope@@YAXMQBMQAM@Z 20060020 f   bg_pmove.obj
 0001:0005f420       ?PM_BGEntForNum@@YAPAUbgEntity_s@@H@Z 20060420 f   bg_pmove.obj
 0001:0005f570       ?PM_BeginWeaponChange@@YAXH@Z 20060570 f   bg_pmove.obj
 0001:0005f6a0       ?PM_CanSetWeaponAnims@@YAHXZ 200606a0 f   bg_pmove.obj
 0001:0005f8d0       ?PM_CheckDualForwardJumpDuck@@YAHXZ 200608d0 f   bg_pmove.obj
 0001:0005fcb0       ?PM_CheckFixMins@@YAXXZ    20060cb0 f   bg_pmove.obj
 0001:00066280       ?PM_ClipVelocity@@YAXQAM00M@Z 20067280 f   bg_pmove.obj
 0001:00068b80       ?PM_DoSlowFall@@YAHXZ      20069b80 f   bg_pmove.obj
 0001:00068d20       ?PM_FinishWeaponChange@@YAXXZ 20069d20 f   bg_pmove.obj
 0001:00069720       ?PM_FootSlopeTrace@@YAXPAM0@Z 2006a720 f   bg_pmove.obj
 0001:0006af30       ?PM_ForceJumpingUp@@YAHXZ  2006bf30 f   bg_pmove.obj
 0001:0006b700       ?PM_GetOkWeaponForVehicle@@YAHXZ 2006c700 f   bg_pmove.obj
 0001:0006b780       ?PM_GetSaberStance@@YAHXZ  2006c780 f   bg_pmove.obj
 0001:0006bab0       ?PM_GrabWallForJump@@YAXH@Z 2006cab0 f   bg_pmove.obj
 0001:0006c760       ?PM_HoverTrace@@YAXXZ      2006d760 f   bg_pmove.obj
 0001:0006d330       ?PM_IsRocketTrooper@@YAHXZ 2006e330 f i bg_pmove.obj
 0001:0006d350       ?PM_ItemUsable@@YAHPAUplayerState_s@@H@Z 2006e350 f   bg_pmove.obj
 0001:0006ddd0       ?PM_LegsSlopeBackTransition@@YAHH@Z 2006edd0 f   bg_pmove.obj
 0001:0006dfd0       ?PM_MoveForKata@@YAXPAUusercmd_s@@@Z 2006efd0 f   bg_pmove.obj
 0001:0006e800       ?PM_RocketLock@@YAXMH@Z    2006f800 f   bg_pmove.obj
 0001:0006f240       ?PM_RollingAnim@@YAHH@Z    20070240 f   bg_pmove.obj
 0001:0006f2a0       ?PM_RunningAnim@@YAHH@Z    200702a0 f   bg_pmove.obj
 0001:0006fa20       ?PM_SetForceJumpZStart@@YAXM@Z 20070a20 f   bg_pmove.obj
 0001:0006fd20       ?PM_SetPMViewAngle@@YAXPAUplayerState_s@@QAMPAUusercmd_s@@@Z 20070d20 f   bg_pmove.obj
 0001:0006fe20       ?PM_SetSpecialMoveValues@@YAXXZ 20070e20 f   bg_pmove.obj
 0001:000709d0       ?PM_SwimmingAnim@@YAHH@Z   200719d0 f   bg_pmove.obj
 0001:00071340       ?PM_UpdateViewAngles@@YAXPAUplayerState_s@@PBUusercmd_s@@@Z 20072340 f   bg_pmove.obj
 0001:000714c0       ?PM_Use@@YAXXZ             200724c0 f   bg_pmove.obj
 0001:00071570       ?PM_VehFaceHyperspacePoint@@YAXPAUbgEntity_s@@@Z 20072570 f   bg_pmove.obj
 0001:000719f0       ?PM_VehForcedTurning@@YAXPAUbgEntity_s@@@Z 200729f0 f   bg_pmove.obj
 0001:00071d80       ?PM_VehicleViewAngles@@YAXPAUplayerState_s@@PAUbgEntity_s@@PAUusercmd_s@@@Z 20072d80 f   bg_pmove.obj
 0001:00072170       ?PM_VehicleWeaponAnimate@@YAXXZ 20073170 f   bg_pmove.obj
 0001:00073210       ?PM_WalkingAnim@@YAHH@Z    20074210 f   bg_pmove.obj
 0001:00076220       ?PM_WeaponOkOnVehicle@@YAHH@Z 20077220 f   bg_pmove.obj
 0001:00076260       ?PM_pitch_roll_for_slope@@YAXPAUbgEntity_s@@QAM1@Z 20077260 f   bg_pmove.obj
 0001:000769f0       ?Pmove@@YAXPAUpmove_t@@@Z  200779f0 f   bg_pmove.obj
 0001:00076cf0       ?PmoveSingle@@YAXPAUpmove_t@@@Z 20077cf0 f   bg_pmove.obj
 0001:0007a510       ?emoteAnim@@YAPAUemote_t@@H@Z 2007b510 f   bg_pmove.obj
 0001:0007a580       ?endAnim@@YAHH@Z           2007b580 f   bg_pmove.obj
 0001:0007a600       ?BG_CheckIncrementLockAnim@@YAHHH@Z 2007b600 f   bg_saber.obj
 0001:0007a720       ?BG_EnoughForcePowerForMove@@YAHH@Z 2007b720 f   bg_saber.obj
 0001:0007a770       ?BG_ForcePowerDrain@@YAXPAUplayerState_s@@HH@Z 2007b770 f   bg_saber.obj
 0001:0007aa20       ?BG_MySaber@@YAPAUsaberInfo_t@@HH@Z 2007ba20 f   bg_saber.obj
 0001:0007ac50       ?PM_AttackMoveForQuad@@YAHH@Z 2007bc50 f   bg_saber.obj
 0001:0007ad00       ?PM_BrokenParryForParry@@YAHH@Z 2007bd00 f   bg_saber.obj
 0001:0007ae80       ?PM_CanBackstab@@YAHXZ     2007be80 f   bg_saber.obj
 0001:0007b260       ?PM_CanDoKata@@YAHXZ       2007c260 f   bg_saber.obj
 0001:0007b480       ?PM_CanDoRollStab@@YAHXZ   2007c480 f   bg_saber.obj
 0001:0007b540       ?PM_CheckAltKickAttack@@YAHXZ 2007c540 f   bg_saber.obj
 0001:0007bb70       ?PM_CheckPullAttack@@YAHXZ 2007cb70 f   bg_saber.obj
 0001:0007bb90       ?PM_CheckStabDown@@YAHXZ   2007cb90 f   bg_saber.obj
 0001:0007bf60       ?PM_GroundDistance@@YAMXZ  2007cf60 f   bg_saber.obj
 0001:0007c170       ?PM_InSecondaryStyle@@YAHXZ 2007d170 f   bg_saber.obj
 0001:0007c1e0       ?PM_KickMoveForConditions@@YAHXZ 2007d1e0 f   bg_saber.obj
 0001:0007c3d0       ?PM_SaberAnimTransitionAnim@@YAHHH@Z 2007d3d0 f   bg_saber.obj
 0001:0007c700       ?PM_SaberAttackChainAngle@@YAHHH@Z 2007d700 f   bg_saber.obj
 0001:0007c750       ?PM_SaberAttackForMovement@@YAHH@Z 2007d750 f   bg_saber.obj
 0001:0007d960       ?PM_SaberBackflipAttackMove@@YAHXZ 2007e960 f   bg_saber.obj
 0001:0007daa0       ?PM_SaberDualJumpAttackMove@@YAHXZ 2007eaa0 f   bg_saber.obj
 0001:0007dad0       ?PM_SaberFlipOverAttackMove@@YAHXZ 2007ead0 f   bg_saber.obj
 0001:0007ddf0       ?PM_SaberInBounce@@YAHH@Z  2007edf0 f   bg_saber.obj
 0001:0007de40       ?PM_SaberInBrokenParry@@YAHH@Z 2007ee40 f   bg_saber.obj
 0001:0007dea0       ?PM_SaberJumpAttackMove2@@YAHXZ 2007eea0 f   bg_saber.obj
 0001:0007dfd0       ?PM_SaberJumpAttackMove@@YAHXZ 2007efd0 f   bg_saber.obj
 0001:0007e2f0       ?PM_SaberKataDone@@YAHHH@Z 2007f2f0 f   bg_saber.obj
 0001:0007e5e0       ?PM_SaberLockBreak@@YAXPAUplayerState_s@@HH@Z 2007f5e0 f   bg_saber.obj
 0001:0007edd0       ?PM_SaberLockLoseAnim@@YAHPAUplayerState_s@@HH@Z 2007fdd0 f   bg_saber.obj
 0001:0007f070       ?PM_SaberLockResultAnim@@YAHPAUplayerState_s@@HH@Z 20080070 f   bg_saber.obj
 0001:0007f240       ?PM_SaberLockWinAnim@@YAHHH@Z 20080240 f   bg_saber.obj
 0001:0007f480       ?PM_SaberLocked@@YAXXZ     20080480 f   bg_saber.obj
 0001:0007fb70       ?PM_SaberLungeAttackMove@@YAHH@Z 20080b70 f   bg_saber.obj
 0001:0007fe80       ?PM_SaberMoveOkayForKata@@YAHXZ 20080e80 f   bg_saber.obj
 0001:0007fee0       ?PM_SaberMoveQuadrantForMovement@@YAHPAUusercmd_s@@@Z 20080ee0 f   bg_saber.obj
 0001:0007ffd0       ?PM_SaberPowerCheck@@YAHXZ 20080fd0 f   bg_saber.obj
 0001:00080090       ?PM_SetAnimFrame@@YAXPAUplayerState_s@@HHH@Z 20081090 f   bg_saber.obj
 0001:000800c0       ?PM_SetSaberMove@@YAXF@Z   200810c0 f   bg_saber.obj
 0001:00080c60       ?PM_SomeoneInFront@@YAHPAUtrace_t@@@Z 20081c60 f   bg_saber.obj
 0001:00080f40       ?PM_WalkableGroundDistance@@YAMXZ 20081f40 f   bg_saber.obj
 0001:00081180       ?PM_WeaponLightsaber@@YAXXZ 20082180 f   bg_saber.obj
 0001:000832b0       ?PM_irand_timesync@@YAHHH@Z 200842b0 f   bg_saber.obj
 0001:00083410       ?BG_BLADE_ActivateTrail@@YAXPAUbladeInfo_t@@M@Z 20084410 f   bg_saberLoad.obj
 0001:00083440       ?BG_BLADE_DeactivateTrail@@YAXPAUbladeInfo_t@@M@Z 20084440 f   bg_saberLoad.obj
 0001:00083470       ?BG_ParseLiteral@@YAHPAPBDPBD@Z 20084470 f   bg_saberLoad.obj
 0001:00083510       ?BG_SI_Activate@@YAXPAUsaberInfo_t@@@Z 20084510 f   bg_saberLoad.obj
 0001:00083570       ?BG_SI_ActivateTrail@@YAXPAUsaberInfo_t@@M@Z 20084570 f   bg_saberLoad.obj
 0001:000835e0       ?BG_SI_Active@@YAHPAUsaberInfo_t@@@Z 200845e0 f   bg_saberLoad.obj
 0001:00083650       ?BG_SI_BladeActivate@@YAXPAUsaberInfo_t@@HH@Z 20084650 f   bg_saberLoad.obj
 0001:000836a0       ?BG_SI_Deactivate@@YAXPAUsaberInfo_t@@@Z 200846a0 f   bg_saberLoad.obj
 0001:00083700       ?BG_SI_DeactivateTrail@@YAXPAUsaberInfo_t@@M@Z 20084700 f   bg_saberLoad.obj
 0001:00083770       ?BG_SI_Length@@YAMPAUsaberInfo_t@@@Z 20084770 f   bg_saberLoad.obj
 0001:00083810       ?BG_SI_LengthMax@@YAMPAUsaberInfo_t@@@Z 20084810 f   bg_saberLoad.obj
 0001:000838b0       ?BG_SI_SetDesiredLength@@YAXPAUsaberInfo_t@@MH@Z 200848b0 f   bg_saberLoad.obj
 0001:00083950       ?BG_SI_SetLength@@YAXPAUsaberInfo_t@@M@Z 20084950 f   bg_saberLoad.obj
 0001:000839b0       ?BG_SI_SetLengthGradual@@YAXPAUsaberInfo_t@@H@Z 200849b0 f   bg_saberLoad.obj
 0001:00083db0       ?BG_SoundIndex@@YAHPAD@Z   20084db0 f   bg_saberLoad.obj
 0001:00083de0       ?TranslateSaberColor@@YAHPBD@Z 20084de0 f   bg_saberLoad.obj
 0001:00083f00       ?TranslateSaberStyle@@YA?AW4saber_styles_t@@PBD@Z 20084f00 f   bg_saberLoad.obj
 0001:00084020       ?WP_RemoveSaber@@YAXPAUsaberInfo_t@@H@Z 20085020 f   bg_saberLoad.obj
 0001:000840d0       ?WP_SaberBladeDoTransitionDamage@@YAHPAUsaberInfo_t@@H@Z 200850d0 f   bg_saberLoad.obj
 0001:00084160       ?WP_SaberBladeUseSecondBladeStyle@@YAHPAUsaberInfo_t@@H@Z 20085160 f   bg_saberLoad.obj
 0001:000841b0       ?WP_SaberCanTurnOffSomeBlades@@YAHPAUsaberInfo_t@@@Z 200851b0 f   bg_saberLoad.obj
 0001:00084240       ?WP_SaberLoadParms@@YAXXZ  20085240 f   bg_saberLoad.obj
 0001:00084480       ?WP_SaberParseParm@@YAHPBD0PAD@Z 20085480 f   bg_saberLoad.obj
 0001:00084660       ?WP_SaberParseParms@@YAHPBDPAUsaberInfo_t@@@Z 20085660 f   bg_saberLoad.obj
 0001:00088600       ?WP_SaberSetColor@@YAXPAUsaberInfo_t@@HHPAD@Z 20089600 f   bg_saberLoad.obj
 0001:00088650       ?WP_SaberSetDefaults@@YAXPAUsaberInfo_t@@@Z 20089650 f   bg_saberLoad.obj
 0001:00088df0       ?WP_SaberStyleValidForSaber@@YAHPAUsaberInfo_t@@0HH@Z 20089df0 f   bg_saberLoad.obj
 0001:000890a0       ?WP_SaberValidForPlayerInMP@@YAHPBD@Z 2008a0a0 f   bg_saberLoad.obj
 0001:00089150       ?WP_SetSaber@@YAXHPAUsaberInfo_t@@HPBD@Z 2008a150 f   bg_saberLoad.obj
 0001:000892b0       ?WP_UseFirstValidSaberStyle@@YAHPAUsaberInfo_t@@0HPAH@Z 2008a2b0 f   bg_saberLoad.obj
 0001:00089560       ?BG_GetClassOnBaseClass@@YAPAUsiegeClass_t@@HFF@Z 2008a560 f   bg_saga.obj
 0001:00089620       ?BG_GetUIPortrait@@YAHHFF@Z 2008a620 f   bg_saga.obj
 0001:000896e0       ?BG_GetUIPortraitFile@@YAPADHFF@Z 2008a6e0 f   bg_saga.obj
 0001:000897a0       ?BG_PrecacheSabersForSiegeTeam@@YAXH@Z 2008a7a0 f   bg_saga.obj
 0001:00089990       ?BG_SiegeCheckClassLegality@@YAHHPAD@Z 2008a990 f   bg_saga.obj
 0001:00089a80       ?BG_SiegeCountBaseClass@@YAHHF@Z 2008aa80 f   bg_saga.obj
 0001:00089b20       ?BG_SiegeFindClassByName@@YAPAUsiegeClass_t@@PBD@Z 2008ab20 f   bg_saga.obj
 0001:00089ba0       ?BG_SiegeFindClassIndexByName@@YAHPBD@Z 2008aba0 f   bg_saga.obj
 0001:00089c10       ?BG_SiegeFindTeamForTheme@@YAPAUsiegeTeam_t@@PAD@Z 2008ac10 f   bg_saga.obj
 0001:00089ca0       ?BG_SiegeFindThemeForTeam@@YAPAUsiegeTeam_t@@H@Z 2008aca0 f   bg_saga.obj
 0001:00089ce0       ?BG_SiegeGetPairedValue@@YAHPAD00@Z 2008ace0 f   bg_saga.obj
 0001:0008a330       ?BG_SiegeGetValueGroup@@YAHPAD00@Z 2008b330 f   bg_saga.obj
 0001:0008abc0       ?BG_SiegeLoadClasses@@YAXPAUsiegeClassDesc_t@@@Z 2008bbc0 f   bg_saga.obj
 0001:0008ad20       ?BG_SiegeLoadTeams@@YAXXZ  2008bd20 f   bg_saga.obj
 0001:0008ae50       ?BG_SiegeParseClassFile@@YAXPBDPAUsiegeClassDesc_t@@@Z 2008be50 f   bg_saga.obj
 0001:0008ba80       ?BG_SiegeParseTeamFile@@YAXPBD@Z 2008ca80 f   bg_saga.obj
 0001:0008bdc0       ?BG_SiegeSetTeamTheme@@YAXHPAD@Z 2008cdc0 f   bg_saga.obj
 0001:0008be10       ?BG_SiegeStripTabs@@YAXPAD@Z 2008ce10 f   bg_saga.obj
 0001:0008bea0       ?BG_SiegeTranslateForcePowers@@YAXPADPAUsiegeClass_t@@@Z 2008cea0 f   bg_saga.obj
 0001:0008c3c0       ?BG_SiegeTranslateGenericTable@@YAHPADPAUstringID_table_s@@H@Z 2008d3c0 f   bg_saga.obj
 0001:0008c7e0       ?PM_ClientImpact@@YAHPAUtrace_t@@@Z 2008d7e0 f   bg_slidemove.obj
 0001:0008c8f0       ?PM_GroundSlideOkay@@YAHM@Z 2008d8f0 f   bg_slidemove.obj
 0001:0008ca10       ?PM_SlideMove@@YAHH@Z      2008da10 f   bg_slidemove.obj
 0001:0008dea0       ?PM_StepSlideMove@@YAXH@Z  2008eea0 f   bg_slidemove.obj
 0001:0008ef30       ?PM_VehicleImpact@@YAXPAUbgEntity_s@@PAUtrace_t@@@Z 2008ff30 f   bg_slidemove.obj
 0001:00091420       ?AttachRidersGeneric@@YAXPAUVehicle_s@@@Z 20092420 f   bg_vehicleLoad.obj
 0001:00091590       ?BG_ClearVehicleParseParms@@YAXXZ 20092590 f   bg_vehicleLoad.obj
 0001:00091600       ?BG_GetVehicleModelName@@YAXPAD@Z 20092600 f   bg_vehicleLoad.obj
 0001:000916c0       ?BG_GetVehicleSkinName@@YAXPAD@Z 200926c0 f   bg_vehicleLoad.obj
 0001:00092650       ?BG_SetSharedVehicleFunctions@@YAXPAUvehicleInfo_t@@@Z 20093650 f   bg_vehicleLoad.obj
 0001:00092700       ?BG_VehWeaponLoadParms@@YAXXZ 20093700 f   bg_vehicleLoad.obj
 0001:00092930       ?BG_VehicleClampData@@YAXPAUvehicleInfo_t@@@Z 20093930 f   bg_vehicleLoad.obj
 0001:00092a10       ?BG_VehicleGetIndex@@YAHPBD@Z 20093a10 f   bg_vehicleLoad.obj
 0001:00092a40       ?BG_VehicleLoadParms@@YAXXZ 20093a40 f   bg_vehicleLoad.obj
 0001:00092ce0       ?BG_VehicleSetDefaults@@YAXPAUvehicleInfo_t@@@Z 20093ce0 f   bg_vehicleLoad.obj
 0001:00092d10       ?VEH_LoadVehWeapon@@YAHPBD@Z 20093d10 f   bg_vehicleLoad.obj
 0001:00093000       ?VEH_LoadVehicle@@YAHPBD@Z 20094000 f   bg_vehicleLoad.obj
 0001:00093e00       ?VEH_VehWeaponIndexForName@@YAHPBD@Z 20094e00 f   bg_vehicleLoad.obj
 0001:00093f10       ?VEH_VehicleIndexForName@@YAHPBD@Z 20094f10 f   bg_vehicleLoad.obj
 0001:00094000       ?isVehicleName@@YAHPAD@Z   20095000 f   bg_vehicleLoad.obj
 0001:00096ce0       _Checkcondition            20097ce0 f   disasm.obj
 0001:00096eb0       _Disasm                    20097eb0 f   disasm.obj
 0001:00099bf0       ?BG_FighterUpdate@@YAHPAUVehicle_s@@PBUusercmd_s@@QAM2MP6AXPAUtrace_t@@QBM444HH@Z@Z 2009abf0 f   FighterNPC.obj
 0001:0009a8d0       ?FighterIsInSpace@@YAHPAUgentity_s@@@Z 2009b8d0 f   FighterNPC.obj
 0001:0009a940       ?FighterIsLanded@@YAHPAUVehicle_s@@PAUplayerState_s@@@Z 2009b940 f   FighterNPC.obj
 0001:0009a990       ?FighterIsLanding@@YAHPAUVehicle_s@@PAUplayerState_s@@@Z 2009b990 f   FighterNPC.obj
 0001:0009aa00       ?FighterIsLaunching@@YAHPAUVehicle_s@@PAUplayerState_s@@@Z 2009ba00 f   FighterNPC.obj
 0001:0009ac50       ?FighterOverValidLandingSurface@@YAHPAUVehicle_s@@@Z 2009bc50 f   FighterNPC.obj
 0001:0009acb0       ?FighterPitchAdjust@@YAXPAUVehicle_s@@PAUplayerState_s@@1@Z 2009bcb0 f   FighterNPC.obj
 0001:0009ae70       ?FighterPitchClamp@@YAXPAUVehicle_s@@PAUplayerState_s@@1H@Z 2009be70 f   FighterNPC.obj
 0001:0009afc0       ?FighterSuspended@@YAHPAUVehicle_s@@PAUplayerState_s@@@Z 2009bfc0 f   FighterNPC.obj
 0001:0009b3a0       ?FighterYawAdjust@@YAXPAUVehicle_s@@PAUplayerState_s@@1@Z 2009c3a0 f   FighterNPC.obj
 0001:0009b560       ?G_CreateFighterNPC@@YAXPAPAUVehicle_s@@PBD@Z 2009c560 f   FighterNPC.obj
 0001:0009b5d0       ?G_SetFighterVehicleFunctions@@YAXPAUvehicleInfo_t@@@Z 2009c5d0 f   FighterNPC.obj
 0001:0009ea40       ?ClientEndFrame@@YAXPAUgentity_s@@@Z 2009fa40 f   g_active.obj
 0001:0009ec80       ?ClientEvents@@YAXPAUgentity_s@@H@Z 2009fc80 f   g_active.obj
 0001:0009f4e0       ?ClientImpacts@@YAXPAUgentity_s@@PAUpmove_t@@@Z 200a04e0 f   g_active.obj
 0001:0009f640       ?ClientInactivityTimer@@YAHPAUgentity_s@@@Z 200a0640 f   g_active.obj
 0001:0009f800       ?ClientIntermissionThink@@YAXPAUgclient_s@@@Z 200a0800 f   g_active.obj
 0001:0009f8c0       ?ClientThink@@YAXHPAUusercmd_s@@@Z 200a08c0 f   g_active.obj
 0001:0009f9a0       ?ClientThink_real@@YAXPAUgentity_s@@@Z 200a09a0 f   g_active.obj
 0001:000a7c60       ?ClientTimerActions@@YAXPAUgentity_s@@H@Z 200a8c60 f   g_active.obj
 0001:000a7e30       ?Client_CheckImpactBBrush@@YAXPAUgentity_s@@0@Z 200a8e30 f   g_active.obj
 0001:000a8070       ?DoImpact@@YAXPAUgentity_s@@0H@Z 200a9070 f   g_active.obj
 0001:000a89e0       ?DuelEnd@@YAXPAUgentity_s@@@Z 200a99e0 f   g_active.obj
 0001:000a8aa0       ?G_ActionButtonPressed@@YAHH@Z 200a9aa0 f   g_active.obj
 0001:000a8b90       ?G_AddPushVecToUcmd@@YAXPAUgentity_s@@PAUusercmd_s@@@Z 200a9b90 f   g_active.obj
 0001:000a9140       ?G_CheapWeaponFire@@YAXHH@Z 200aa140 f   g_active.obj
 0001:000a9380       ?G_CheckClientIdle@@YAXPAUgentity_s@@PAUusercmd_s@@@Z 200aa380 f   g_active.obj
 0001:000a9dd0       ?G_CheckClientTimeouts@@YAXPAUgentity_s@@@Z 200aadd0 f   g_active.obj
 0001:000a9e70       ?G_CheckMovingLoopingSounds@@YAXPAUgentity_s@@PAUusercmd_s@@@Z 200aae70 f   g_active.obj
 0001:000aa0f0       ?G_HeldByMonster@@YAXPAUgentity_s@@PAPAUusercmd_s@@@Z 200ab0f0 f   g_active.obj
 0001:000aa340       ?G_MoverTouchPushTriggers@@YAXPAUgentity_s@@QAM@Z 200ab340 f   g_active.obj
 0001:000aa360       ?G_RunClient@@YAXPAUgentity_s@@@Z 200ab360 f   g_active.obj
 0001:000aa3c0       ?G_SetClientSound@@YAXPAUgentity_s@@@Z 200ab3c0 f   g_active.obj
 0001:000aa610       ?G_SetTauntAnim@@YAXPAUgentity_s@@H@Z 200ab610 f   g_active.obj
 0001:000ab690       ?G_StandingAnim@@YAHH@Z    200ac690 f   g_active.obj
 0001:000ab710       ?G_TouchTriggers@@YAXPAUgentity_s@@@Z 200ac710 f   g_active.obj
 0001:000abcf0       ?G_UpdateClientBroadcasts@@YAXPAUgentity_s@@@Z 200accf0 f   g_active.obj
 0001:000ac260       ?G_VehicleAttachDroidUnit@@YAXPAUgentity_s@@@Z 200ad260 f   g_active.obj
 0001:000ac520       ?NPC_Accelerate@@YAXPAUgentity_s@@HH@Z 200ad520 f   g_active.obj
 0001:000aca80       ?P_DamageFeedback@@YAXPAUgentity_s@@@Z 200ada80 f   g_active.obj
 0001:000acf70       ?P_SetTwitchInfo@@YAXPAUgclient_s@@@Z 200adf70 f   g_active.obj
 0001:000acfc0       ?P_WorldEffects@@YAXPAUgentity_s@@@Z 200adfc0 f   g_active.obj
 0001:000ad410       ?SendPendingPredictableEvents@@YAXPAUplayerState_s@@@Z 200ae410 f   g_active.obj
 0001:000ad570       ?SpectatorClientEndFrame@@YAXPAUgentity_s@@@Z 200ae570 f   g_active.obj
 0001:000ad7f0       ?SpectatorThink@@YAXPAUgentity_s@@PAUusercmd_s@@@Z 200ae7f0 f   g_active.obj
 0001:000add40       ?UpdateTournamentInfo@@YAXXZ 200aed40 f   g_arenas.obj
 0001:000ae330       ?BattleGroundControlPoints@@YAHPAPAUgentity_s@@H@Z 200af330 f   g_battleground.obj
 0001:000ae4f0       ?LinkBGSpawnPoints@@YAXXZ  200af4f0 f   g_battleground.obj
 0001:000ae650       ?PlaceWouldTelefrag@@YAHQAM@Z 200af650 f   g_battleground.obj
 0001:000ae970       ?SP_control_point@@YAXPAUgentity_s@@@Z 200af970 f   g_battleground.obj
 0001:000af040       ?SelectBGSpawnPoint@@YAPAUgentity_s@@PAU1@QAM1@Z 200b0040 f   g_battleground.obj
 0001:000af1e0       ?SelectRandomBGSpawnPoint@@YAPAUgentity_s@@HHHQAM@Z 200b01e0 f   g_battleground.obj
 0001:000af450       ?closest@@YAPAUgentity_s@@QAMPAPAU1@H@Z 200b0450 f   g_battleground.obj
 0001:000af500       ?control_point_think@@YAXPAUgentity_s@@@Z 200b0500 f   g_battleground.obj
 0001:000af7d0       ?control_point_use@@YAXPAUgentity_s@@00@Z 200b07d0 f   g_battleground.obj
 0001:000b1070       ?G_AddRandomBot@@YAXH@Z    200b2070 f   g_bot.obj
 0001:000b1470       ?G_BotConnect@@YAHHH@Z     200b2470 f   g_bot.obj
 0001:000b15a0       ?G_CheckBotSpawn@@YAXXZ    200b25a0 f   g_bot.obj
 0001:000b1640       ?G_CheckMinimumPlayers@@YAXXZ 200b2640 f   g_bot.obj
 0001:000b1780       ?G_CountBotPlayers@@YAHH@Z 200b2780 f   g_bot.obj
 0001:000b18d0       ?G_CountHumanPlayers@@YAHH@Z 200b28d0 f   g_bot.obj
 0001:000b1990       ?G_DoesMapSupportGametype@@YAHPBDH@Z 200b2990 f   g_bot.obj
 0001:000b1ae0       ?G_GetArenaInfoByMap@@YAPBDPBD@Z 200b2ae0 f   g_bot.obj
 0001:000b1b60       ?G_GetBotInfoByName@@YAPADPBD@Z 200b2b60 f   g_bot.obj
 0001:000b1bf0       ?G_GetBotInfoByNumber@@YAPADH@Z 200b2bf0 f   g_bot.obj
 0001:000b1c50       ?G_GetMapTypeBits@@YAHPAD@Z 200b2c50 f   g_bot.obj
 0001:000b1e60       ?G_InitBots@@YAXH@Z        200b2e60 f   g_bot.obj
 0001:000b2380       ?G_LoadBotsFromFile@@YAXPAD@Z 200b3380 f   g_bot.obj
 0001:000b2470       ?G_ParseInfos@@YAHPADHQAPAD@Z 200b3470 f   g_bot.obj
 0001:000b2720       ?G_RefreshNextMap@@YAPBDHH@Z 200b3720 f   g_bot.obj
 0001:000b2960       ?G_RemoveQueuedBotBegin@@YAXH@Z 200b3960 f   g_bot.obj
 0001:000b29c0       ?G_RemoveRandomBot@@YAHH@Z 200b39c0 f   g_bot.obj
 0001:000b2b80       ?Svcmd_AddBot_f@@YAXXZ     200b3b80 f   g_bot.obj
 0001:000b2d80       ?Svcmd_BotList_f@@YAXXZ    200b3d80 f   g_bot.obj
 0001:000b2fd0       ?trap_Cvar_VariableValue@@YAMPBD@Z 200b3fd0 f   g_bot.obj
 0001:000b3040       ?AllForceDisabled@@YAHH@Z  200b4040 f   g_client.obj
 0001:000b30a0       ?BodySink@@YAXPAUgentity_s@@@Z 200b40a0 f   g_client.obj
 0001:000b3130       ?ClientBegin@@YAXHH@Z      200b4130 f   g_client.obj
 0001:000b3b50       ?ClientCleanName@@YAXPBDPADH@Z 200b4b50 f   g_client.obj
 0001:000b3d60       ?ClientConnect@@YAPADHHH@Z 200b4d60 f   g_client.obj
 0001:000b4830       ?ClientDisconnect@@YAXH@Z  200b5830 f   g_client.obj
 0001:000b5220       ?ClientModelChanged@@YAHPAUgentity_s@@PAD1@Z 200b6220 f   g_client.obj
 0001:000b5710       ?ClientSpawn@@YAXPAUgentity_s@@@Z 200b6710 f   g_client.obj
 0001:000b6b40       ?ClientSpawn_Default@@YAXPAUgentity_s@@H@Z 200b7b40 f   g_client.obj
 0001:000b6d50       ?ClientSpawn_Duel@@YAXPAUgentity_s@@@Z 200b7d50 f   g_client.obj
 0001:000b6d70       ?ClientSpawn_GameModes@@YAXPAUgentity_s@@@Z 200b7d70 f   g_client.obj
 0001:000b7250       ?ClientSpawn_GetSpawnpoint@@YAPAUgentity_s@@PAU1@QAM1@Z 200b8250 f   g_client.obj
 0001:000b74b0       ?ClientSpawn_Ghost@@YAXPAUgentity_s@@@Z 200b84b0 f   g_client.obj
 0001:000b7500       ?ClientSpawn_Holocron@@YAXPAUgentity_s@@@Z 200b8500 f   g_client.obj
 0001:000b7560       ?ClientSpawn_JediMaster@@YAXPAUgentity_s@@@Z 200b8560 f   g_client.obj
 0001:000b7660       ?ClientSpawn_JediVsMerc@@YAXPAUgentity_s@@H@Z 200b8660 f   g_client.obj
 0001:000b7980       ?ClientSpawn_PowerDuel@@YAXPAUgentity_s@@@Z 200b8980 f   g_client.obj
 0001:000b7a40       ?ClientSpawn_Reborn@@YAXPAUgentity_s@@@Z 200b8a40 f   g_client.obj
 0001:000b7aa0       ?ClientSpawn_ResetClient@@YAXPAUgentity_s@@H@Z 200b8aa0 f   g_client.obj
 0001:000b82e0       ?ClientSpawn_SetupSkin@@YAXPAUgclient_s@@PAD@Z 200b92e0 f   g_client.obj
 0001:000b84e0       ?ClientSpawn_Siege@@YAXPAUgentity_s@@@Z 200b94e0 f   g_client.obj
 0001:000b8940       ?ClientUserNameChanged@@YAXPAUgentity_s@@PAD@Z 200b9940 f   g_client.obj
 0001:000b8e10       ?ClientUserinfoChanged@@YAXH@Z 200b9e10 f   g_client.obj
 0001:000b8e80       ?ClientUserinfoChanged_Do@@YAXH@Z 200b9e80 f   g_client.obj
 0001:000ba190       ?G_BreakArm@@YAXPAUgentity_s@@H@Z 200bb190 f   g_client.obj
 0001:000ba410       ?G_DebugWrite@@YAXPBD0@Z   200bb410 f   g_client.obj
 0001:000ba470       ?G_SaberModelSetup@@YAHPAUgentity_s@@@Z 200bb470 f   g_client.obj
 0001:000ba7d0       ?G_UpdateClientAnims@@YAXPAUgentity_s@@M@Z 200bb7d0 f   g_client.obj
 0001:000bb130       ?InitBodyQue@@YAXXZ        200bc130 f   g_client.obj
 0001:000bb1b0       ?JMSaberThink@@YAXPAUgentity_s@@@Z 200bc1b0 f   g_client.obj
 0001:000bb690       ?JMSaberTouch@@YAXPAUgentity_s@@0PAUtrace_t@@@Z 200bc690 f   g_client.obj
 0001:000bbae0       ?MaintainBodyQueue@@YAXPAUgentity_s@@@Z 200bcae0 f   g_client.obj
 0001:000bbc40       ?PickTeam@@YAHH@Z          200bcc40 f   g_client.obj
 0001:000bbd30       ?SP_info_jedimaster_start@@YAXPAUgentity_s@@@Z 200bcd30 f   g_client.obj
 0001:000bc000       ?SP_info_player_deathmatch@@YAXPAUgentity_s@@@Z 200bd000 f   g_client.obj
 0001:000bc0a0       ?SP_info_player_duel1@@YAXPAUgentity_s@@@Z 200bd0a0 f   g_client.obj
 0001:000bc1f0       ?SP_info_player_duel2@@YAXPAUgentity_s@@@Z 200bd1f0 f   g_client.obj
 0001:000bc340       ?SP_info_player_duel@@YAXPAUgentity_s@@@Z 200bd340 f   g_client.obj
 0001:000bc3e0       ?SP_info_player_intermission@@YAXPAUgentity_s@@@Z 200bd3e0 f   g_client.obj
 0001:000bc400       ?SP_info_player_intermission_blue@@YAXPAUgentity_s@@@Z 200bd400 f   g_client.obj
 0001:000bc420       ?SP_info_player_intermission_red@@YAXPAUgentity_s@@@Z 200bd420 f   g_client.obj
 0001:000bc440       ?SP_info_player_jail@@YAXPAUgentity_s@@@Z 200bd440 f   g_client.obj
 0001:000bc470       ?SP_info_player_siegeteam1@@YAXPAUgentity_s@@@Z 200bd470 f   g_client.obj
 0001:000bc5e0       ?SP_info_player_siegeteam2@@YAXPAUgentity_s@@@Z 200bd5e0 f   g_client.obj
 0001:000bc750       ?SP_info_player_start@@YAXPAUgentity_s@@@Z 200bd750 f   g_client.obj
 0001:000bc7c0       ?SP_info_player_start_blue@@YAXPAUgentity_s@@@Z 200bd7c0 f   g_client.obj
 0001:000bc8e0       ?SP_info_player_start_red@@YAXPAUgentity_s@@@Z 200bd8e0 f   g_client.obj
 0001:000bca00       ?SelectDuelSpawnPoint@@YAPAUgentity_s@@HQAM00@Z 200bda00 f   g_client.obj
 0001:000bd080       ?SelectInitialSpawnPoint@@YAPAUgentity_s@@PAU1@QAM1@Z 200be080 f   g_client.obj
 0001:000bd220       ?SelectNearestDeathmatchSpawnPoint@@YAPAUgentity_s@@QAM@Z 200be220 f   g_client.obj
 0001:000bd3a0       ?SelectRandomDeathmatchSpawnPoint@@YAPAUgentity_s@@XZ 200be3a0 f   g_client.obj
 0001:000bd480       ?SelectRandomFurthestSpawnPoint@@YAPAUgentity_s@@PAU1@QAM1@Z 200be480 f   g_client.obj
 0001:000bdc70       ?SelectSpawnPoint@@YAPAUgentity_s@@PAU1@QAM1@Z 200bec70 f   g_client.obj
 0001:000bdca0       ?SelectSpectatorSpawnPoint@@YAPAUgentity_s@@QAM0@Z 200beca0 f   g_client.obj
 0001:000bdd90       ?SetClientViewAngle@@YAXPAUgentity_s@@QAM@Z 200bed90 f   g_client.obj
 0001:000bdf20       ?SetupGameGhoul2Model@@YAXPAUgentity_s@@PAD1@Z 200bef20 f   g_client.obj
 0001:000bf100       ?SiegePointUse@@YAXPAUgentity_s@@00@Z 200c0100 f   g_client.obj
 0001:000bf150       ?SpotWouldTelefrag2@@YAHPAUgentity_s@@QAM@Z 200c0150 f   g_client.obj
 0001:000bf3e0       ?SpotWouldTelefrag@@YAHPAUgentity_s@@@Z 200c03e0 f   g_client.obj
 0001:000bf640       ?TeamCount@@YAHHH@Z        200c0640 f   g_client.obj
 0001:000bf720       ?TeamLeader@@YAHH@Z        200c0720 f   g_client.obj
 0001:000bf7c0       ?ThrowSaberToAttacker@@YAXPAUgentity_s@@0@Z 200c07c0 f   g_client.obj
 0001:000c01f0       ?gameMode@@YAHH@Z          200c11f0 f   g_client.obj
 0001:000c02b0       ?respawn@@YAXPAUgentity_s@@@Z 200c12b0 f   g_client.obj
 0001:000c0a60       ?thereIsAPlayerSpawn@@YAHXZ 200c1a60 f   g_client.obj
 0001:000c0b10       ?BroadcastTeamChange@@YAXPAUgclient_s@@H@Z 200c1b10 f   g_cmds.obj
 0001:000c0d20       ?CallVote@@YAXPAUgentity_s@@PAD1@Z 200c1d20 f   g_cmds.obj
 0001:000c1c50       ?CheatsOk@@YAHPAUgentity_s@@@Z 200c2c50 f   g_cmds.obj
 0001:000c1d40       ?ClientCommand@@YAXH@Z     200c2d40 f   g_cmds.obj
 0001:000c5340       ?ClientNumberFromString@@YAHPAUgentity_s@@PAD@Z 200c6340 f   g_cmds.obj
 0001:000c54c0       ?Cmd_CallTeamVote_f@@YAXPAUgentity_s@@@Z 200c64c0 f   g_cmds.obj
 0001:000c5e30       ?Cmd_CallVote_f@@YAXPAUgentity_s@@@Z 200c6e30 f   g_cmds.obj
 0001:000c5ec0       ?Cmd_DebugSetBodyAnim_f@@YAXPAUgentity_s@@H@Z 200c6ec0 f   g_cmds.obj
 0001:000c6010       ?Cmd_DebugSetSaberMove_f@@YAXPAUgentity_s@@@Z 200c7010 f   g_cmds.obj
 0001:000c6140       ?Cmd_DebugThrow_f@@YAXPAUgentity_s@@@Z 200c7140 f   g_cmds.obj
 0001:000c72a0       ?Cmd_DuelTeam_f@@YAXPAUgentity_s@@@Z 200c82a0 f   g_cmds.obj
 0001:000c7680       ?Cmd_EngageDuel_f@@YAXPAUgentity_s@@@Z 200c8680 f   g_cmds.obj
 0001:000c8af0       ?Cmd_FollowCycle_f@@YAXPAUgentity_s@@H@Z 200c9af0 f   g_cmds.obj
 0001:000c8d00       ?Cmd_Follow_f@@YAXPAUgentity_s@@@Z 200c9d00 f   g_cmds.obj
 0001:000c8f20       ?Cmd_ForceChanged_f@@YAXPAUgentity_s@@@Z 200c9f20 f   g_cmds.obj
 0001:000c9090       ?Cmd_GameCommand_f@@YAXPAUgentity_s@@@Z 200ca090 f   g_cmds.obj
 0001:000c91b0       ?Cmd_Give_f@@YAXPAUgentity_s@@H@Z 200ca1b0 f   g_cmds.obj
 0001:000c9e20       ?Cmd_Hug_f@@YAXPAUgentity_s@@@Z 200cae20 f   g_cmds.obj
 0001:000ca630       ?Cmd_Kill_f@@YAXPAUgentity_s@@@Z 200cb630 f   g_cmds.obj
 0001:000ca7d0       ?Cmd_LevelShot_f@@YAXPAUgentity_s@@@Z 200cb7d0 f   g_cmds.obj
 0001:000ca860       ?Cmd_Notarget_f@@YAXPAUgentity_s@@@Z 200cb860 f   g_cmds.obj
 0001:000ca900       ?Cmd_SaberAttackCycle_f@@YAXPAUgentity_s@@@Z 200cb900 f   g_cmds.obj
 0001:000cb200       ?Cmd_Say_f@@YAXPAUgentity_s@@HH@Z 200cc200 f   g_cmds.obj
 0001:000cb270       ?Cmd_Score_f@@YAXPAUgentity_s@@@Z 200cc270 f   g_cmds.obj
 0001:000cb2a0       ?Cmd_SetModel_f@@YAXPAUgentity_s@@H@Z 200cc2a0 f   g_cmds.obj
 0001:000cb360       ?Cmd_SetViewpos_f@@YAXPAUgentity_s@@@Z 200cc360 f   g_cmds.obj
 0001:000cb560       ?Cmd_SiegeClass_f@@YAXPAUgentity_s@@H@Z 200cc560 f   g_cmds.obj
 0001:000cb600       ?Cmd_Stats_f@@YAXPAUgentity_s@@@Z 200cc600 f   g_cmds.obj
 0001:000cb620       ?Cmd_TeamTask_f@@YAXPAUgentity_s@@@Z 200cc620 f   g_cmds.obj
 0001:000cb740       ?Cmd_TeamVote_f@@YAXPAUgentity_s@@@Z 200cc740 f   g_cmds.obj
 0001:000cba50       ?Cmd_Team_f@@YAXPAUgentity_s@@@Z 200cca50 f   g_cmds.obj
 0001:000cbf20       ?Cmd_ToggleSaber_f@@YAXPAUgentity_s@@@Z 200ccf20 f   g_cmds.obj
 0001:000cc690       ?Cmd_Vote_f@@YAXPAUgentity_s@@@Z 200cd690 f   g_cmds.obj
 0001:000cc940       ?Cmd_Where_f@@YAXPAUgentity_s@@@Z 200cd940 f   g_cmds.obj
 0001:000cc9b0       ?ConcatArgs@@YAPADH@Z      200cd9b0 f   g_cmds.obj
 0001:000ccb00       ?DeathmatchScoreboardMessage@@YAXPAUgentity_s@@@Z 200cdb00 f   g_cmds.obj
 0001:000cd0d0       ?G_ClientNumberFromName@@YAHPBD@Z 200ce0d0 f   g_cmds.obj
 0001:000cd1d0       ?G_ClientNumberFromStrippedName@@YAHPBD@Z 200ce1d0 f   g_cmds.obj
 0001:000cd2d0       ?G_GetDuelWinner@@YAPAUgentity_s@@PAUgclient_s@@@Z 200ce2d0 f   g_cmds.obj
 0001:000cd370       ?G_ItemUsable@@YAHPAUplayerState_s@@H@Z 200ce370 f   g_cmds.obj
 0001:000cdce0       ?G_OtherPlayersDueling@@YAHXZ 200cece0 f   g_cmds.obj
 0001:000cdd70       ?G_PowerDuelCheckFail@@YAHPAUgentity_s@@@Z 200ced70 f   g_cmds.obj
 0001:000cde30       ?G_Say@@YAXPAUgentity_s@@0HPBD@Z 200cee30 f   g_cmds.obj
 0001:000ceac0       ?G_SetSaber@@YAHPAUgentity_s@@HPADH@Z 200cfac0 f   g_cmds.obj
 0001:000cef80       ?G_TeamForSiegeClass@@YAHPBD@Z 200cff80 f   g_cmds.obj
 0001:000cf090       ?PlayerFromPartialName@@YAHPAD@Z 200d0090 f   g_cmds.obj
 0001:000cf1d0       ?SanitizeString2@@YAXPAD0@Z 200d01d0 f   g_cmds.obj
 0001:000cf2d0       ?SanitizeString3@@YAXPAD0@Z 200d02d0 f   g_cmds.obj
 0001:000cf380       ?SanitizeString@@YAXPAD0@Z 200d0380 f   g_cmds.obj
 0001:000cf420       ?SetTeam@@YAXPAUgentity_s@@PAD@Z 200d0420 f   g_cmds.obj
 0001:000cfc50       ?StandardSetBodyAnim@@YAXPAUgentity_s@@HH@Z 200d0c50 f   g_cmds.obj
 0001:000cfc90       ?StopFollowing@@YAXPAUgentity_s@@@Z 200d0c90 f   g_cmds.obj
 0001:000cfef0       ?TryGrapple@@YAHPAUgentity_s@@@Z 200d0ef0 f   g_cmds.obj
 0001:000d0290       ?canUseChatMode@@YAHPAUgentity_s@@H@Z 200d1290 f   g_cmds.obj
 0001:000d0330       ?changeSiegeClass@@YAXPAUgentity_s@@PAD@Z 200d1330 f   g_cmds.obj
 0001:000d0780       ?checkVoteEnabled@@YAHPAUgentity_s@@H@Z 200d1780 f   g_cmds.obj
 0001:000d0880       ?displayClassesForTeam@@YAXPAUgentity_s@@@Z 200d1880 f   g_cmds.obj
 0001:000d0b10       ?getChatModeName@@YAPADH@Z 200d1b10 f   g_cmds.obj
 0001:000d0b50       ?initChatMode@@YAXPAUgentity_s@@@Z 200d1b50 f   g_cmds.obj
 0001:000d0c90       ??$?0D@?$allocator@U_Container_proxy@std@@@std@@QAE@ABV?$allocator@D@1@@Z 200d1c90 f i g_combat.obj
 0001:000d0cb0       ??$_Deallocate@$07$0A@@std@@YAXPAXI@Z 200d1cb0 f i g_combat.obj
 0001:000d0d40       ??$_Deallocate_plain@V?$allocator@U_Container_proxy@std@@@std@@@std@@YAXAAV?$allocator@U_Container_proxy@std@@@0@QAU_Container_proxy@0@@Z 200d1d40 f i g_combat.obj
 0001:000d0db0       ??$_Delete_plain_internal@V?$allocator@U_Container_proxy@std@@@std@@@std@@YAXAAV?$allocator@U_Container_proxy@std@@@0@QAU_Container_proxy@0@@Z 200d1db0 f i g_combat.obj
 0001:000d0de0       ??$_Destroy_in_place@PAD@std@@YAXAAPAD@Z 200d1de0 f i g_combat.obj
 0001:000d0e00       ??$_Unfancy@D@std@@YAPADPAD@Z 200d1e00 f i g_combat.obj
 0001:000d0e20       ??$exchange@PAU_Iterator_base12@std@@$$T@std@@YAPAU_Iterator_base12@0@AAPAU10@$$QA$$T@Z 200d1e20 f i g_combat.obj
 0001:000d0e50       ??0?$initializer_list@PBD@std@@QAE@PBQBD0@Z 200d1e50 f i g_combat.obj
 0001:000d0e90       ??1?$_Compressed_pair@V?$allocator@D@std@@V?$_String_val@U?$_Simple_types@D@std@@@2@$00@std@@QAE@XZ 200d1e90 f i g_combat.obj
 0001:000d0ec0       ??1?$_String_val@U?$_Simple_types@D@std@@@std@@QAE@XZ 200d1ec0 f i g_combat.obj
 0001:000d0ef0       ??1?$basic_string@DU?$char_traits@D@std@@V?$allocator@D@2@@std@@QAE@XZ 200d1ef0 f i g_combat.obj
 0001:000d0f70       ??1_Bxty@?$_String_val@U?$_Simple_types@D@std@@@std@@QAE@XZ 200d1f70 f i g_combat.obj
 0001:000d0f90       ?AddScore@@YAXPAUgentity_s@@QAMH@Z 200d1f90 f   g_combat.obj
 0001:000d15a0       ?BodyRid@@YAXPAUgentity_s@@@Z 200d25a0 f   g_combat.obj
 0001:000d15e0       ?CanDamage@@YAHPAUgentity_s@@QAM@Z 200d25e0 f   g_combat.obj
 0001:000d1ca0       ?CapLimbs@@YAXPAUgentity_s@@@Z 200d2ca0 f   g_combat.obj
 0001:000d1dc0       ?CheckAlmostCapture@@YAXPAUgentity_s@@0@Z 200d2dc0 f   g_combat.obj
 0001:000d1de0       ?CheckArmor@@YAHPAUgentity_s@@HH@Z 200d2de0 f   g_combat.obj
 0001:000d1f80       ?DeathFX@@YAXPAUgentity_s@@@Z 200d2f80 f   g_combat.obj
 0001:000d2da0       ?DismembermentByNum@@YAXPAUgentity_s@@H@Z 200d3da0 f   g_combat.obj
 0001:000d2ed0       ?DismembermentTest@@YAXPAUgentity_s@@@Z 200d3ed0 f   g_combat.obj
 0001:000d30e0       ?DropLightSaber@@YAXPAUgentity_s@@@Z 200d40e0 f   g_combat.obj
 0001:000d31d0       ?ExplodeDeath@@YAXPAUgentity_s@@@Z 200d41d0 f   g_combat.obj
 0001:000d3380       ?G_AddPowerDuelLoserScore@@YAXHH@Z 200d4380 f   g_combat.obj
 0001:000d34c0       ?G_AddPowerDuelScore@@YAXHH@Z 200d44c0 f   g_combat.obj
 0001:000d3600       ?G_AlertTeam@@YAXPAUgentity_s@@0MM@Z 200d4600 f   g_combat.obj
 0001:000d39d0       ?G_ApplyKnockback@@YAXPAUgentity_s@@QAMM@Z 200d49d0 f   g_combat.obj
 0001:000d3fc0       ?G_CheckForDismemberment@@YAXPAUgentity_s@@0QAMHHH@Z 200d4fc0 f   g_combat.obj
 0001:000d56a0       ?G_CheckVictoryScript@@YAXPAUgentity_s@@@Z 200d66a0 f   g_combat.obj
 0001:000d58e0       ?G_Damage@@YAXPAUgentity_s@@00QAM1HHH@Z 200d68e0 f   g_combat.obj
 0001:000da290       ?G_DeathAlert@@YAXPAUgentity_s@@0@Z 200db290 f   g_combat.obj
 0001:000da2e0       ?G_Dismember@@YAXPAUgentity_s@@0QAMHMMHH@Z 200db2e0 f   g_combat.obj
 0001:000db7e0       ?G_GetDismemberBolt@@YAHPAUgentity_s@@QAMH@Z 200dc7e0 f   g_combat.obj
 0001:000dc160       ?G_GetDismemberLoc@@YAXPAUgentity_s@@QAMH@Z 200dd160 f   g_combat.obj
 0001:000dcc30       ?G_GetHitLocFromSurfName@@YAHPAUgentity_s@@PBDPAHQAM33H@Z 200ddc30 f   g_combat.obj
 0001:000de550       ?G_GetHitLocation@@YAHPAUgentity_s@@QAM@Z 200df550 f   g_combat.obj
 0001:000def70       ?G_GetHitQuad@@YAHPAUgentity_s@@QAM@Z 200dff70 f   g_combat.obj
 0001:000df400       ?G_GetJediMaster@@YAPAUgentity_s@@XZ 200e0400 f   g_combat.obj
 0001:000df490       ?G_HeavyMelee@@YAHPAUgentity_s@@@Z 200e0490 f   g_combat.obj
 0001:000df520       ?G_InKnockDown@@YAHPAUplayerState_s@@@Z 200e0520 f   g_combat.obj
 0001:000df5e0       ?G_Knockdown@@YAXPAUgentity_s@@H@Z 200e05e0 f   g_combat.obj
 0001:000df700       ?G_LocationBasedDamageModifier@@YAXPAUgentity_s@@QAMHHPAH@Z 200e0700 f   g_combat.obj
 0001:000dfa30       ?G_PickDeathAnim@@YAHPAUgentity_s@@QAMHHH@Z 200e0a30 f   g_combat.obj
 0001:000e02f0       ?G_RadiusDamage@@YAHQAMPAUgentity_s@@MM11H@Z 200e12f0 f   g_combat.obj
 0001:000e09d0       ?G_ThereIsAMaster@@YAHXZ   200e19d0 f   g_combat.obj
 0001:000e0a50       ?GibEntity@@YAXPAUgentity_s@@H@Z 200e1a50 f   g_combat.obj
 0001:000e0ab0       ?LimbThink@@YAXPAUgentity_s@@@Z 200e1ab0 f   g_combat.obj
 0001:000e0c00       ?LimbTouch@@YAXPAUgentity_s@@0PAUtrace_t@@@Z 200e1c00 f   g_combat.obj
 0001:000e0c20       ?LookAtKiller@@YAXPAUgentity_s@@00@Z 200e1c20 f   g_combat.obj
 0001:000e0ec0       ?ObjectDie@@YAXPAUgentity_s@@00HH@Z 200e1ec0 f   g_combat.obj
 0001:000e0f10       ?RaySphereIntersections@@YAHQAMM00QAY02M@Z 200e1f10 f   g_combat.obj
 0001:000e1540       ?ScorePlum@@YAXPAUgentity_s@@QAMH@Z 200e2540 f   g_combat.obj
 0001:000e15c0       ?TossClientItems@@YAXPAUgentity_s@@@Z 200e25c0 f   g_combat.obj
 0001:000e1980       ?TossClientWeapon@@YAXPAUgentity_s@@QAMM@Z 200e2980 f   g_combat.obj
 0001:000e2240       ?_Activate_SSO_buffer@?$_String_val@U?$_Simple_types@D@std@@@std@@QAEXXZ 200e3240 f i g_combat.obj
 0001:000e2260       ?_Adjust_manually_vector_aligned@std@@YAXAAPAXAAI@Z 200e3260 f i g_combat.obj
 0001:000e23d0       ?_Deallocate_for_capacity@?$basic_string@DU?$char_traits@D@std@@V?$allocator@D@2@@std@@CAXAAV?$allocator@D@2@QADI@Z 200e33d0 f i g_combat.obj
 0001:000e2440       ?_Get_first@?$_Compressed_pair@V?$allocator@D@std@@V?$_String_val@U?$_Simple_types@D@std@@@2@$00@std@@QAEAAV?$allocator@D@2@XZ 200e3440 f i g_combat.obj
 0001:000e2460       ?_Getal@?$basic_string@DU?$char_traits@D@std@@V?$allocator@D@2@@std@@AAEAAV?$allocator@D@2@XZ 200e3460 f i g_combat.obj
 0001:000e2490       ?_Large_mode_engaged@?$_String_val@U?$_Simple_types@D@std@@@std@@QBE_NXZ 200e3490 f i g_combat.obj
 0001:000e24d0       ?_Myptr@?$_String_val@U?$_Simple_types@D@std@@@std@@QBEPBDXZ 200e34d0 f i g_combat.obj
 0001:000e2520       ?_Orphan_all@_Container_base12@std@@QAEXXZ 200e3520 f i g_combat.obj
 0001:000e2550       ?_Orphan_all_locked_v3@_Container_base12@std@@AAEXXZ 200e3550 f i g_combat.obj
 0001:000e2590       ?_Orphan_all_unlocked_v3@_Container_base12@std@@AAEXXZ 200e3590 f i g_combat.obj
 0001:000e2600       ?_Tidy_deallocate@?$basic_string@DU?$char_traits@D@std@@V?$allocator@D@2@@std@@AAEXXZ 200e3600 f i g_combat.obj
 0001:000e26d0       ?assign@?$_Narrow_char_traits@DH@std@@SAXAADABD@Z 200e36d0 f i g_combat.obj
 0001:000e26f0       ?body_die@@YAXPAUgentity_s@@00HH@Z 200e36f0 f   g_combat.obj
 0001:000e2a20       ?c_str@?$basic_string@DU?$char_traits@D@std@@V?$allocator@D@2@@std@@QBEPBDXZ 200e3a20 f i g_combat.obj
 0001:000e2a50       ?deallocate@?$_Default_allocator_traits@V?$allocator@U_Container_proxy@std@@@std@@@std@@SAXAAV?$allocator@U_Container_proxy@std@@@2@QAU_Container_proxy@2@I@Z 200e3a50 f i g_combat.obj
 0001:000e2a80       ?deallocate@?$allocator@D@std@@QAEXQADI@Z 200e3a80 f i g_combat.obj
 0001:000e2b20       ?meditateProtect@@YAHPAUgentity_s@@@Z 200e3b20 f   g_combat.obj
 0001:000e2c20       ?player_die@@YAXPAUgentity_s@@00HH@Z 200e3c20 f   g_combat.obj
 0001:000e6520       ?DefenderThink@@YAXPAUgentity_s@@@Z 200e7520 f   g_defender.obj
 0001:000e6b80       ?SP_defender@@YAXPAUgentity_s@@@Z 200e7b80 f   g_defender.obj
 0001:000e7300       ?G_RunExPhys@@YAXPAUgentity_s@@MMMHPAHH@Z 200e8300 f   g_exphysics.obj
 0001:000e85a0       ?SP_ghost_exit@@YAXPAUgentity_s@@@Z 200e95a0 f   g_ghost.obj
 0001:000e8a10       ?WP_RemoveTrickedEnt@@YAXPAUforcedata_s@@H@Z 200e9a10 f   g_ghost.obj
 0001:000e8b00       ?ghost_exit_touch@@YAXPAUgentity_s@@0PAUtrace_t@@@Z 200e9b00 f   g_ghost.obj
 0001:000e8ca0       ?isGhost@@YAHPAUgentity_s@@@Z 200e9ca0 f   g_ghost.obj
 0001:000e8d00       ?updateGhost@@YAXPAUgentity_s@@@Z 200e9d00 f   g_ghost.obj
 0001:000e8e60       ?Blocked_Mover@@YAXPAUgentity_s@@0@Z 200e9e60 f   g_ICARUScb.obj
 0001:000e8f30       ?G_DebugPrint@@YAXHPBDZZ   200e9f30 f   g_ICARUScb.obj
 0001:000e90f0       ?MoveOwner@@YAXPAUgentity_s@@@Z 200ea0f0 f   g_ICARUScb.obj
 0001:000e9590       ?Q3_GetFloat@@YAHHHPBDPAM@Z 200ea590 f   g_ICARUScb.obj
 0001:000ea140       ?Q3_GetString@@YAHHHPBDPAPAD@Z 200eb140 f   g_ICARUScb.obj
 0001:000ea920       ?Q3_GetTag@@YAHHPBDHQAM@Z  200eb920 f   g_ICARUScb.obj
 0001:000ea9c0       ?Q3_GetVector@@YAHHHPBDQAM@Z 200eb9c0 f   g_ICARUScb.obj
 0001:000eac50       ?Q3_Kill@@YAXHPBD@Z        200ebc50 f   g_ICARUScb.obj
 0001:000eadc0       ?Q3_Lerp2Angles@@YAXHHQAMM@Z 200ebdc0 f   g_ICARUScb.obj
 0001:000eb060       ?Q3_Lerp2End@@YAXHHM@Z     200ec060 f   g_ICARUScb.obj
 0001:000eb1c0       ?Q3_Lerp2Origin@@YAXHHQAMM@Z 200ec1c0 f   g_ICARUScb.obj
 0001:000eb570       ?Q3_Lerp2Pos@@YAXHHQAM0M@Z 200ec570 f   g_ICARUScb.obj
 0001:000ebad0       ?Q3_Lerp2Start@@YAXHHM@Z   200ecad0 f   g_ICARUScb.obj
 0001:000ebc60       ?Q3_Play@@YAXHHPBD0@Z      200ecc60 f   g_ICARUScb.obj
 0001:000ebe40       ?Q3_PlaySound@@YAHHHPBD0@Z 200ece40 f   g_ICARUScb.obj
 0001:000ec0d0       ?Q3_Remove@@YAXHPBD@Z      200ed0d0 f   g_ICARUScb.obj
 0001:000ec230       ?Q3_RemoveEnt@@YAXPAUgentity_s@@@Z 200ed230 f   g_ICARUScb.obj
 0001:000ec3e0       ?Q3_Set@@YAHHHPBD0@Z       200ed3e0 f   g_ICARUScb.obj
 0001:000f02e0       ?Q3_SetICARUSFreeze@@YAXHPBDH@Z 200f12e0 f   g_ICARUScb.obj
 0001:000f08d0       ?Q3_SetLoopSound@@YAXHPBD@Z 200f18d0 f   g_ICARUScb.obj
 0001:000f15d0       ?Q3_SetParm@@YAXHHPBD@Z    200f25d0 f   g_ICARUScb.obj
 0001:000f23a0       ?Q3_SetViewEntity@@YAXHPBD@Z 200f33a0 f   g_ICARUScb.obj
 0001:000f27d0       ?Q3_TaskIDClear@@YAXPAH@Z  200f37d0 f   g_ICARUScb.obj
 0001:000f27f0       ?Q3_Use@@YAXHPBD@Z         200f37f0 f   g_ICARUScb.obj
 0001:000f29b0       ?SolidifyOwner@@YAXPAUgentity_s@@@Z 200f39b0 f   g_ICARUScb.obj
 0001:000f2a90       ?anglerCallback@@YAXPAUgentity_s@@@Z 200f3a90 f   g_ICARUScb.obj
 0001:000f2d00       ?moveAndRotateCallback@@YAXPAUgentity_s@@@Z 200f3d00 f   g_ICARUScb.obj
 0001:000f2d40       ?moverCallback@@YAXPAUgentity_s@@@Z 200f3d40 f   g_ICARUScb.obj
 0001:000f2e20       _vsprintf                  200f3e20 f i g_ICARUScb.obj
 0001:000f2e60       ?Add_Ammo@@YAXPAUgentity_s@@HH@Z 200f3e60 f   g_items.obj
 0001:000f33e0       ?CheckItemCanBePickedUpByNPC@@YAHPAUgentity_s@@0@Z 200f43e0 f   g_items.obj
 0001:000f34f0       ?ClearRegisteredItems@@YAXXZ 200f44f0 f   g_items.obj
 0001:000f35a0       ?CreateShield@@YAXPAUgentity_s@@@Z 200f45a0 f   g_items.obj
 0001:000f4060       ?Drop_Item@@YAPAUgentity_s@@PAU1@PAUgitem_s@@M@Z 200f5060 f   g_items.obj
 0001:000f4270       ?EWebDie@@YAXPAUgentity_s@@00HH@Z 200f5270 f   g_items.obj
 0001:000f44d0       ?EWebDisattach@@YAXPAUgentity_s@@0@Z 200f54d0 f   g_items.obj
 0001:000f45a0       ?EWebFire@@YAXPAUgentity_s@@0@Z 200f55a0 f   g_items.obj
 0001:000f4860       ?EWebPain@@YAXPAUgentity_s@@0H@Z 200f5860 f   g_items.obj
 0001:000f48e0       ?EWebPositionUser@@YAXPAUgentity_s@@0@Z 200f58e0 f   g_items.obj
 0001:000f4f60       ?EWebPrecache@@YAXXZ       200f5f60 f   g_items.obj
 0001:000f4fb0       ?EWebThink@@YAXPAUgentity_s@@@Z 200f5fb0 f   g_items.obj
 0001:000f5330       ?EWebUpdateBoneAngles@@YAXPAUgentity_s@@0@Z 200f6330 f   g_items.obj
 0001:000f55d0       ?EWeb_Create@@YAPAUgentity_s@@PAU1@@Z 200f65d0 f   g_items.obj
 0001:000f5fe0       ?EWeb_SetBoneAngles@@YAXPAUgentity_s@@PADQAM@Z 200f6fe0 f   g_items.obj
 0001:000f6260       ?EWeb_SetBoneAnim@@YAXPAUgentity_s@@HH@Z 200f7260 f   g_items.obj
 0001:000f6390       ?FinishSpawningItem@@YAXPAUgentity_s@@@Z 200f7390 f   g_items.obj
 0001:000f6b40       ?G_BounceItem@@YAXPAUgentity_s@@PAUtrace_t@@@Z 200f7b40 f   g_items.obj
 0001:000f70f0       ?G_CheckTeamItems@@YAXXZ   200f80f0 f   g_items.obj
 0001:000f7210       ?G_ItemDisabled@@YAHPAUgitem_s@@@Z 200f8210 f   g_items.obj
 0001:000f7280       ?G_PrecacheDispensers@@YAXXZ 200f8280 f   g_items.obj
 0001:000f72f0       ?G_RunItem@@YAXPAUgentity_s@@@Z 200f82f0 f   g_items.obj
 0001:000f75e0       ?G_SpawnItem@@YAXPAUgentity_s@@PAUgitem_s@@@Z 200f85e0 f   g_items.obj
 0001:000f79a0       ?G_SpecialSpawnItem@@YAXPAUgentity_s@@PAUgitem_s@@@Z 200f89a0 f   g_items.obj
 0001:000f7bc0       ?ItemUse_Binoculars@@YAXPAUgentity_s@@@Z 200f8bc0 f   g_items.obj
 0001:000f7cc0       ?ItemUse_Jetpack@@YAXPAUgentity_s@@@Z 200f8cc0 f   g_items.obj
 0001:000f7ea0       ?ItemUse_MedPack@@YAXPAUgentity_s@@@Z 200f8ea0 f   g_items.obj
 0001:000f7ed0       ?ItemUse_MedPack_Big@@YAXPAUgentity_s@@@Z 200f8ed0 f   g_items.obj
 0001:000f7f00       ?ItemUse_Seeker@@YAXPAUgentity_s@@@Z 200f8f00 f   g_items.obj
 0001:000f80f0       ?ItemUse_Sentry@@YAXPAUgentity_s@@@Z 200f90f0 f   g_items.obj
 0001:000f87d0       ?ItemUse_Shield@@YAXPAUgentity_s@@@Z 200f97d0 f   g_items.obj
 0001:000f8830       ?ItemUse_UseCloak@@YAXPAUgentity_s@@@Z 200f9830 f   g_items.obj
 0001:000f8a30       ?ItemUse_UseDisp@@YAXPAUgentity_s@@H@Z 200f9a30 f   g_items.obj
 0001:000f8bb0       ?ItemUse_UseEWeb@@YAXPAUgentity_s@@@Z 200f9bb0 f   g_items.obj
 0001:000f8d00       ?Jetpack_Off@@YAXPAUgentity_s@@@Z 200f9d00 f   g_items.obj
 0001:000f8d80       ?Jetpack_On@@YAXPAUgentity_s@@@Z 200f9d80 f   g_items.obj
 0001:000f8ea0       ?LaunchItem@@YAPAUgentity_s@@PAUgitem_s@@QAM1@Z 200f9ea0 f   g_items.obj
 0001:000f9320       ?MaxAmmo@@YAHPAUgentity_s@@H@Z 200fa320 f   g_items.obj
 0001:000f9620       ?Pickup_Ammo@@YAHPAUgentity_s@@0@Z 200fa620 f   g_items.obj
 0001:000f9850       ?Pickup_Armor@@YAHPAUgentity_s@@0@Z 200fa850 f   g_items.obj
 0001:000f9990       ?Pickup_Health@@YAHPAUgentity_s@@0@Z 200fa990 f   g_items.obj
 0001:000f9b00       ?Pickup_Holdable@@YAHPAUgentity_s@@0@Z 200fab00 f   g_items.obj
 0001:000f9c00       ?Pickup_Powerup@@YAHPAUgentity_s@@0@Z 200fac00 f   g_items.obj
 0001:000fa090       ?Pickup_Weapon@@YAHPAUgentity_s@@0@Z 200fb090 f   g_items.obj
 0001:000fa2d0       ?Pickup_Ysalamiri@@YAHPAUgentity_s@@0@Z 200fb2d0 f   g_items.obj
 0001:000fa390       ?PlaceShield@@YAHPAUgentity_s@@@Z 200fb390 f   g_items.obj
 0001:000fabb0       ?RegisterItem@@YAXPAUgitem_s@@@Z 200fbbb0 f   g_items.obj
 0001:000fac00       ?RespawnItem@@YAXPAUgentity_s@@@Z 200fbc00 f   g_items.obj
 0001:000fadf0       ?SP_PAS@@YAXPAUgentity_s@@@Z 200fbdf0 f   g_items.obj
 0001:000fafd0       ?SaveRegisteredItems@@YAXXZ 200fbfd0 f   g_items.obj
 0001:000fb0e0       ?SentryTouch@@YAXPAUgentity_s@@0PAUtrace_t@@@Z 200fc0e0 f   g_items.obj
 0001:000fb100       ?ShieldDie@@YAXPAUgentity_s@@00HH@Z 200fc100 f   g_items.obj
 0001:000fb140       ?ShieldGoNotSolid@@YAXPAUgentity_s@@@Z 200fc140 f   g_items.obj
 0001:000fb200       ?ShieldGoSolid@@YAXPAUgentity_s@@@Z 200fc200 f   g_items.obj
 0001:000fb3d0       ?ShieldPain@@YAXPAUgentity_s@@0H@Z 200fc3d0 f   g_items.obj
 0001:000fb440       ?ShieldRemove@@YAXPAUgentity_s@@@Z 200fc440 f   g_items.obj
 0001:000fb4d0       ?ShieldThink@@YAXPAUgentity_s@@@Z 200fc4d0 f   g_items.obj
 0001:000fb680       ?ShieldTouch@@YAXPAUgentity_s@@0PAUtrace_t@@@Z 200fc680 f   g_items.obj
 0001:000fb7c0       ?ShieldUse@@YAXPAUgentity_s@@00@Z 200fc7c0 f   g_items.obj
 0001:000fba40       ?SpecialItemThink@@YAXPAUgentity_s@@@Z 200fca40 f   g_items.obj
 0001:000fbba0       ?Touch_Item@@YAXPAUgentity_s@@0PAUtrace_t@@@Z 200fcba0 f   g_items.obj
 0001:000fc990       ?Use_Item@@YAXPAUgentity_s@@00@Z 200fd990 f   g_items.obj
 0001:000fcb20       ?adjustRespawnTime@@YAHMHH@Z 200fdb20 f   g_items.obj
 0001:000fcca0       ?pas_adjust_enemy@@YAXPAUgentity_s@@@Z 200fdca0 f   g_items.obj
 0001:000fd720       ?pas_fire@@YAXPAUgentity_s@@@Z 200fe720 f   g_items.obj
 0001:000fda60       ?pas_think@@YAXPAUgentity_s@@@Z 200fea60 f   g_items.obj
 0001:000fe7e0       ?sentryExpire@@YAXPAUgentity_s@@@Z 200ff7e0 f   g_items.obj
 0001:000fe820       ?turret_die@@YAXPAUgentity_s@@00HH@Z 200ff820 f   g_items.obj
 0001:000fe9f0       ?loadLingoFilter@@YAXXZ    200ff9f0 f   g_lingoCleaner.obj
 0001:000fec00       ?profanityCheck@@YAHPBD@Z  200ffc00 f   g_lingoCleaner.obj
 0001:000fed60       ?takeAction@@YAHPAUgentity_s@@H@Z 200ffd60 f   g_lingoCleaner.obj
 0001:000ff1c0       ?CalculateAwards@@YAXPAUgentity_s@@PAD@Z 201001c0 f   g_log.obj
 0001:000ff700       ?CalculateDemolitionist@@YAHPAUgentity_s@@PAH@Z 20100700 f   g_log.obj
 0001:000ff970       ?CalculateEfficiency@@YAHPAUgentity_s@@PAH@Z 20100970 f   g_log.obj
 0001:000ffae0       ?CalculateLogistics@@YAHPAUgentity_s@@PAH@Z 20100ae0 f   g_log.obj
 0001:000ffcc0       ?CalculateSection31Award@@YAHPAUgentity_s@@@Z 20100cc0 f   g_log.obj
 0001:000ffda0       ?CalculateSharpshooter@@YAHPAUgentity_s@@PAH@Z 20100da0 f   g_log.obj
 0001:000fff20       ?CalculateStreak@@YAHPAUgentity_s@@@Z 20100f20 f   g_log.obj
 0001:000fff40       ?CalculateTactician@@YAHPAUgentity_s@@PAH@Z 20100f40 f   g_log.obj
 0001:001002b0       ?CalculateTeamAward@@YAHPAUgentity_s@@@Z 201012b0 f   g_log.obj
 0001:001003b0       ?CalculateTeamCarrier@@YAHPAUgentity_s@@@Z 201013b0 f   g_log.obj
 0001:001004e0       ?CalculateTeamDefender@@YAHPAUgentity_s@@@Z 201014e0 f   g_log.obj
 0001:00100610       ?CalculateTeamInterceptor@@YAHPAUgentity_s@@@Z 20101610 f   g_log.obj
 0001:00100760       ?CalculateTeamMVP@@YAHPAUgentity_s@@@Z 20101760 f   g_log.obj
 0001:001008a0       ?CalculateTeamMVPByRank@@YAHPAUgentity_s@@@Z 201018a0 f   g_log.obj
 0001:00100a10       ?CalculateTeamRedShirt@@YAHPAUgentity_s@@@Z 20101a10 f   g_log.obj
 0001:00100b70       ?CalculateTeamWarrior@@YAHPAUgentity_s@@@Z 20101b70 f   g_log.obj
 0001:00100cb0       ?CalculateUntouchable@@YAHPAUgentity_s@@@Z 20101cb0 f   g_log.obj
 0001:00100d90       ?G_ClearClientLog@@YAXH@Z  20101d90 f   g_log.obj
 0001:00101010       ?G_LogWeaponDamage@@YAXHHH@Z 20102010 f   g_log.obj
 0001:00101070       ?G_LogWeaponDeath@@YAXHH@Z 20102070 f   g_log.obj
 0001:001010d0       ?G_LogWeaponFire@@YAXHH@Z  201020d0 f   g_log.obj
 0001:001011b0       ?G_LogWeaponFrag@@YAXHH@Z  201021b0 f   g_log.obj
 0001:00101220       ?G_LogWeaponInit@@YAXXZ    20102220 f   g_log.obj
 0001:00101330       ?G_LogWeaponItem@@YAXHH@Z  20102330 f   g_log.obj
 0001:00101390       ?G_LogWeaponKill@@YAXHH@Z  20102390 f   g_log.obj
 0001:001013f0       ?G_LogWeaponOutput@@YAXXZ  201023f0 f   g_log.obj
 0001:00103980       ?G_LogWeaponPickup@@YAXHH@Z 20104980 f   g_log.obj
 0001:001039d0       ?G_LogWeaponPowerup@@YAXHH@Z 201049d0 f   g_log.obj
 0001:00103a30       ?GetFavoriteTargetForClient@@YAHH@Z 20104a30 f   g_log.obj
 0001:00103ad0       ?GetFavoriteWeaponForClient@@YAHH@Z 20104ad0 f   g_log.obj
 0001:00103c10       ?GetMaxDeathsForClient@@YAHH@Z 20104c10 f   g_log.obj
 0001:00103ca0       ?GetMaxKillsForClient@@YAHH@Z 20104ca0 f   g_log.obj
 0001:00103d30       ?GetWorstEnemyForClient@@YAHH@Z 20104d30 f   g_log.obj
 0001:00103e00       ?AddPowerDuelPlayers@@YAXXZ 20104e00 f   g_main.obj
 0001:00104000       ?AddTournamentPlayer@@YAXXZ 20105000 f   g_main.obj
 0001:00104150       ?AdjustTournamentScores@@YAXXZ 20105150 f   g_main.obj
 0001:00104630       ?BG_GetTime@@YAHXZ         20105630 f   g_main.obj
 0001:00104650       ?BeginIntermission@@YAXXZ  20105650 f   g_main.obj
 0001:001047a0       ?CalculateRanks@@YAXXZ     201057a0 f   g_main.obj
 0001:00104fd0       ?CheckCvars@@YAXXZ         20105fd0 f   g_main.obj
 0001:00105930       ?CheckExitRules@@YAXXZ     20106930 f   g_main.obj
 0001:00106240       ?CheckIntermissionExit@@YAXXZ 20107240 f   g_main.obj
 0001:00106dd0       ?CheckTeamLeader@@YAXH@Z   20107dd0 f   g_main.obj
 0001:00106f50       ?CheckTeamVote@@YAXH@Z     20107f50 f   g_main.obj
 0001:00107140       ?CheckTournament@@YAXXZ    20108140 f   g_main.obj
 0001:00107b00       ?CheckVote@@YAXXZ          20108b00 f   g_main.obj
 0001:001080b0       ?Com_Error@@YAXHPBDZZ      201090b0 f   g_main.obj
 0001:00108130       ?Com_Printf@@YAXPBDZZ      20109130 f   g_main.obj
 0001:001081b0       ?DuelLimitHit@@YAHXZ       201091b0 f   g_main.obj
 0001:00108240       ?DuelResetWinsLosses@@YAXXZ 20109240 f   g_main.obj
 0001:001082c0       ?ExitLevel@@YAXXZ          201092c0 f   g_main.obj
 0001:001084c0       ?FindIntermissionPoint@@YAXXZ 201094c0 f   g_main.obj
 0001:00108910       ?G_CanResetDuelists@@YAHXZ 20109910 f   g_main.obj
 0001:001089d0       ?G_Error@@YAXPBDZZ         201099d0 f   g_main.obj
 0001:00108a00       ?G_FindTeams@@YAXXZ        20109a00 f   g_main.obj
 0001:00108c60       ?G_GetStringEdString@@YAPBDPAD0@Z 20109c60 f   g_main.obj
 0001:00108ca0       ?G_InitGame@@YAXHHH@Z      20109ca0 f   g_main.obj
 0001:00109de0       ?G_KickAllBots@@YAXXZ      2010ade0 f   g_main.obj
 0001:00109ed0       ?G_LogPrintf@@YAXPBDZZ     2010aed0 f   g_main.obj
 0001:00109f80       ?G_PowerDuelCount@@YAXPAH0H@Z 2010af80 f   g_main.obj
 0001:0010a040       ?G_Printf@@YAXPBDZZ        2010b040 f   g_main.obj
 0001:0010a0b0       ?G_RegisterCvars@@YAXXZ    2010b0b0 f   g_main.obj
 0001:0010a930       ?G_RemapTeamShaders@@YAXXZ 2010b930 f   g_main.obj
 0001:0010a950       ?G_RemoveDuelist@@YAXH@Z   2010b950 f   g_main.obj
 0001:0010aa00       ?G_ResetDuelists@@YAXXZ    2010ba00 f   g_main.obj
 0001:0010aaf0       ?G_RunFrame@@YAXH@Z        2010baf0 f   g_main.obj
 0001:0010cca0       ?G_RunThink@@YAXPAUgentity_s@@@Z 2010dca0 f   g_main.obj
 0001:0010cd50       ?G_ShutdownGame@@YAXH@Z    2010dd50 f   g_main.obj
 0001:0010cfb0       ?G_UpdateCvars@@YAXXZ      2010dfb0 f   g_main.obj
 0001:0010d0b0       ?Lmd_LogfilePrintf@@YAXHHPBDZZ 2010e0b0 f   g_main.obj
 0001:0010d280       ?LogExit@@YAXPBD@Z         2010e280 f   g_main.obj
 0001:0010d420       ?MoveClientToIntermission@@YAXPAUgentity_s@@@Z 2010e420 f   g_main.obj
 0001:0010d690       ?NAV_CheckCalcPaths@@YAXXZ 2010e690 f   g_main.obj
 0001:0010d7a0       ?PrintTeam@@YAXHPAD@Z      2010e7a0 f   g_main.obj
 0001:0010d810       ?RemoveDuelDrawLoser@@YAXXZ 2010e810 f   g_main.obj
 0001:0010da00       ?RemovePowerDuelLosers@@YAXXZ 2010ea00 f   g_main.obj
 0001:0010db80       ?RemoveTournamentLoser@@YAXXZ 2010eb80 f   g_main.obj
 0001:0010dc00       ?RemoveTournamentWinner@@YAXXZ 2010ec00 f   g_main.obj
 0001:0010dc80       ?ScoreIsTied@@YAHXZ        2010ec80 f   g_main.obj
 0001:0010dd80       ?SendScoreboardMessageToAllClients@@YAXXZ 2010ed80 f   g_main.obj
 0001:0010de00       ?SetLeader@@YAXHH@Z        2010ee00 f   g_main.obj
 0001:0010dff0       ?SortRanks@@YAHPBX0@Z      2010eff0 f   g_main.obj
 0001:0010e2e0       ?strrchr@@YAPADQADH@Z      2010f2e0 f i g_main.obj
 0001:0010e310       _vmMain                    2010f310 f   g_main.obj
 0001:0010ec40       ?EnergyAmmoStationSettings@@YAXPAUgentity_s@@@Z 2010fc40 f   g_misc.obj
 0001:0010ec80       ?EnergyHealthStationSettings@@YAXPAUgentity_s@@@Z 2010fc80 f   g_misc.obj
 0001:0010ecc0       ?EnergyShieldStationSettings@@YAXPAUgentity_s@@@Z 2010fcc0 f   g_misc.obj
 0001:0010eda0       ?FakeBodyThink_Camera@@YAXPAUgentity_s@@@Z 2010fda0 f   g_misc.obj
 0001:0010eec0       ?FirstFreeRefTag@@YAPAUreference_tag_s@@PAUtagOwner_s@@@Z 2010fec0 f   g_misc.obj
 0001:0010ef60       ?FirstFreeTagOwner@@YAPAUtagOwner_s@@XZ 2010ff60 f   g_misc.obj
 0001:0010efd0       ?G_ClientForShooter@@YAPAUgclient_s@@XZ 2010ffd0 f   g_misc.obj
 0001:0010f020       ?G_PortalifyEntities@@YAXPAUgentity_s@@@Z 20110020 f   g_misc.obj
 0001:0010f190       ?HolocronPopOut@@YAXPAUgentity_s@@@Z 20110190 f   g_misc.obj
 0001:0010f2d0       ?HolocronRespawn@@YAXPAUgentity_s@@@Z 201102d0 f   g_misc.obj
 0001:0010f310       ?HolocronThink@@YAXPAUgentity_s@@@Z 20110310 f   g_misc.obj
 0001:0010fe90       ?HolocronTouch@@YAXPAUgentity_s@@0PAUtrace_t@@@Z 20110e90 f   g_misc.obj
 0001:00110210       ?InitShooter@@YAXPAUgentity_s@@H@Z 20111210 f   g_misc.obj
 0001:001103a0       ?SP_CreateRain@@YAXPAUgentity_s@@@Z 201113a0 f   g_misc.obj
 0001:00110440       ?SP_CreateSnow@@YAXPAUgentity_s@@@Z 20111440 f   g_misc.obj
 0001:00110490       ?SP_CreateSpaceDust@@YAXPAUgentity_s@@@Z 20111490 f   g_misc.obj
 0001:001104d0       ?SP_CreateWind@@YAXPAUgentity_s@@@Z 201114d0 f   g_misc.obj
 0001:00110650       ?SP_fx_runner@@YAXPAUgentity_s@@@Z 20111650 f   g_misc.obj
 0001:00110a40       ?SP_info_camp@@YAXPAUgentity_s@@@Z 20111a40 f   g_misc.obj
 0001:00110a70       ?SP_info_notnull@@YAXPAUgentity_s@@@Z 20111a70 f   g_misc.obj
 0001:00110aa0       ?SP_info_null@@YAXPAUgentity_s@@@Z 20111aa0 f   g_misc.obj
 0001:00110ad0       ?SP_light@@YAXPAUgentity_s@@@Z 20111ad0 f   g_misc.obj
 0001:00110c10       ?SP_misc_G2model@@YAXPAUgentity_s@@@Z 20111c10 f   g_misc.obj
 0001:00110c40       ?SP_misc_ammo_floor_unit@@YAXPAUgentity_s@@@Z 20111c40 f   g_misc.obj
 0001:00111220       ?SP_misc_bsp@@YAXPAUgentity_s@@@Z 20112220 f   g_misc.obj
 0001:00111700       ?SP_misc_camera@@YAXPAUgentity_s@@@Z 20112700 f   g_misc.obj
 0001:001118b0       ?SP_misc_exploding_crate@@YAXPAUgentity_s@@@Z 201128b0 f   g_misc.obj
 0001:00111a40       ?SP_misc_faller@@YAXPAUgentity_s@@@Z 20112a40 f   g_misc.obj
 0001:00111b90       ?SP_misc_holocron@@YAXPAUgentity_s@@@Z 20112b90 f   g_misc.obj
 0001:00112190       ?SP_misc_maglock@@YAXPAUgentity_s@@@Z 20113190 f   g_misc.obj
 0001:00112220       ?SP_misc_model@@YAXPAUgentity_s@@@Z 20113220 f   g_misc.obj
 0001:00112250       ?SP_misc_model_ammo_power_converter@@YAXPAUgentity_s@@@Z 20113250 f   g_misc.obj
 0001:00112570       ?SP_misc_model_breakable@@YAXPAUgentity_s@@@Z 20113570 f   g_misc.obj
 0001:00112a00       ?SP_misc_model_health_power_converter@@YAXPAUgentity_s@@@Z 20113a00 f   g_misc.obj
 0001:00112d40       ?SP_misc_model_shield_power_converter@@YAXPAUgentity_s@@@Z 20113d40 f   g_misc.obj
 0001:00113050       ?SP_misc_model_static@@YAXPAUgentity_s@@@Z 20114050 f   g_misc.obj
 0001:00113080       ?SP_misc_portal_camera@@YAXPAUgentity_s@@@Z 20114080 f   g_misc.obj
 0001:00113190       ?SP_misc_portal_surface@@YAXPAUgentity_s@@@Z 20114190 f   g_misc.obj
 0001:00113320       ?SP_misc_security_panel@@YAXPAUgentity_s@@@Z 20114320 f   g_misc.obj
 0001:00113550       ?SP_misc_shield_floor_unit@@YAXPAUgentity_s@@@Z 20114550 f   g_misc.obj
 0001:00113b30       ?SP_misc_skyportal@@YAXPAUgentity_s@@@Z 20114b30 f   g_misc.obj
 0001:00113d20       ?SP_misc_skyportal_orient@@YAXPAUgentity_s@@@Z 20114d20 f   g_misc.obj
 0001:00113d40       ?SP_misc_slotmachine@@YAXPAUgentity_s@@@Z 20114d40 f   g_misc.obj
 0001:00113f10       ?SP_misc_teleporter_dest@@YAXPAUgentity_s@@@Z 20114f10 f   g_misc.obj
 0001:00113f30       ?SP_misc_weapon_shooter@@YAXPAUgentity_s@@@Z 20114f30 f   g_misc.obj
 0001:001141c0       ?SP_misc_weather_zone@@YAXPAUgentity_s@@@Z 201151c0 f   g_misc.obj
 0001:001141f0       ?SP_reference_tag@@YAXPAUgentity_s@@@Z 201151f0 f   g_misc.obj
 0001:00114250       ?SP_shooter_blaster@@YAXPAUgentity_s@@@Z 20115250 f   g_misc.obj
 0001:00114280       ?SP_target_escapetrig@@YAXPAUgentity_s@@@Z 20115280 f   g_misc.obj
 0001:00114350       ?SP_target_screenshake@@YAXPAUgentity_s@@@Z 20115350 f   g_misc.obj
 0001:001143e0       ?SP_terrain@@YAXPAUgentity_s@@@Z 201153e0 f   g_misc.obj
 0001:00114b90       ?TAG_Add@@YAPAUreference_tag_s@@PBD0QAM1HH@Z 20115b90 f   g_misc.obj
 0001:00114e90       ?TAG_Find@@YAPAUreference_tag_s@@PBD0@Z 20115e90 f   g_misc.obj
 0001:00115020       ?TAG_FindOwner@@YAPAUtagOwner_s@@PBD@Z 20116020 f   g_misc.obj
 0001:001150a0       ?TAG_GetAngles@@YAHPBD0QAM@Z 201160a0 f   g_misc.obj
 0001:00115150       ?TAG_GetFlags@@YAHPBD0@Z   20116150 f   g_misc.obj
 0001:001151c0       ?TAG_GetOrigin2@@YAHPBD0QAM@Z 201161c0 f   g_misc.obj
 0001:00115270       ?TAG_GetOrigin@@YAHPBD0QAM@Z 20116270 f   g_misc.obj
 0001:00115360       ?TAG_GetRadius@@YAHPBD0@Z  20116360 f   g_misc.obj
 0001:001153d0       ?TAG_Init@@YAXXZ           201163d0 f   g_misc.obj
 0001:00115470       ?TeleportPlayer@@YAXPAUgentity_s@@QAM1H@Z 20116470 f   g_misc.obj
 0001:00115880       ?Use_Shooter@@YAXPAUgentity_s@@00@Z 20116880 f   g_misc.obj
 0001:00115cd0       ?Use_Target_Escapetrig@@YAXPAUgentity_s@@00@Z 20116cd0 f   g_misc.obj
 0001:00115e90       ?Use_Target_Screenshake@@YAXPAUgentity_s@@00@Z 20116e90 f   g_misc.obj
 0001:00115f00       ?ammo_generic_power_converter_use@@YAXPAUgentity_s@@00@Z 20116f00 f   g_misc.obj
 0001:001163d0       ?ammo_power_converter_use@@YAXPAUgentity_s@@00@Z 201173d0 f   g_misc.obj
 0001:001165e0       ?camera_disconnect@@YAXPAUgentity_s@@00QAM@Z 201175e0 f   g_misc.obj
 0001:00116a20       ?check_recharge@@YAXPAUgentity_s@@@Z 20117a20 f   g_misc.obj
 0001:00116ba0       ?faller_think@@YAXPAUgentity_s@@@Z 20117ba0 f   g_misc.obj
 0001:00116da0       ?faller_touch@@YAXPAUgentity_s@@0PAUtrace_t@@@Z 20117da0 f   g_misc.obj
 0001:00116ee0       ?fx_runner_link@@YAXPAUgentity_s@@@Z 20117ee0 f   g_misc.obj
 0001:00117240       ?fx_runner_think@@YAXPAUgentity_s@@@Z 20118240 f   g_misc.obj
 0001:00117550       ?fx_runner_use@@YAXPAUgentity_s@@00@Z 20118550 f   g_misc.obj
 0001:00117820       ?health_power_converter_use@@YAXPAUgentity_s@@00@Z 20118820 f   g_misc.obj
 0001:001179a0       ?locateCamera@@YAXPAUgentity_s@@@Z 201189a0 f   g_misc.obj
 0001:00117c50       ?maglock_die@@YAXPAUgentity_s@@00HH@Z 20118c50 f   g_misc.obj
 0001:00117d00       ?maglock_link@@YAXPAUgentity_s@@@Z 20118d00 f   g_misc.obj
 0001:00118250       ?misc_camera_think@@YAXPAUgentity_s@@@Z 20119250 f   g_misc.obj
 0001:00118560       ?misc_camera_use@@YAXPAUgentity_s@@00@Z 20119560 f   g_misc.obj
 0001:00118980       ?misc_dlight_use@@YAXPAUgentity_s@@00@Z 20119980 f   g_misc.obj
 0001:001189f0       ?misc_faller_create@@YAXPAUgentity_s@@00@Z 201199f0 f   g_misc.obj
 0001:00118d30       ?misc_faller_think@@YAXPAUgentity_s@@@Z 20119d30 f   g_misc.obj
 0001:00119050       ?misc_model_breakable_pay@@YAXPAUgentity_s@@00@Z 2011a050 f   g_misc.obj
 0001:00119380       ?misc_model_breakable_touch@@YAXPAUgentity_s@@0PAUtrace_t@@@Z 2011a380 f   g_misc.obj
 0001:00119440       ?misc_model_breakable_use@@YAXPAUgentity_s@@00@Z 2011a440 f   g_misc.obj
 0001:001195d0       ?misc_security_panel_use@@YAXPAUgentity_s@@00@Z 2011a5d0 f   g_misc.obj
 0001:00119650       ?misc_slotmachine_use@@YAXPAUgentity_s@@00@Z 2011a650 f   g_misc.obj
 0001:00119c40       ?misc_weapon_shooter_aim@@YAXPAUgentity_s@@@Z 2011ac40 f   g_misc.obj
 0001:00119fb0       ?misc_weapon_shooter_fire@@YAXPAUgentity_s@@@Z 2011afb0 f   g_misc.obj
 0001:0011a040       ?misc_weapon_shooter_use@@YAXPAUgentity_s@@00@Z 2011b040 f   g_misc.obj
 0001:0011a090       ?ref_link@@YAXPAUgentity_s@@@Z 2011b090 f   g_misc.obj
 0001:0011a280       ?shield_power_converter_use@@YAXPAUgentity_s@@00@Z 2011b280 f   g_misc.obj
 0001:0011a650       ?CreateMissile@@YAPAUgentity_s@@QAM0MHPAU1@H@Z 2011b650 f   g_missile.obj
 0001:0011a8d0       ?G_BounceMissile@@YAXPAUgentity_s@@PAUtrace_t@@@Z 2011b8d0 f   g_missile.obj
 0001:0011af70       ?G_BounceProjectile@@YAXQAM000@Z 2011bf70 f   g_missile.obj
 0001:0011b2a0       ?G_DeflectMissile@@YAXPAUgentity_s@@0QAM@Z 2011c2a0 f   g_missile.obj
 0001:0011b800       ?G_ExplodeMissile@@YAXPAUgentity_s@@@Z 2011c800 f   g_missile.obj
 0001:0011bb10       ?G_MissileBounceEffect@@YAXPAUgentity_s@@QAM1@Z 2011cb10 f   g_missile.obj
 0001:0011bcd0       ?G_MissileImpact@@YAXPAUgentity_s@@PAUtrace_t@@@Z 2011ccd0 f   g_missile.obj
 0001:0011d530       ?G_ReflectMissile@@YAXPAUgentity_s@@0QAM@Z 2011e530 f   g_missile.obj
 0001:0011dfb0       ?G_RunMissile@@YAXPAUgentity_s@@@Z 2011efb0 f   g_missile.obj
 0001:0011ea10       ?G_RunStuckMissile@@YAXPAUgentity_s@@@Z 2011fa10 f   g_missile.obj
 0001:0011ed50       ?Blocked_Door@@YAXPAUgentity_s@@0@Z 2011fd50 f   g_mover.obj
 0001:0011ef20       ?CalcTeamDoorCenter@@YAXPAUgentity_s@@QAM@Z 2011ff20 f   g_mover.obj
 0001:0011f4f0       ?FreeDoorTrigger@@YAXPAUgentity_s@@@Z 201204f0 f   g_mover.obj
 0001:0011f560       ?G_Chunks@@YAXHQAMQBM11MHHHM@Z 20120560 f   g_mover.obj
 0001:0011f7c0       ?G_CreateRotationMatrix@@YAXQAMQAY02M@Z 201207c0 f   g_mover.obj
 0001:0011f830       ?G_EntIsBreakable@@YAHH@Z  20120830 f   g_mover.obj
 0001:0011f920       ?G_EntIsDoor@@YAHH@Z       20120920 f   g_mover.obj
 0001:0011f9b0       ?G_EntIsRemovableUsable@@YAHH@Z 201209b0 f   g_mover.obj
 0001:0011fa50       ?G_EntIsUnlockedDoor@@YAHH@Z 20120a50 f   g_mover.obj
 0001:0011fcb0       ?G_FindDoorTrigger@@YAPAUgentity_s@@PAU1@@Z 20120cb0 f   g_mover.obj
 0001:0011fe40       ?G_MiscModelExplosion@@YAXQAM0HH@Z 20120e40 f   g_mover.obj
 0001:001200d0       ?G_MoverPush@@YAHPAUgentity_s@@QAM1PAPAU1@@Z 201210d0 f   g_mover.obj
 0001:00120c30       ?G_MoverTeam@@YAXPAUgentity_s@@@Z 20121c30 f   g_mover.obj
 0001:00121030       ?G_PlayDoorLoopSound@@YAXPAUgentity_s@@@Z 20122030 f   g_mover.obj
 0001:001210c0       ?G_PlayDoorSound@@YAXPAUgentity_s@@H@Z 201220c0 f   g_mover.obj
 0001:00121140       ?G_RotatePoint@@YAXQAMQAY02M@Z 20122140 f   g_mover.obj
 0001:001213d0       ?G_RunMover@@YAXPAUgentity_s@@@Z 201223d0 f   g_mover.obj
 0001:00121430       ?G_TestEntityPosition@@YAPAUgentity_s@@PAU1@@Z 20122430 f   g_mover.obj
 0001:00121600       ?G_TransposeMatrix@@YAXQAY02M0@Z 20122600 f   g_mover.obj
 0001:00121680       ?G_TryPushingEntity@@YAHPAUgentity_s@@0QAM1@Z 20122680 f   g_mover.obj
 0001:00122480       ?GlassDie@@YAXPAUgentity_s@@00HH@Z 20123480 f   g_mover.obj
 0001:00122730       ?GlassDie_Old@@YAXPAUgentity_s@@00HH@Z 20123730 f   g_mover.obj
 0001:00122980       ?GlassPain@@YAXPAUgentity_s@@0H@Z 20123980 f   g_mover.obj
 0001:001229a0       ?GlassUse@@YAXPAUgentity_s@@00@Z 201239a0 f   g_mover.obj
 0001:00123230       ?InitMover@@YAXPAUgentity_s@@@Z 20124230 f   g_mover.obj
 0001:001235a0       ?InitMoverTrData@@YAXPAUgentity_s@@@Z 201245a0 f   g_mover.obj
 0001:00123a40       ?LockDoors@@YAXQAUgentity_s@@@Z 20124a40 f   g_mover.obj
 0001:00123aa0       ?MatchTeam@@YAXPAUgentity_s@@HH@Z 20124aa0 f   g_mover.obj
 0001:00123af0       ?Reached_BinaryMover@@YAXPAUgentity_s@@@Z 20124af0 f   g_mover.obj
 0001:00123d10       ?Reached_Train@@YAXPAUgentity_s@@@Z 20124d10 f   g_mover.obj
 0001:00124100       ?ReturnToPos1@@YAXPAUgentity_s@@@Z 20125100 f   g_mover.obj
 0001:00124190       ?SP_func_bobbing@@YAXPAUgentity_s@@@Z 20125190 f   g_mover.obj
 0001:00124440       ?SP_func_breakable@@YAXPAUgentity_s@@@Z 20125440 f   g_mover.obj
 0001:00124810       ?SP_func_button@@YAXPAUgentity_s@@@Z 20125810 f   g_mover.obj
 0001:00124d40       ?SP_func_door@@YAXPAUgentity_s@@@Z 20125d40 f   g_mover.obj
 0001:001256b0       ?SP_func_glass@@YAXPAUgentity_s@@@Z 201266b0 f   g_mover.obj
 0001:00125910       ?SP_func_pendulum@@YAXPAUgentity_s@@@Z 20126910 f   g_mover.obj
 0001:00125c70       ?SP_func_plat@@YAXPAUgentity_s@@@Z 20126c70 f   g_mover.obj
 0001:00125fd0       ?SP_func_rotating@@YAXPAUgentity_s@@@Z 20126fd0 f   g_mover.obj
 0001:001264c0       ?SP_func_static@@YAXPAUgentity_s@@@Z 201274c0 f   g_mover.obj
 0001:001267a0       ?SP_func_train@@YAXPAUgentity_s@@@Z 201277a0 f   g_mover.obj
 0001:001269e0       ?SP_func_usable@@YAXPAUgentity_s@@@Z 201279e0 f   g_mover.obj
 0001:00126de0       ?SP_func_wall@@YAXPAUgentity_s@@@Z 20127de0 f   g_mover.obj
 0001:00127100       ?SP_path_corner@@YAXPAUgentity_s@@@Z 20128100 f   g_mover.obj
 0001:00127160       ?SP_rail_lane@@YAXPAUgentity_s@@@Z 20128160 f   g_mover.obj
 0001:00127250       ?SP_rail_mover@@YAXPAUgentity_s@@@Z 20128250 f   g_mover.obj
 0001:00127460       ?SP_rail_track@@YAXPAUgentity_s@@@Z 20128460 f   g_mover.obj
 0001:00127550       ?SP_target_fixdoor@@YAXPAUgentity_s@@@Z 20128550 f   g_mover.obj
 0001:00127590       ?SetMoverState@@YAXPAUgentity_s@@W4moverState_t@@H@Z 20128590 f   g_mover.obj
 0001:00128160       ?SpawnPlatTrigger@@YAXPAUgentity_s@@@Z 20129160 f   g_mover.obj
 0001:00128610       ?Think_BeginMoving@@YAXPAUgentity_s@@@Z 20129610 f   g_mover.obj
 0001:00128670       ?Think_MatchTeam@@YAXPAUgentity_s@@@Z 20129670 f   g_mover.obj
 0001:001286b0       ?Think_SetupTrainTargets@@YAXPAUgentity_s@@@Z 201296b0 f   g_mover.obj
 0001:00128840       ?Think_SpawnNewDoorTrigger@@YAXPAUgentity_s@@@Z 20129840 f   g_mover.obj
 0001:00128c30       ?Touch_Button@@YAXPAUgentity_s@@0PAUtrace_t@@@Z 20129c30 f   g_mover.obj
 0001:00128c80       ?Touch_DoorTrigger@@YAXPAUgentity_s@@0PAUtrace_t@@@Z 20129c80 f   g_mover.obj
 0001:00129280       ?Touch_Plat@@YAXPAUgentity_s@@0PAUtrace_t@@@Z 2012a280 f   g_mover.obj
 0001:001292f0       ?Touch_PlatCenterTrigger@@YAXPAUgentity_s@@0PAUtrace_t@@@Z 2012a2f0 f   g_mover.obj
 0001:00129350       ?UnLockDoors@@YAXQAUgentity_s@@@Z 2012a350 f   g_mover.obj
 0001:001293f0       ?Use_BinaryMover@@YAXPAUgentity_s@@00@Z 2012a3f0 f   g_mover.obj
 0001:001295a0       ?Use_BinaryMover_Go@@YAXPAUgentity_s@@@Z 2012a5a0 f   g_mover.obj
 0001:0012a6a0       ?boxEmpty@@YAHPAUgentity_s@@QBM1@Z 2012b6a0 f   g_mover.obj
 0001:0012aad0       ?find_target@@YAPAUgentity_s@@PAU1@@Z 2012bad0 f   g_mover.obj
 0001:0012aba0       ?fixdoor@@YAXPAUgentity_s@@@Z 2012bba0 f   g_mover.obj
 0001:0012ac90       ?funcBBrushDie@@YAXPAUgentity_s@@00HH@Z 2012bc90 f   g_mover.obj
 0001:0012ad60       ?funcBBrushDieGo@@YAXPAUgentity_s@@@Z 2012bd60 f   g_mover.obj
 0001:0012b710       ?funcBBrushPain@@YAXPAUgentity_s@@0H@Z 2012c710 f   g_mover.obj
 0001:0012be20       ?funcBBrushTouch@@YAXPAUgentity_s@@0PAUtrace_t@@@Z 2012ce20 f   g_mover.obj
 0001:0012be40       ?funcBBrushUse@@YAXPAUgentity_s@@00@Z 2012ce40 f   g_mover.obj
 0001:0012bef0       ?func_rotating_use@@YAXPAUgentity_s@@00@Z 2012cef0 f   g_mover.obj
 0001:0012c040       ?func_static_use@@YAXPAUgentity_s@@00@Z 2012d040 f   g_mover.obj
 0001:0012c0c0       ?func_usable_die@@YAXPAUgentity_s@@00HH@Z 2012d0c0 f   g_mover.obj
 0001:0012c100       ?func_usable_pain@@YAXPAUgentity_s@@0H@Z 2012d100 f   g_mover.obj
 0001:0012c130       ?func_usable_think@@YAXPAUgentity_s@@@Z 2012d130 f   g_mover.obj
 0001:0012c190       ?func_usable_use@@YAXPAUgentity_s@@00@Z 2012d190 f   g_mover.obj
 0001:0012c450       ?func_wait_return_solid@@YAXPAUgentity_s@@@Z 2012d450 f   g_mover.obj
 0001:0012c690       ?rail_lane_init@@YAXPAUgentity_s@@@Z 2012d690 f   g_mover.obj
 0001:0012ca90       ?rail_lane_think@@YAXPAUgentity_s@@@Z 2012da90 f   g_mover.obj
 0001:0012cb60       ?rail_lane_use@@YAXPAUgentity_s@@00@Z 2012db60 f   g_mover.obj
 0001:0012cc00       ?rail_mover_init@@YAXPAUgentity_s@@@Z 2012dc00 f   g_mover.obj
 0001:0012cda0       ?rail_mover_think@@YAXPAUgentity_s@@@Z 2012dda0 f   g_mover.obj
 0001:0012d4b0       ?rail_track_init@@YAXPAUgentity_s@@@Z 2012e4b0 f   g_mover.obj
 0001:0012d7f0       ?rail_track_think@@YAXPAUgentity_s@@@Z 2012e7f0 f   g_mover.obj
 0001:0012dd90       ?rail_track_use@@YAXPAUgentity_s@@00@Z 2012ed90 f   g_mover.obj
 0001:0012de20       ?use_wall@@YAXPAUgentity_s@@00@Z 2012ee20 f   g_mover.obj
 0001:0012e290       ?FlyingCreature@@YAHPAUgentity_s@@@Z 2012f290 f   g_nav.obj
 0001:0012e2e0       ?G_Cube@@YAXQAM00M@Z       2012f2e0 f   g_nav.obj
 0001:0012e300       ?G_CubeOutline@@YAXQAM0HIM@Z 2012f300 f   g_nav.obj
 0001:0012e320       ?G_DrawCombatPoint@@YAXQAMH@Z 2012f320 f   g_nav.obj
 0001:0012e340       ?G_DrawEdge@@YAXQAM0H@Z    2012f340 f   g_nav.obj
 0001:0012e360       ?G_DrawNode@@YAXQAMH@Z     2012f360 f   g_nav.obj
 0001:0012e380       ?G_Line@@YAXQAM00M@Z       2012f380 f   g_nav.obj
 0001:0012e3a0       ?NAV_AvoidCollision@@YAHPAUgentity_s@@0PAUnavInfo_s@@@Z 2012f3a0 f   g_nav.obj
 0001:0012e730       ?NAV_Bypass@@YAHPAUgentity_s@@0QAMM1@Z 2012f730 f   g_nav.obj
 0001:0012ee90       ?NAV_CalculatePaths@@YAXPBDH@Z 2012fe90 f   g_nav.obj
 0001:0012f0c0       ?NAV_CheckAhead@@YAHPAUgentity_s@@QAMPAUtrace_t@@H@Z 201300c0 f   g_nav.obj
 0001:0012f460       ?NAV_ClearBlockedInfo@@YAXPAUgentity_s@@@Z 20130460 f   g_nav.obj
 0001:0012f4b0       ?NAV_ClearPathToPoint@@YAHPAUgentity_s@@QAM11HH@Z 201304b0 f   g_nav.obj
 0001:00130000       ?NAV_ClearStoredWaypoints@@YAXXZ 20131000 f   g_nav.obj
 0001:00130020       ?NAV_FindClosestWaypointForEnt@@YAHPAUgentity_s@@H@Z 20131020 f   g_nav.obj
 0001:00130060       ?NAV_FindClosestWaypointForPoint2@@YAHQAM@Z 20131060 f   g_nav.obj
 0001:001301d0       ?NAV_FindClosestWaypointForPoint@@YAHPAUgentity_s@@QAM@Z 201311d0 f   g_nav.obj
 0001:00130380       ?NAV_FindPlayerWaypoint@@YAXH@Z 20131380 f   g_nav.obj
 0001:001303e0       ?NAV_GetNearestNode@@YAHPAUgentity_s@@H@Z 201313e0 f   g_nav.obj
 0001:00130410       ?NAV_GetStoredWaypoint@@YAHPAD@Z 20131410 f   g_nav.obj
 0001:001304d0       ?NAV_HitNavGoal@@YAHQAM000HH@Z 201314d0 f   g_nav.obj
 0001:00130ad0       ?NAV_MicroError@@YAHQAM0@Z 20131ad0 f   g_nav.obj
 0001:00130b40       ?NAV_MoveBlocker@@YAHPAUgentity_s@@QAM@Z 20131b40 f   g_nav.obj
 0001:00130cd0       ?NAV_MoveToGoal@@YAHPAUgentity_s@@PAUnavInfo_s@@@Z 20131cd0 f   g_nav.obj
 0001:00131290       ?NAV_ResolveBlock@@YAHPAUgentity_s@@0QAM@Z 20132290 f   g_nav.obj
 0001:00131300       ?NAV_ResolveEntityCollision@@YAHPAUgentity_s@@0QAM1@Z 20132300 f   g_nav.obj
 0001:00131530       ?NAV_SetBlockedInfo@@YAXPAUgentity_s@@H@Z 20132530 f   g_nav.obj
 0001:00131580       ?NAV_ShowDebugInfo@@YAXXZ  20132580 f   g_nav.obj
 0001:00131730       ?NAV_Shutdown@@YAXXZ       20132730 f   g_nav.obj
 0001:00131750       ?NAV_StackedCanyon@@YAHPAUgentity_s@@0QAM@Z 20132750 f   g_nav.obj
 0001:00132080       ?NAV_Steer@@YAHPAUgentity_s@@QAMM@Z 20133080 f   g_nav.obj
 0001:001324f0       ?NAV_StoreWaypoint@@YAXPAUgentity_s@@@Z 201334f0 f   g_nav.obj
 0001:00132680       ?NAV_TestBestNode@@YAHPAUgentity_s@@HHH@Z 20133680 f   g_nav.obj
 0001:00132e60       ?NAV_TestForBlocked@@YAHPAUgentity_s@@00MPAH@Z 20133e60 f   g_nav.obj
 0001:00132f30       ?NAV_TrueCollision@@YAHPAUgentity_s@@0QAM1@Z 20133f30 f   g_nav.obj
 0001:00133500       ?NAV_WaypointsTooFar@@YAHPAUgentity_s@@0@Z 20134500 f   g_nav.obj
 0001:00133780       ?NPC_Blocked@@YAXPAUgentity_s@@0@Z 20134780 f   g_nav.obj
 0001:001338b0       ?NPC_SetMoveGoal@@YAXPAUgentity_s@@QAMHHH0@Z 201348b0 f   g_nav.obj
 0001:00133d10       ?SP_waypoint@@YAXPAUgentity_s@@@Z 20134d10 f   g_nav.obj
 0001:00133f70       ?SP_waypoint_navgoal@@YAXPAUgentity_s@@@Z 20134f70 f   g_nav.obj
 0001:001341b0       ?SP_waypoint_navgoal_1@@YAXPAUgentity_s@@@Z 201351b0 f   g_nav.obj
 0001:001343a0       ?SP_waypoint_navgoal_2@@YAXPAUgentity_s@@@Z 201353a0 f   g_nav.obj
 0001:00134590       ?SP_waypoint_navgoal_4@@YAXPAUgentity_s@@@Z 20135590 f   g_nav.obj
 0001:00134780       ?SP_waypoint_navgoal_8@@YAXPAUgentity_s@@@Z 20135780 f   g_nav.obj
 0001:00134970       ?SP_waypoint_small@@YAXPAUgentity_s@@@Z 20135970 f   g_nav.obj
 0001:00134bf0       ?Svcmd_Nav_f@@YAXXZ        20135bf0 f   g_nav.obj
 0001:00135130       ?TAG_ShowTags@@YAXH@Z      20136130 f   g_nav.obj
 0001:00135360       ?waypoint_getRadius@@YAIPAUgentity_s@@@Z 20136360 f   g_nav.obj
 0001:001353f0       ?waypoint_testDirection@@YAIQAMMI@Z 201363f0 f   g_nav.obj
 0001:00135870       ?NAVNEW_AvoidCollision@@YAHPAUgentity_s@@0PAUnavInfo_s@@HH@Z 20136870 f   g_navnew.obj
 0001:00135c60       ?NAVNEW_Bypass@@YAHPAUgentity_s@@0QAMM1H@Z 20136c60 f   g_navnew.obj
 0001:00135d90       ?NAVNEW_CheckDoubleBlock@@YAHPAUgentity_s@@0QAM@Z 20136d90 f   g_navnew.obj
 0001:00135de0       ?NAVNEW_ClearPathBetweenPoints@@YAHQAM000HH@Z 20136de0 f   g_navnew.obj
 0001:00135e60       ?NAVNEW_DanceWithBlocker@@YAHPAUgentity_s@@0QAM1@Z 20136e60 f   g_navnew.obj
 0001:001361f0       ?NAVNEW_MoveToGoal@@YAHPAUgentity_s@@PAUnavInfo_s@@@Z 201371f0 f   g_navnew.obj
 0001:00136c00       ?NAVNEW_PushBlocker@@YAXPAUgentity_s@@0QAMH@Z 20137c00 f   g_navnew.obj
 0001:001374f0       ?NAVNEW_ResolveEntityCollision@@YAHPAUgentity_s@@0QAM1H@Z 201384f0 f   g_navnew.obj
 0001:00137700       ?NAVNEW_SidestepBlocker@@YAHPAUgentity_s@@0QAMM11@Z 20138700 f   g_navnew.obj
 0001:00138270       ?NAVNEW_TestNodeConnectionBlocked@@YAHHHPAUgentity_s@@HHH@Z 20139270 f   g_navnew.obj
 0001:00138640       ?NAV_CheckNodeFailedForEnt@@YAHPAUgentity_s@@H@Z 20139640 f   g_navnew.obj
 0001:001386a0       ?NPC_ClearBlocked@@YAXPAUgentity_s@@@Z 201396a0 f   g_navnew.obj
 0001:001386e0       ?NPC_SetBlocked@@YAXPAUgentity_s@@0@Z 201396e0 f   g_navnew.obj
 0001:00138830       ?G_BounceObject@@YAXPAUgentity_s@@PAUtrace_t@@@Z 20139830 f   g_object.obj
 0001:00138f20       ?G_RunObject@@YAXPAUgentity_s@@@Z 20139f20 f   g_object.obj
 0001:001399a0       ?G_StartObjectMoving@@YAXPAUgentity_s@@QAMMW4trType_t@@@Z 2013a9a0 f   g_object.obj
 0001:00139b30       ?G_StopObjectMoving@@YAXPAUgentity_s@@@Z 2013ab30 f   g_object.obj
 0001:00139d40       ?AddSiegeWinningTeamPoints@@YAXHH@Z 2013ad40 f   g_saga.obj
 0001:00139e10       ?BroadcastObjectiveCompletion@@YAXHHHH@Z 2013ae10 f   g_saga.obj
 0001:00139eb0       ?G_SiegeClientExData@@YAXPAUgentity_s@@@Z 2013aeb0 f   g_saga.obj
 0001:0013a120       ?G_SiegeGetCompletionStatus@@YAHHH@Z 2013b120 f   g_saga.obj
 0001:0013a240       ?G_SiegeRegisterWeaponsAndHoldables@@YAXH@Z 2013b240 f   g_saga.obj
 0001:0013a370       ?G_SiegeSetObjectiveComplete@@YAXHHH@Z 2013b370 f   g_saga.obj
 0001:0013a4a0       ?G_ValidateSiegeClassForTeam@@YAXPAUgentity_s@@H@Z 2013b4a0 f   g_saga.obj
 0001:0013a630       ?InitSiegeMode@@YAXXZ      2013b630 f   g_saga.obj
 0001:0013b010       ?SP_info_siege_decomplete@@YAXPAUgentity_s@@@Z 2013c010 f   g_saga.obj
 0001:0013b0e0       ?SP_info_siege_objective@@YAXPAUgentity_s@@@Z 2013c0e0 f   g_saga.obj
 0001:0013b290       ?SP_info_siege_radaricon@@YAXPAUgentity_s@@@Z 2013c290 f   g_saga.obj
 0001:0013b3b0       ?SP_misc_siege_item@@YAXPAUgentity_s@@@Z 2013c3b0 f   g_saga.obj
 0001:0013bc00       ?SP_target_siege_end@@YAXPAUgentity_s@@@Z 2013cc00 f   g_saga.obj
 0001:0013bc50       ?SetTeamQuick@@YAXPAUgentity_s@@HH@Z 2013cc50 f   g_saga.obj
 0001:0013be30       ?SiegeBeginRound@@YAXH@Z   2013ce30 f   g_saga.obj
 0001:0013c070       ?SiegeBroadcast_OBJECTIVECOMPLETE@@YAXHHH@Z 2013d070 f   g_saga.obj
 0001:0013c140       ?SiegeBroadcast_ROUNDOVER@@YAXHH@Z 2013d140 f   g_saga.obj
 0001:0013c200       ?SiegeCheckTimers@@YAXXZ   2013d200 f   g_saga.obj
 0001:0013c550       ?SiegeClearSwitchData@@YAXXZ 2013d550 f   g_saga.obj
 0001:0013c590       ?SiegeDoTeamAssign@@YAXXZ  2013d590 f   g_saga.obj
 0001:0013c6e0       ?SiegeIconUse@@YAXPAUgentity_s@@00@Z 2013d6e0 f   g_saga.obj
 0001:0013c760       ?SiegeItemDie@@YAXPAUgentity_s@@00HH@Z 2013d760 f   g_saga.obj
 0001:0013c8a0       ?SiegeItemPain@@YAXPAUgentity_s@@0H@Z 2013d8a0 f   g_saga.obj
 0001:0013c8d0       ?SiegeItemRemoveOwner@@YAXPAUgentity_s@@0@Z 2013d8d0 f   g_saga.obj
 0001:0013cad0       ?SiegeItemThink@@YAXPAUgentity_s@@@Z 2013dad0 f   g_saga.obj
 0001:0013cff0       ?SiegeItemTouch@@YAXPAUgentity_s@@0PAUtrace_t@@@Z 2013dff0 f   g_saga.obj
 0001:0013d2e0       ?SiegeItemUse@@YAXPAUgentity_s@@00@Z 2013e2e0 f   g_saga.obj
 0001:0013d4a0       ?SiegeObjectiveCompleted@@YAXHHHH@Z 2013e4a0 f   g_saga.obj
 0001:0013d590       ?SiegeRespawn@@YAXPAUgentity_s@@@Z 2013e590 f   g_saga.obj
 0001:0013d640       ?SiegeRoundComplete@@YAXHH@Z 2013e640 f   g_saga.obj
 0001:0013d9a0       ?SiegeSetCompleteData@@YAXH@Z 2013e9a0 f   g_saga.obj
 0001:0013d9e0       ?SiegeTeamSwitch@@YAXHH@Z  2013e9e0 f   g_saga.obj
 0001:0013da60       ?UseSiegeTarget@@YAXPAUgentity_s@@0PAD@Z 2013ea60 f   g_saga.obj
 0001:0013db50       ?decompTriggerUse@@YAXPAUgentity_s@@00@Z 2013eb50 f   g_saga.obj
 0001:0013dd30       ?siegeEndUse@@YAXPAUgentity_s@@00@Z 2013ed30 f   g_saga.obj
 0001:0013dd60       ?siegeTriggerUse@@YAXPAUgentity_s@@00@Z 2013ed60 f   g_saga.obj
 0001:0013e050       ?G_InitSessionData@@YAXPAUgclient_s@@PADHH@Z 2013f050 f   g_session.obj
 0001:0013e3b0       ?G_InitWorldSession@@YAXXZ 2013f3b0 f   g_session.obj
 0001:0013e450       ?G_ReadSessionData@@YAXPAUgclient_s@@@Z 2013f450 f   g_session.obj
 0001:0013e830       ?G_WriteClientSessionData@@YAXPAUgclient_s@@@Z 2013f830 f   g_session.obj
 0001:0013eba0       ?G_WriteSessionData@@YAXXZ 2013fba0 f   g_session.obj
 0001:0013ec40       ?SP_item_botroam@@YAXPAUgentity_s@@@Z 2013fc40 f   g_spawn.obj
 0001:0013ec60       ?SP_gametype_item@@YAXPAUgentity_s@@@Z 2013fc60 f   g_spawn.obj
 0001:0013ee70       ?AddSpawnField@@YAXPAD0@Z  2013fe70 f   g_spawn.obj
 0001:0013ef70       ?Cmd_Entityinfo_t@@YAXPAUgentity_s@@H@Z 2013ff70 f   g_spawn.obj
 0001:0013f780       ?EntitySpawnError@@YAXPBD@Z 20140780 f   g_spawn.obj
 0001:0013f7e0       ?G_AddSpawnVarToken@@YAPADPBD@Z 201407e0 f   g_spawn.obj
 0001:0013f890       ?G_NewString@@YAPADPBD@Z   20140890 f   g_spawn.obj
 0001:0013f980       ?G_ParseSpawnVars@@YAHH@Z  20140980 f   g_spawn.obj
 0001:0013fb80       ?G_PrecacheSoundsets@@YAXXZ 20140b80 f   g_spawn.obj
 0001:0013fc70       ?G_SpawnFloat@@YAHPBD0PAM@Z 20140c70 f   g_spawn.obj
 0001:0013fce0       ?G_SpawnGEntityFromSpawnVars@@YAPAUgentity_s@@H@Z 20140ce0 f   g_spawn.obj
 0001:0013fd10       ?G_SpawnGEntityPtrFromSpawnVars@@YAPAUgentity_s@@PAU1@PAUSpawnData_s@@H@Z 20140d10 f   g_spawn.obj
 0001:00140690       ?G_SpawnInt@@YAHPBD0PAH@Z  20141690 f   g_spawn.obj
 0001:00140700       ?G_SpawnString@@YAHPBD0PAPAD@Z 20141700 f   g_spawn.obj
 0001:001407d0       ?G_SpawnVector@@YAHPBD0QAM@Z 201417d0 f   g_spawn.obj
 0001:00140860       ?G_SubBSP_SpawnEntitiesFromString@@YAXXZ 20141860 f   g_spawn.obj
 0001:00141520       ?InitializeSpawnTable@@YAXXZ 20142520 f   g_spawn.obj
 0001:00141590       ?Lmd_AddSpawnableEntry@@YAXUspawn_t@@@Z 20142590 f   g_spawn.obj
 0001:00141650       ?SP_bsp_worldspawn@@YAHXZ  20142650 f   g_spawn.obj
 0001:00141670       ?SP_worldspawn@@YAXXZ      20142670 f   g_spawn.obj
 0001:00141d40       ?getField@@YAPAUBG_field_t@@PBD@Z 20142d40 f   g_spawn.obj
 0001:00141dc0       ?isValidClassname@@YAHPBD@Z 20142dc0 f   g_spawn.obj
 0001:00141e80       ?strap_G2API_AnimateG2Models@@YAXPAXHPAUsharedRagDollUpdateParams_t@@@Z 20142e80 f   g_strap.obj
 0001:00141eb0       ?strap_G2API_GetBoltMatrix@@YAHPAXHHPAUmdxaBone_t@@QBM2HPAHQAM@Z 20142eb0 f   g_strap.obj
 0001:00141f00       ?strap_G2API_GetBoltMatrix_NoRecNoRot@@YAHPAXHHPAUmdxaBone_t@@QBM2HPAHQAM@Z 20142f00 f   g_strap.obj
 0001:00141f50       ?strap_G2API_GetBoltMatrix_NoReconstruct@@YAHPAXHHPAUmdxaBone_t@@QBM2HPAHQAM@Z 20142f50 f   g_strap.obj
 0001:00141fa0       ?strap_G2API_GetBoneAnim@@YAHPAXPBDHPAMPAH3323H@Z 20142fa0 f   g_strap.obj
 0001:00141ff0       ?strap_G2API_IKMove@@YAHPAXHPAUsharedIKMoveParams_t@@@Z 20142ff0 f   g_strap.obj
 0001:00142020       ?strap_G2API_SetBoneAngles@@YAHPAXHPBDQBMHHHHPAHHH@Z 20143020 f   g_strap.obj
 0001:00142080       ?strap_G2API_SetBoneAnim@@YAHPAXHPBDHHHMHMH@Z 20143080 f   g_strap.obj
 0001:001420f0       ?strap_G2API_SetBoneIKState@@YAHPAXHPBDHPAUsharedSetBoneIKStateParams_t@@@Z 201430f0 f   g_strap.obj
 0001:00142130       ?strap_G2API_SetRagDoll@@YAXPAXPAUsharedRagDollParams_t@@@Z 20143130 f   g_strap.obj
 0001:00142160       ?strap_TrueFree@@YAXPAPAX@Z 20143160 f   g_strap.obj
 0001:00142190       ?strap_TrueMalloc@@YAXPAPAXH@Z 20143190 f   g_strap.obj
 0001:001421c0       ?ConsoleCommand@@YAHXZ     201431c0 f   g_svcmds.obj
 0001:00144230       ?Svcmd_CopyLog_f@@YAXXZ    20145230 f   g_svcmds.obj
 0001:00144420       ?Svcmd_DeleteNick_f@@YAXXZ 20145420 f   g_svcmds.obj
 0001:00144520       ?Svcmd_ForceTeam_f@@YAXXZ  20145520 f   g_svcmds.obj
 0001:001445a0       ?PASSFLOAT@@YAHM@Z         201455a0 f   g_syscalls.obj
 0001:001445d0       ?trap_AAS_AlternativeRouteGoals@@YAHQAMH0HHPAXHH@Z 201455d0 f   g_syscalls.obj
 0001:00144620       ?trap_AAS_AreaInfo@@YAHHPAX@Z 20145620 f   g_syscalls.obj
 0001:00144650       ?trap_AAS_AreaReachability@@YAHH@Z 20145650 f   g_syscalls.obj
 0001:00144680       ?trap_AAS_AreaTravelTimeToGoalArea@@YAHHQAMHH@Z 20145680 f   g_syscalls.obj
 0001:001446c0       ?trap_AAS_BBoxAreas@@YAHQAM0PAHH@Z 201456c0 f   g_syscalls.obj
 0001:00144700       ?trap_AAS_EnableRoutingArea@@YAHHH@Z 20145700 f   g_syscalls.obj
 0001:00144730       ?trap_AAS_EntityInfo@@YAXHPAX@Z 20145730 f   g_syscalls.obj
 0001:00144760       ?trap_AAS_FloatForBSPEpairKey@@YAHHPADPAM@Z 20145760 f   g_syscalls.obj
 0001:001447a0       ?trap_AAS_Initialized@@YAHXZ 201457a0 f   g_syscalls.obj
 0001:001447d0       ?trap_AAS_IntForBSPEpairKey@@YAHHPADPAH@Z 201457d0 f   g_syscalls.obj
 0001:00144810       ?trap_AAS_NextBSPEntity@@YAHH@Z 20145810 f   g_syscalls.obj
 0001:00144840       ?trap_AAS_PointAreaNum@@YAHQAM@Z 20145840 f   g_syscalls.obj
 0001:00144870       ?trap_AAS_PointContents@@YAHQAM@Z 20145870 f   g_syscalls.obj
 0001:001448a0       ?trap_AAS_PointReachabilityAreaIndex@@YAHQAM@Z 201458a0 f   g_syscalls.obj
 0001:001448d0       ?trap_AAS_PredictClientMovement@@YAHPAXHQAMHH11HHMHHH@Z 201458d0 f   g_syscalls.obj
 0001:00144950       ?trap_AAS_PredictRoute@@YAHPAXHQAMHHHHHHHH@Z 20145950 f   g_syscalls.obj
 0001:001449b0       ?trap_AAS_PresenceTypeBoundingBox@@YAXHQAM0@Z 201459b0 f   g_syscalls.obj
 0001:001449f0       ?trap_AAS_Swimming@@YAHQAM@Z 201459f0 f   g_syscalls.obj
 0001:00144a20       ?trap_AAS_Time@@YAMXZ      20145a20 f   g_syscalls.obj
 0001:00144a50       ?trap_AAS_TraceAreas@@YAHQAM0PAHPAY02MH@Z 20145a50 f   g_syscalls.obj
 0001:00144a90       ?trap_AAS_ValueForBSPEpairKey@@YAHHPAD0H@Z 20145a90 f   g_syscalls.obj
 0001:00144ad0       ?trap_AAS_VectorForBSPEpairKey@@YAHHPADQAM@Z 20145ad0 f   g_syscalls.obj
 0001:00144b10       ?trap_AdjustAreaPortalState@@YAXPAUgentity_s@@H@Z 20145b10 f   g_syscalls.obj
 0001:00144b40       ?trap_AreasConnected@@YAHHH@Z 20145b40 f   g_syscalls.obj
 0001:00144b70       ?trap_Argc@@YAHXZ          20145b70 f   g_syscalls.obj
 0001:00144ba0       ?trap_Argv@@YAXHPADH@Z     20145ba0 f   g_syscalls.obj
 0001:00144c40       ?trap_BotAddAvoidSpot@@YAXHQAMMH@Z 20145c40 f   g_syscalls.obj
 0001:00144c90       ?trap_BotAllocChatState@@YAHXZ 20145c90 f   g_syscalls.obj
 0001:00144cc0       ?trap_BotAllocGoalState@@YAHH@Z 20145cc0 f   g_syscalls.obj
 0001:00144cf0       ?trap_BotAllocMoveState@@YAHXZ 20145cf0 f   g_syscalls.obj
 0001:00144d20       ?trap_BotAllocWeaponState@@YAHXZ 20145d20 f   g_syscalls.obj
 0001:00144d50       ?trap_BotAllocateClient@@YAHXZ 20145d50 f   g_syscalls.obj
 0001:00144d80       ?trap_BotAvoidGoalTime@@YAMHH@Z 20145d80 f   g_syscalls.obj
 0001:00144dc0       ?trap_BotChatLength@@YAHH@Z 20145dc0 f   g_syscalls.obj
 0001:00144df0       ?trap_BotChooseBestFightWeapon@@YAHHPAH@Z 20145df0 f   g_syscalls.obj
 0001:00144e20       ?trap_BotChooseLTGItem@@YAHHQAMPAHH@Z 20145e20 f   g_syscalls.obj
 0001:00144e60       ?trap_BotChooseNBGItem@@YAHHQAMPAHHPAXM@Z 20145e60 f   g_syscalls.obj
 0001:00144ec0       ?trap_BotDumpAvoidGoals@@YAXH@Z 20145ec0 f   g_syscalls.obj
 0001:00144ef0       ?trap_BotDumpGoalStack@@YAXH@Z 20145ef0 f   g_syscalls.obj
 0001:00144f20       ?trap_BotEmptyGoalStack@@YAXH@Z 20145f20 f   g_syscalls.obj
 0001:00144f50       ?trap_BotEnterChat@@YAXHHH@Z 20145f50 f   g_syscalls.obj
 0001:00144f90       ?trap_BotFindMatch@@YAHPADPAXK@Z 20145f90 f   g_syscalls.obj
 0001:00144fd0       ?trap_BotFreeCharacter@@YAXH@Z 20145fd0 f   g_syscalls.obj
 0001:00145000       ?trap_BotFreeChatState@@YAXH@Z 20146000 f   g_syscalls.obj
 0001:00145030       ?trap_BotFreeClient@@YAXH@Z 20146030 f   g_syscalls.obj
 0001:00145060       ?trap_BotFreeGoalState@@YAXH@Z 20146060 f   g_syscalls.obj
 0001:00145090       ?trap_BotFreeItemWeights@@YAXH@Z 20146090 f   g_syscalls.obj
 0001:001450c0       ?trap_BotFreeMoveState@@YAXH@Z 201460c0 f   g_syscalls.obj
 0001:001450f0       ?trap_BotFreeWeaponState@@YAXH@Z 201460f0 f   g_syscalls.obj
 0001:00145120       ?trap_BotGetChatMessage@@YAXHPADH@Z 20146120 f   g_syscalls.obj
 0001:00145160       ?trap_BotGetLevelItemGoal@@YAHHPADPAX@Z 20146160 f   g_syscalls.obj
 0001:001451a0       ?trap_BotGetMapLocationGoal@@YAHPADPAX@Z 201461a0 f   g_syscalls.obj
 0001:001451d0       ?trap_BotGetNextCampSpotGoal@@YAHHPAX@Z 201461d0 f   g_syscalls.obj
 0001:00145200       ?trap_BotGetSecondGoal@@YAHHPAX@Z 20146200 f   g_syscalls.obj
 0001:00145230       ?trap_BotGetServerCommand@@YAHHPADH@Z 20146230 f   g_syscalls.obj
 0001:00145270       ?trap_BotGetSnapshotEntity@@YAHHH@Z 20146270 f   g_syscalls.obj
 0001:001452a0       ?trap_BotGetTopGoal@@YAHHPAX@Z 201462a0 f   g_syscalls.obj
 0001:001452d0       ?trap_BotGetWeaponInfo@@YAXHHPAX@Z 201462d0 f   g_syscalls.obj
 0001:00145310       ?trap_BotGoalName@@YAXHPADH@Z 20146310 f   g_syscalls.obj
 0001:00145350       ?trap_BotInitLevelItems@@YAXXZ 20146350 f   g_syscalls.obj
 0001:00145380       ?trap_BotInitMoveState@@YAXHPAX@Z 20146380 f   g_syscalls.obj
 0001:001453b0       ?trap_BotInitialChat@@YAXHPADH00000000@Z 201463b0 f   g_syscalls.obj
 0001:00145410       ?trap_BotInterbreedGoalFuzzyLogic@@YAXHHH@Z 20146410 f   g_syscalls.obj
 0001:00145450       ?trap_BotItemGoalInVisButNotVisible@@YAHHQAM0PAX@Z 20146450 f   g_syscalls.obj
 0001:00145490       ?trap_BotLibDefine@@YAHPAD@Z 20146490 f   g_syscalls.obj
 0001:001454c0       ?trap_BotLibLoadMap@@YAHPBD@Z 201464c0 f   g_syscalls.obj
 0001:001454f0       ?trap_BotLibSetup@@YAHXZ   201464f0 f   g_syscalls.obj
 0001:00145520       ?trap_BotLibShutdown@@YAHXZ 20146520 f   g_syscalls.obj
 0001:00145550       ?trap_BotLibStartFrame@@YAHM@Z 20146550 f   g_syscalls.obj
 0001:00145590       ?trap_BotLibTest@@YAHHPADQAM1@Z 20146590 f   g_syscalls.obj
 0001:001455d0       ?trap_BotLibUpdateEntity@@YAHHPAX@Z 201465d0 f   g_syscalls.obj
 0001:00145600       ?trap_BotLibVarGet@@YAHPAD0H@Z 20146600 f   g_syscalls.obj
 0001:00145640       ?trap_BotLibVarSet@@YAHPAD0@Z 20146640 f   g_syscalls.obj
 0001:00145670       ?trap_BotLoadCharacter@@YAHPADM@Z 20146670 f   g_syscalls.obj
 0001:001456c0       ?trap_BotLoadChatFile@@YAHHPAD0@Z 201466c0 f   g_syscalls.obj
 0001:00145700       ?trap_BotLoadItemWeights@@YAHHPAD@Z 20146700 f   g_syscalls.obj
 0001:00145730       ?trap_BotLoadWeaponWeights@@YAHHPAD@Z 20146730 f   g_syscalls.obj
 0001:00145760       ?trap_BotMatchVariable@@YAXPAXHPADH@Z 20146760 f   g_syscalls.obj
 0001:001457a0       ?trap_BotMoveInDirection@@YAHHQAMMH@Z 201467a0 f   g_syscalls.obj
 0001:001457f0       ?trap_BotMoveToGoal@@YAXPAXH0H@Z 201467f0 f   g_syscalls.obj
 0001:00145830       ?trap_BotMovementViewTarget@@YAHHPAXHMQAM@Z 20146830 f   g_syscalls.obj
 0001:00145890       ?trap_BotMutateGoalFuzzyLogic@@YAXHM@Z 20146890 f   g_syscalls.obj
 0001:001458d0       ?trap_BotNextConsoleMessage@@YAHHPAX@Z 201468d0 f   g_syscalls.obj
 0001:00145900       ?trap_BotNumConsoleMessages@@YAHH@Z 20146900 f   g_syscalls.obj
 0001:00145930       ?trap_BotNumInitialChats@@YAHHPAD@Z 20146930 f   g_syscalls.obj
 0001:00145960       ?trap_BotPopGoal@@YAXH@Z   20146960 f   g_syscalls.obj
 0001:00145990       ?trap_BotPredictVisiblePosition@@YAHQAMHPAXH0@Z 20146990 f   g_syscalls.obj
 0001:001459d0       ?trap_BotPushGoal@@YAXHPAX@Z 201469d0 f   g_syscalls.obj
 0001:00145a00       ?trap_BotQueueConsoleMessage@@YAXHHPAD@Z 20146a00 f   g_syscalls.obj
 0001:00145a40       ?trap_BotReachabilityArea@@YAHQAMH@Z 20146a40 f   g_syscalls.obj
 0001:00145a70       ?trap_BotRemoveConsoleMessage@@YAXHH@Z 20146a70 f   g_syscalls.obj
 0001:00145aa0       ?trap_BotRemoveFromAvoidGoals@@YAXHH@Z 20146aa0 f   g_syscalls.obj
 0001:00145ad0       ?trap_BotReplaceSynonyms@@YAXPADK@Z 20146ad0 f   g_syscalls.obj
 0001:00145b00       ?trap_BotReplyChat@@YAHHPADHH00000000@Z 20146b00 f   g_syscalls.obj
 0001:00145b70       ?trap_BotResetAvoidGoals@@YAXH@Z 20146b70 f   g_syscalls.obj
 0001:00145ba0       ?trap_BotResetAvoidReach@@YAXH@Z 20146ba0 f   g_syscalls.obj
 0001:00145bd0       ?trap_BotResetGoalState@@YAXH@Z 20146bd0 f   g_syscalls.obj
 0001:00145c00       ?trap_BotResetLastAvoidReach@@YAXH@Z 20146c00 f   g_syscalls.obj
 0001:00145c30       ?trap_BotResetMoveState@@YAXH@Z 20146c30 f   g_syscalls.obj
 0001:00145c60       ?trap_BotResetWeaponState@@YAXH@Z 20146c60 f   g_syscalls.obj
 0001:00145c90       ?trap_BotSaveGoalFuzzyLogic@@YAXHPAD@Z 20146c90 f   g_syscalls.obj
 0001:00145cc0       ?trap_BotSetAvoidGoalTime@@YAXHHM@Z 20146cc0 f   g_syscalls.obj
 0001:00145d10       ?trap_BotSetChatGender@@YAXHH@Z 20146d10 f   g_syscalls.obj
 0001:00145d40       ?trap_BotSetChatName@@YAXHPADH@Z 20146d40 f   g_syscalls.obj
 0001:00145d80       ?trap_BotTouchingGoal@@YAHQAMPAX@Z 20146d80 f   g_syscalls.obj
 0001:00145db0       ?trap_BotUpdateEntityItems@@YAXXZ 20146db0 f   g_syscalls.obj
 0001:00145de0       ?trap_BotUserCommand@@YAXHPAUusercmd_s@@@Z 20146de0 f   g_syscalls.obj
 0001:00145e10       ?trap_Bot_CalculatePaths@@YAXH@Z 20146e10 f   g_syscalls.obj
 0001:00145e40       ?trap_Bot_UpdateWaypoints@@YAXHPAPAUwpobject_s@@@Z 20146e40 f   g_syscalls.obj
 0001:00145e70       ?trap_CM_RegisterTerrain@@YAHPBD@Z 20146e70 f   g_syscalls.obj
 0001:00145ea0       ?trap_Characteristic_BFloat@@YAMHHMM@Z 20146ea0 f   g_syscalls.obj
 0001:00145f10       ?trap_Characteristic_BInteger@@YAHHHHH@Z 20146f10 f   g_syscalls.obj
 0001:00145f50       ?trap_Characteristic_Float@@YAMHH@Z 20146f50 f   g_syscalls.obj
 0001:00145f90       ?trap_Characteristic_Integer@@YAHHH@Z 20146f90 f   g_syscalls.obj
 0001:00145fc0       ?trap_Characteristic_String@@YAXHHPADH@Z 20146fc0 f   g_syscalls.obj
 0001:00146000       ?trap_Cvar_Register@@YAXPAUvmCvar_t@@PBD1H@Z 20147000 f   g_syscalls.obj
 0001:00146040       ?trap_Cvar_Set@@YAXPBD0@Z  20147040 f   g_syscalls.obj
 0001:00146070       ?trap_Cvar_Update@@YAXPAUvmCvar_t@@@Z 20147070 f   g_syscalls.obj
 0001:001460a0       ?trap_Cvar_VariableIntegerValue@@YAHPBD@Z 201470a0 f   g_syscalls.obj
 0001:001460d0       ?trap_Cvar_VariableStringBuffer@@YAXPBDPADH@Z 201470d0 f   g_syscalls.obj
 0001:00146100       ?trap_DebugPolygonCreate@@YAHHHPAY02M@Z 20147100 f   g_syscalls.obj
 0001:00146130       ?trap_DebugPolygonDelete@@YAXH@Z 20147130 f   g_syscalls.obj
 0001:00146160       ?trap_DropClient@@YAXHPBD@Z 20147160 f   g_syscalls.obj
 0001:00146190       ?trap_EA_Action@@YAXHH@Z   20147190 f   g_syscalls.obj
 0001:001461c0       ?trap_EA_Alt_Attack@@YAXH@Z 201471c0 f   g_syscalls.obj
 0001:001461f0       ?trap_EA_Attack@@YAXH@Z    201471f0 f   g_syscalls.obj
 0001:00146220       ?trap_EA_Command@@YAXHPAD@Z 20147220 f   g_syscalls.obj
 0001:00146250       ?trap_EA_Crouch@@YAXH@Z    20147250 f   g_syscalls.obj
 0001:00146280       ?trap_EA_DelayedJump@@YAXH@Z 20147280 f   g_syscalls.obj
 0001:001462b0       ?trap_EA_EndRegular@@YAXHM@Z 201472b0 f   g_syscalls.obj
 0001:00146300       ?trap_EA_ForcePower@@YAXH@Z 20147300 f   g_syscalls.obj
 0001:00146330       ?trap_EA_Gesture@@YAXH@Z   20147330 f   g_syscalls.obj
 0001:00146360       ?trap_EA_GetInput@@YAXHMPAX@Z 20147360 f   g_syscalls.obj
 0001:001463b0       ?trap_EA_Jump@@YAXH@Z      201473b0 f   g_syscalls.obj
 0001:001463e0       ?trap_EA_Move@@YAXHQAMM@Z  201473e0 f   g_syscalls.obj
 0001:00146430       ?trap_EA_MoveBack@@YAXH@Z  20147430 f   g_syscalls.obj
 0001:00146460       ?trap_EA_MoveDown@@YAXH@Z  20147460 f   g_syscalls.obj
 0001:00146490       ?trap_EA_MoveForward@@YAXH@Z 20147490 f   g_syscalls.obj
 0001:001464c0       ?trap_EA_MoveLeft@@YAXH@Z  201474c0 f   g_syscalls.obj
 0001:001464f0       ?trap_EA_MoveRight@@YAXH@Z 201474f0 f   g_syscalls.obj
 0001:00146520       ?trap_EA_MoveUp@@YAXH@Z    20147520 f   g_syscalls.obj
 0001:00146550       ?trap_EA_ResetInput@@YAXH@Z 20147550 f   g_syscalls.obj
 0001:00146580       ?trap_EA_Respawn@@YAXH@Z   20147580 f   g_syscalls.obj
 0001:001465b0       ?trap_EA_Say@@YAXHPAD@Z    201475b0 f   g_syscalls.obj
 0001:001465e0       ?trap_EA_SayTeam@@YAXHPAD@Z 201475e0 f   g_syscalls.obj
 0001:00146610       ?trap_EA_SelectWeapon@@YAXHH@Z 20147610 f   g_syscalls.obj
 0001:00146640       ?trap_EA_Talk@@YAXH@Z      20147640 f   g_syscalls.obj
 0001:00146670       ?trap_EA_Use@@YAXH@Z       20147670 f   g_syscalls.obj
 0001:001466a0       ?trap_EA_View@@YAXHQAM@Z   201476a0 f   g_syscalls.obj
 0001:001466d0       ?trap_EntitiesInBox@@YAHQBM0PAHH@Z 201476d0 f   g_syscalls.obj
 0001:00146710       ?trap_EntityContact@@YAHQBM0PBUgentity_s@@@Z 20147710 f   g_syscalls.obj
 0001:00146740       ?trap_EntityContactCapsule@@YAHQBM0PBUgentity_s@@@Z 20147740 f   g_syscalls.obj
 0001:00146770       ?trap_Error@@YAXPBD@Z      20147770 f   g_syscalls.obj
 0001:001467a0       ?trap_FS_FCloseFile@@YAXH@Z 201477a0 f   g_syscalls.obj
 0001:001467d0       ?trap_FS_FOpenFile@@YAHPBDPAHW4fsMode_t@@@Z 201477d0 f   g_syscalls.obj
 0001:00146800       ?trap_FS_GetFileList@@YAHPBD0PADH@Z 20147800 f   g_syscalls.obj
 0001:00146840       ?trap_FS_Read@@YAXPAXHH@Z  20147840 f   g_syscalls.obj
 0001:00146870       ?trap_FS_Write@@YAXPBXHH@Z 20147870 f   g_syscalls.obj
 0001:001468a0       ?trap_G2API_AbsurdSmoothing@@YAXPAXH@Z 201478a0 f   g_syscalls.obj
 0001:001468d0       ?trap_G2API_AddBolt@@YAHPAXHPBD@Z 201478d0 f   g_syscalls.obj
 0001:00146910       ?trap_G2API_AnimateG2Models@@YAXPAXHPAUsharedRagDollUpdateParams_t@@@Z 20147910 f   g_syscalls.obj
 0001:00146950       ?trap_G2API_AttachInstanceToEntNum@@YAXPAXHH@Z 20147950 f   g_syscalls.obj
 0001:00146990       ?trap_G2API_CleanEntAttachments@@YAXXZ 20147990 f   g_syscalls.obj
 0001:001469c0       ?trap_G2API_CleanGhoul2Models@@YAXPAPAX@Z 201479c0 f   g_syscalls.obj
 0001:001469f0       ?trap_G2API_ClearAttachedInstance@@YAXH@Z 201479f0 f   g_syscalls.obj
 0001:00146a20       ?trap_G2API_CollisionDetect@@YAXPAUCollisionRecord_t@@PAXQBM2HHQAM33HHM@Z 20147a20 f   g_syscalls.obj
 0001:00146aa0       ?trap_G2API_CollisionDetectCache@@YAXPAUCollisionRecord_t@@PAXQBM2HHQAM33HHM@Z 20147aa0 f   g_syscalls.obj
 0001:00146b20       ?trap_G2API_CopyGhoul2Instance@@YAHPAX0H@Z 20147b20 f   g_syscalls.obj
 0001:00146b60       ?trap_G2API_CopySpecificGhoul2Model@@YAXPAXH0H@Z 20147b60 f   g_syscalls.obj
 0001:00146ba0       ?trap_G2API_DoesBoneExist@@YAHPAXHPBD@Z 20147ba0 f   g_syscalls.obj
 0001:00146be0       ?trap_G2API_DuplicateGhoul2Instance@@YAXPAXPAPAX@Z 20147be0 f   g_syscalls.obj
 0001:00146c10       ?trap_G2API_GetBoltMatrix@@YAHPAXHHPAUmdxaBone_t@@QBM2HPAHQAM@Z 20147c10 f   g_syscalls.obj
 0001:00146c70       ?trap_G2API_GetBoltMatrix_NoRecNoRot@@YAHPAXHHPAUmdxaBone_t@@QBM2HPAHQAM@Z 20147c70 f   g_syscalls.obj
 0001:00146cd0       ?trap_G2API_GetBoltMatrix_NoReconstruct@@YAHPAXHHPAUmdxaBone_t@@QBM2HPAHQAM@Z 20147cd0 f   g_syscalls.obj
 0001:00146d30       ?trap_G2API_GetBoneAnim@@YAHPAXPBDHPAMPAH3323H@Z 20147d30 f   g_syscalls.obj
 0001:00146d90       ?trap_G2API_GetGLAName@@YAXPAXHPAD@Z 20147d90 f   g_syscalls.obj
 0001:00146dd0       ?trap_G2API_GetRagBonePos@@YAHPAXPBDQAM222@Z 20147dd0 f   g_syscalls.obj
 0001:00146e20       ?trap_G2API_GetSurfaceName@@YAXPAXHHPAD@Z 20147e20 f   g_syscalls.obj
 0001:00146e60       ?trap_G2API_GetSurfaceRenderStatus@@YAHPAXHPBD@Z 20147e60 f   g_syscalls.obj
 0001:00146ea0       ?trap_G2API_Ghoul2Size@@YAHPAX@Z 20147ea0 f   g_syscalls.obj
 0001:00146ed0       ?trap_G2API_HasGhoul2ModelOnIndex@@YAHPAXH@Z 20147ed0 f   g_syscalls.obj
 0001:00146f00       ?trap_G2API_IKMove@@YAHPAXHPAUsharedIKMoveParams_t@@@Z 20147f00 f   g_syscalls.obj
 0001:00146f40       ?trap_G2API_InitGhoul2Model@@YAHPAPAXPBDHHHHH@Z 20147f40 f   g_syscalls.obj
 0001:00146f90       ?trap_G2API_OverrideServer@@YAHPAX@Z 20147f90 f   g_syscalls.obj
 0001:00146fc0       ?trap_G2API_RagEffectorGoal@@YAHPAXPBDQAM@Z 20147fc0 f   g_syscalls.obj
 0001:00147000       ?trap_G2API_RagEffectorKick@@YAHPAXPBDQAM@Z 20148000 f   g_syscalls.obj
 0001:00147040       ?trap_G2API_RagForceSolve@@YAHPAXH@Z 20148040 f   g_syscalls.obj
 0001:00147070       ?trap_G2API_RagPCJConstraint@@YAHPAXPBDQAM2@Z 20148070 f   g_syscalls.obj
 0001:001470b0       ?trap_G2API_RagPCJGradientSpeed@@YAHPAXPBDM@Z 201480b0 f   g_syscalls.obj
 0001:00147100       ?trap_G2API_RemoveBone@@YAHPAXPBDH@Z 20148100 f   g_syscalls.obj
 0001:00147140       ?trap_G2API_RemoveGhoul2Model@@YAHPAXH@Z 20148140 f   g_syscalls.obj
 0001:00147170       ?trap_G2API_RemoveGhoul2Models@@YAHPAX@Z 20148170 f   g_syscalls.obj
 0001:001471a0       ?trap_G2API_SetBoltInfo@@YAXPAXHH@Z 201481a0 f   g_syscalls.obj
 0001:001471e0       ?trap_G2API_SetBoneAngles@@YAHPAXHPBDQBMHHHHPAHHH@Z 201481e0 f   g_syscalls.obj
 0001:00147240       ?trap_G2API_SetBoneAnim@@YAHPAXHPBDHHHMHMH@Z 20148240 f   g_syscalls.obj
 0001:001472c0       ?trap_G2API_SetBoneIKState@@YAHPAXHPBDHPAUsharedSetBoneIKStateParams_t@@@Z 201482c0 f   g_syscalls.obj
 0001:00147300       ?trap_G2API_SetNewOrigin@@YAHPAXH@Z 20148300 f   g_syscalls.obj
 0001:00147330       ?trap_G2API_SetRagDoll@@YAXPAXPAUsharedRagDollParams_t@@@Z 20148330 f   g_syscalls.obj
 0001:00147360       ?trap_G2API_SetRootSurface@@YAHPAXHPBD@Z 20148360 f   g_syscalls.obj
 0001:001473a0       ?trap_G2API_SetSkin@@YAHPAXHHH@Z 201483a0 f   g_syscalls.obj
 0001:001473e0       ?trap_G2API_SetSurfaceOnOff@@YAHPAXPBDH@Z 201483e0 f   g_syscalls.obj
 0001:00147420       ?trap_G2Trace@@YAXPAUtrace_t@@QBM111HHHH@Z 20148420 f   g_syscalls.obj
 0001:00147470       ?trap_G2_HaveWeGhoul2Models@@YAHPAX@Z 20148470 f   g_syscalls.obj
 0001:001474a0       ?trap_G2_ListModelBones@@YAXPAXH@Z 201484a0 f   g_syscalls.obj
 0001:001474d0       ?trap_G2_ListModelSurfaces@@YAXPAX@Z 201484d0 f   g_syscalls.obj
 0001:00147500       ?trap_G2_SetGhoul2ModelIndexes@@YAXPAXPAH1@Z 20148500 f   g_syscalls.obj
 0001:00147540       ?trap_GeneticParentsAndChildSelection@@YAHHPAMPAH11@Z 20148540 f   g_syscalls.obj
 0001:00147580       ?trap_GetConfigstring@@YAXHPADH@Z 20148580 f   g_syscalls.obj
 0001:001475b0       ?trap_GetEntityToken@@YAHPADH@Z 201485b0 f   g_syscalls.obj
 0001:001475e0       ?trap_GetServerinfo@@YAXPADH@Z 201485e0 f   g_syscalls.obj
 0001:00147610       ?trap_GetUsercmd@@YAXHPAUusercmd_s@@@Z 20148610 f   g_syscalls.obj
 0001:00147640       ?trap_GetUserinfo@@YAXHPADH@Z 20148640 f   g_syscalls.obj
 0001:00147670       ?trap_ICARUS_AssociateEnt@@YAXPAUgentity_s@@@Z 20148670 f   g_syscalls.obj
 0001:001476b0       ?trap_ICARUS_FreeEnt@@YAXPAUgentity_s@@@Z 201486b0 f   g_syscalls.obj
 0001:001476f0       ?trap_ICARUS_GetFloatVariable@@YAHPBDPAM@Z 201486f0 f   g_syscalls.obj
 0001:00147720       ?trap_ICARUS_GetStringVariable@@YAHPBD0@Z 20148720 f   g_syscalls.obj
 0001:00147750       ?trap_ICARUS_GetVectorVariable@@YAHPBDQBM@Z 20148750 f   g_syscalls.obj
 0001:00147780       ?trap_ICARUS_Init@@YAXXZ   20148780 f   g_syscalls.obj
 0001:001477b0       ?trap_ICARUS_InitEnt@@YAXPAUgentity_s@@@Z 201487b0 f   g_syscalls.obj
 0001:001477f0       ?trap_ICARUS_IsInitialized@@YAHH@Z 201487f0 f   g_syscalls.obj
 0001:00147830       ?trap_ICARUS_IsRunning@@YAHH@Z 20148830 f   g_syscalls.obj
 0001:00147870       ?trap_ICARUS_MaintainTaskManager@@YAHH@Z 20148870 f   g_syscalls.obj
 0001:001478b0       ?trap_ICARUS_RegisterScript@@YAHPBDH@Z 201488b0 f   g_syscalls.obj
 0001:001478e0       ?trap_ICARUS_RunScript@@YAHPAUgentity_s@@PBD@Z 201488e0 f   g_syscalls.obj
 0001:00147910       ?trap_ICARUS_SetVar@@YAXHHPBD0@Z 20148910 f   g_syscalls.obj
 0001:00147960       ?trap_ICARUS_Shutdown@@YAXXZ 20148960 f   g_syscalls.obj
 0001:00147990       ?trap_ICARUS_TaskIDComplete@@YAXPAUgentity_s@@H@Z 20148990 f   g_syscalls.obj
 0001:001479d0       ?trap_ICARUS_TaskIDPending@@YAHPAUgentity_s@@H@Z 201489d0 f   g_syscalls.obj
 0001:00147a10       ?trap_ICARUS_TaskIDSet@@YAXPAUgentity_s@@HH@Z 20148a10 f   g_syscalls.obj
 0001:00147a60       ?trap_ICARUS_ValidEnt@@YAHPAUgentity_s@@@Z 20148a60 f   g_syscalls.obj
 0001:00147aa0       ?trap_ICARUS_VariableDeclared@@YAHPBD@Z 20148aa0 f   g_syscalls.obj
 0001:00147ad0       ?trap_InPVS@@YAHQBM0@Z     20148ad0 f   g_syscalls.obj
 0001:00147b00       ?trap_InPVSIgnorePortals@@YAHQBM0@Z 20148b00 f   g_syscalls.obj
 0001:00147b30       ?trap_LinkEntity@@YAXPAUgentity_s@@@Z 20148b30 f   g_syscalls.obj
 0001:00147d30       ?trap_LocateGameData@@YAXPAUgentity_s@@HHPAUplayerState_s@@H@Z 20148d30 f   g_syscalls.obj
 0001:00147d70       ?trap_Milliseconds@@YAHXZ  20148d70 f   g_syscalls.obj
 0001:00147da0       ?trap_Nav_AddFailedEdge@@YAXHHH@Z 20148da0 f   g_syscalls.obj
 0001:00147de0       ?trap_Nav_AddFailedNode@@YAXPAUgentity_s@@H@Z 20148de0 f   g_syscalls.obj
 0001:00147e10       ?trap_Nav_AddRawPoint@@YAHQAMHH@Z 20148e10 f   g_syscalls.obj
 0001:00147e50       ?trap_Nav_CalculatePaths@@YAXH@Z 20148e50 f   g_syscalls.obj
 0001:00147e80       ?trap_Nav_CheckAllFailedEdges@@YAXXZ 20148e80 f   g_syscalls.obj
 0001:00147eb0       ?trap_Nav_CheckBlockedEdges@@YAXXZ 20148eb0 f   g_syscalls.obj
 0001:00147ee0       ?trap_Nav_CheckFailedEdge@@YAHPAUfailedEdge_e@@@Z 20148ee0 f   g_syscalls.obj
 0001:00147f10       ?trap_Nav_CheckFailedNodes@@YAXPAUgentity_s@@@Z 20148f10 f   g_syscalls.obj
 0001:00147f40       ?trap_Nav_CheckedNode@@YAHHH@Z 20148f40 f   g_syscalls.obj
 0001:00147f70       ?trap_Nav_ClearAllFailedEdges@@YAXXZ 20148f70 f   g_syscalls.obj
 0001:00147fa0       ?trap_Nav_ClearCheckedNodes@@YAXXZ 20148fa0 f   g_syscalls.obj
 0001:00147fd0       ?trap_Nav_ClearFailedEdge@@YAXPAUfailedEdge_e@@@Z 20148fd0 f   g_syscalls.obj
 0001:00148000       ?trap_Nav_Connected@@YAHHH@Z 20149000 f   g_syscalls.obj
 0001:00148030       ?trap_Nav_EdgeFailed@@YAHHH@Z 20149030 f   g_syscalls.obj
 0001:00148060       ?trap_Nav_FlagAllNodes@@YAXH@Z 20149060 f   g_syscalls.obj
 0001:00148090       ?trap_Nav_Free@@YAXXZ      20149090 f   g_syscalls.obj
 0001:001480c0       ?trap_Nav_GetBestNode@@YAHHHH@Z 201490c0 f   g_syscalls.obj
 0001:00148100       ?trap_Nav_GetBestNodeAltRoute2@@YAHHHH@Z 20149100 f   g_syscalls.obj
 0001:00148140       ?trap_Nav_GetBestNodeAltRoute@@YAHHHPAHH@Z 20149140 f   g_syscalls.obj
 0001:00148180       ?trap_Nav_GetBestPathBetweenEnts@@YAHPAUgentity_s@@0H@Z 20149180 f   g_syscalls.obj
 0001:001481c0       ?trap_Nav_GetEdgeCost@@YAHHH@Z 201491c0 f   g_syscalls.obj
 0001:001481f0       ?trap_Nav_GetNearestNode@@YAHPAUgentity_s@@HHH@Z 201491f0 f   g_syscalls.obj
 0001:00148230       ?trap_Nav_GetNodeEdge@@YAHHH@Z 20149230 f   g_syscalls.obj
 0001:00148260       ?trap_Nav_GetNodeNumEdges@@YAHH@Z 20149260 f   g_syscalls.obj
 0001:00148290       ?trap_Nav_GetNodePosition@@YAHHQAM@Z 20149290 f   g_syscalls.obj
 0001:001482c0       ?trap_Nav_GetNodeRadius@@YAHH@Z 201492c0 f   g_syscalls.obj
 0001:001482f0       ?trap_Nav_GetNumNodes@@YAHXZ 201492f0 f   g_syscalls.obj
 0001:00148320       ?trap_Nav_GetPathCost@@YAHHH@Z 20149320 f   g_syscalls.obj
 0001:00148350       ?trap_Nav_GetPathsCalculated@@YAHXZ 20149350 f   g_syscalls.obj
 0001:00148380       ?trap_Nav_GetProjectedNode@@YAHQAMH@Z 20149380 f   g_syscalls.obj
 0001:001483b0       ?trap_Nav_HardConnect@@YAXHH@Z 201493b0 f   g_syscalls.obj
 0001:001483e0       ?trap_Nav_Init@@YAXXZ      201493e0 f   g_syscalls.obj
 0001:00148410       ?trap_Nav_Load@@YAHPBDH@Z  20149410 f   g_syscalls.obj
 0001:00148440       ?trap_Nav_NodeFailed@@YAHPAUgentity_s@@H@Z 20149440 f   g_syscalls.obj
 0001:00148470       ?trap_Nav_NodesAreNeighbors@@YAHHH@Z 20149470 f   g_syscalls.obj
 0001:001484a0       ?trap_Nav_RouteBlocked@@YAHHHHH@Z 201494a0 f   g_syscalls.obj
 0001:001484e0       ?trap_Nav_Save@@YAHPBDH@Z  201494e0 f   g_syscalls.obj
 0001:00148510       ?trap_Nav_SetCheckedNode@@YAXHHH@Z 20149510 f   g_syscalls.obj
 0001:00148550       ?trap_Nav_SetPathsCalculated@@YAXH@Z 20149550 f   g_syscalls.obj
 0001:00148580       ?trap_Nav_ShowEdges@@YAXXZ 20149580 f   g_syscalls.obj
 0001:001485b0       ?trap_Nav_ShowNodes@@YAXXZ 201495b0 f   g_syscalls.obj
 0001:001485e0       ?trap_Nav_ShowPath@@YAXHH@Z 201495e0 f   g_syscalls.obj
 0001:00148610       ?trap_PC_FreeSource@@YAHH@Z 20149610 f   g_syscalls.obj
 0001:00148640       ?trap_PC_LoadSource@@YAHPBD@Z 20149640 f   g_syscalls.obj
 0001:00148670       ?trap_PC_ReadToken@@YAHHPAUpc_token_s@@@Z 20149670 f   g_syscalls.obj
 0001:001486a0       ?trap_PC_SourceFileAndLine@@YAHHPADPAH@Z 201496a0 f   g_syscalls.obj
 0001:001486e0       ?trap_PointContents@@YAHQBMH@Z 201496e0 f   g_syscalls.obj
 0001:00148710       ?trap_PrecisionTimer_End@@YAHPAX@Z 20149710 f   g_syscalls.obj
 0001:00148740       ?trap_PrecisionTimer_Start@@YAXPAPAX@Z 20149740 f   g_syscalls.obj
 0001:00148770       ?trap_Printf@@YAXPBD@Z     20149770 f   g_syscalls.obj
 0001:001487a0       ?trap_RMG_Init@@YAXH@Z     201497a0 f   g_syscalls.obj
 0001:001487d0       ?trap_ROFF_Cache@@YAHPAD@Z 201497d0 f   g_syscalls.obj
 0001:00148800       ?trap_ROFF_Clean@@YAHXZ    20149800 f   g_syscalls.obj
 0001:00148830       ?trap_ROFF_Play@@YAHHHH@Z  20149830 f   g_syscalls.obj
 0001:00148860       ?trap_ROFF_Purge_Ent@@YAHH@Z 20149860 f   g_syscalls.obj
 0001:00148890       ?trap_ROFF_UpdateEntities@@YAXXZ 20149890 f   g_syscalls.obj
 0001:001488c0       ?trap_R_RegisterSkin@@YAHPBD@Z 201498c0 f   g_syscalls.obj
 0001:001488f0       ?trap_RealTime@@YAHPAUqtime_s@@@Z 201498f0 f   g_syscalls.obj
 0001:00148920       ?trap_SP_GetStringTextString@@YAHPBDPADH@Z 20149920 f   g_syscalls.obj
 0001:00148950       ?trap_SV_RegisterSharedMemory@@YAXPAD@Z 20149950 f   g_syscalls.obj
 0001:00148980       ?trap_SendConsoleCommand@@YAXHPBD@Z 20149980 f   g_syscalls.obj
 0001:001489b0       ?trap_SendServerCommand@@YAXHPBD@Z 201499b0 f   g_syscalls.obj
 0001:00148b70       ?trap_SendServerCommand_ToAll@@YAXHPBD@Z 20149b70 f   g_syscalls.obj
 0001:00148dd0       ?trap_SetActiveSubBSP@@YAXH@Z 20149dd0 f   g_syscalls.obj
 0001:00148e00       ?trap_SetBrushModel@@YAXPAUgentity_s@@PBD@Z 20149e00 f   g_syscalls.obj
 0001:00148f10       ?trap_SetConfigstring@@YAXHPBD@Z 20149f10 f   g_syscalls.obj
 0001:00148f40       ?trap_SetServerCull@@YAXM@Z 20149f40 f   g_syscalls.obj
 0001:00148f80       ?trap_SetUserinfo@@YAXHPBD@Z 20149f80 f   g_syscalls.obj
 0001:00148fb0       ?trap_SiegePersGet@@YAXPAUsiegePers_s@@@Z 20149fb0 f   g_syscalls.obj
 0001:00148fe0       ?trap_SiegePersSet@@YAXPAUsiegePers_s@@@Z 20149fe0 f   g_syscalls.obj
 0001:00149010       ?trap_SnapVector@@YAXPAM@Z 2014a010 f   g_syscalls.obj
 0001:00149040       ?trap_StringContains@@YAHPAD0H@Z 2014a040 f   g_syscalls.obj
 0001:00149080       ?trap_Trace@@YAXPAUtrace_t@@QBM111HH@Z 2014a080 f   g_syscalls.obj
 0001:001490d0       ?trap_TraceCapsule@@YAXPAUtrace_t@@QBM111HH@Z 2014a0d0 f   g_syscalls.obj
 0001:00149120       ?trap_TrueFree@@YAXPAPAX@Z 2014a120 f   g_syscalls.obj
 0001:00149150       ?trap_TrueMalloc@@YAXPAPAXH@Z 2014a150 f   g_syscalls.obj
 0001:00149180       ?trap_UnifyWhiteSpaces@@YAXPAD@Z 2014a180 f   g_syscalls.obj
 0001:001491b0       ?trap_UnlinkEntity@@YAXPAUgentity_s@@@Z 2014a1b0 f   g_syscalls.obj
 0001:001491f0       _dllEntry                  2014a1f0 f   g_syscalls.obj
 0001:00149210       ?G_SetActiveState@@YAXPADH@Z 2014a210 f   g_target.obj
 0001:001492a0       ?GetPasswordByIndex@@YAPADPBD@Z 2014a2a0 f   g_target.obj
 0001:00149360       ?SP_target_activate@@YAXPAUgentity_s@@@Z 2014a360 f   g_target.obj
 0001:001493a0       ?SP_target_counter@@YAXPAUgentity_s@@@Z 2014a3a0 f   g_target.obj
 0001:00149440       ?SP_target_credits@@YAXPAUgentity_s@@@Z 2014a440 f   g_target.obj
 0001:00149480       ?SP_target_deactivate@@YAXPAUgentity_s@@@Z 2014a480 f   g_target.obj
 0001:001494c0       ?SP_target_delay@@YAXPAUgentity_s@@@Z 2014a4c0 f   g_target.obj
 0001:00149570       ?SP_target_experience@@YAXPAUgentity_s@@@Z 2014a570 f   g_target.obj
 0001:001495b0       ?SP_target_give@@YAXPAUgentity_s@@@Z 2014a5b0 f   g_target.obj
 0001:001495e0       ?SP_target_kill@@YAXPAUgentity_s@@@Z 2014a5e0 f   g_target.obj
 0001:00149610       ?SP_target_laser@@YAXPAUgentity_s@@@Z 2014a610 f   g_target.obj
 0001:00149650       ?SP_target_level_change@@YAXPAUgentity_s@@@Z 2014a650 f   g_target.obj
 0001:00149750       ?SP_target_location@@YAXPAUgentity_s@@@Z 2014a750 f   g_target.obj
 0001:001497b0       ?SP_target_play_music@@YAXPAUgentity_s@@@Z 2014a7b0 f   g_target.obj
 0001:00149850       ?SP_target_position@@YAXPAUgentity_s@@@Z 2014a850 f   g_target.obj
 0001:00149880       ?SP_target_powerup@@YAXPAUgentity_s@@@Z 2014a880 f   g_target.obj
 0001:00149940       ?SP_target_print@@YAXPAUgentity_s@@@Z 2014a940 f   g_target.obj
 0001:00149a20       ?SP_target_random@@YAXPAUgentity_s@@@Z 2014aa20 f   g_target.obj
 0001:00149a50       ?SP_target_relay@@YAXPAUgentity_s@@@Z 2014aa50 f   g_target.obj
 0001:00149ab0       ?SP_target_remove_powerups@@YAXPAUgentity_s@@@Z 2014aab0 f   g_target.obj
 0001:00149ae0       ?SP_target_score@@YAXPAUgentity_s@@@Z 2014aae0 f   g_target.obj
 0001:00149b30       ?SP_target_scriptrunner@@YAXPAUgentity_s@@@Z 2014ab30 f   g_target.obj
 0001:00149c80       ?SP_target_speaker@@YAXPAUgentity_s@@@Z 2014ac80 f   g_target.obj
 0001:00149ff0       ?SP_target_teleporter@@YAXPAUgentity_s@@@Z 2014aff0 f   g_target.obj
 0001:0014a020       ?Send_Target_Print@@YAXPAUgentity_s@@H@Z 2014b020 f   g_target.obj
 0001:0014a4f0       ?Think_Target_Delay@@YAXPAUgentity_s@@@Z 2014b4f0 f   g_target.obj
 0001:0014a620       ?Think_Target_Print@@YAXPAUgentity_s@@@Z 2014b620 f   g_target.obj
 0001:0014a650       ?Use_Target_Credits@@YAXPAUgentity_s@@00@Z 2014b650 f   g_target.obj
 0001:0014a950       ?Use_Target_Delay@@YAXPAUgentity_s@@00@Z 2014b950 f   g_target.obj
 0001:0014abc0       ?Use_Target_Experience@@YAXPAUgentity_s@@00@Z 2014bbc0 f   g_target.obj
 0001:0014aeb0       ?Use_Target_Give@@YAXPAUgentity_s@@00@Z 2014beb0 f   g_target.obj
 0001:0014afa0       ?Use_Target_Print@@YAXPAUgentity_s@@00@Z 2014bfa0 f   g_target.obj
 0001:0014b020       ?Use_Target_Print_Go@@YAXPAUgentity_s@@@Z 2014c020 f   g_target.obj
 0001:0014b210       ?Use_Target_Score@@YAXPAUgentity_s@@00@Z 2014c210 f   g_target.obj
 0001:0014b2b0       ?Use_Target_Speaker@@YAXPAUgentity_s@@00@Z 2014c2b0 f   g_target.obj
 0001:0014b3f0       ?Use_target_powerup@@YAXPAUgentity_s@@00@Z 2014c3f0 f   g_target.obj
 0001:0014b4b0       ?Use_target_remove_powerups@@YAXPAUgentity_s@@00@Z 2014c4b0 f   g_target.obj
 0001:0014b5b0       ?scriptrunner_run@@YAXPAUgentity_s@@@Z 2014c5b0 f   g_target.obj
 0001:0014b8c0       ?target_activate_use@@YAXPAUgentity_s@@00@Z 2014c8c0 f   g_target.obj
 0001:0014b9d0       ?target_counter_use@@YAXPAUgentity_s@@00@Z 2014c9d0 f   g_target.obj
 0001:0014bb80       ?target_deactivate_use@@YAXPAUgentity_s@@00@Z 2014cb80 f   g_target.obj
 0001:0014bc90       ?target_kill_use@@YAXPAUgentity_s@@00@Z 2014cc90 f   g_target.obj
 0001:0014bce0       ?target_laser_off@@YAXPAUgentity_s@@@Z 2014cce0 f   g_target.obj
 0001:0014bd20       ?target_laser_on@@YAXPAUgentity_s@@@Z 2014cd20 f   g_target.obj
 0001:0014bd70       ?target_laser_start@@YAXPAUgentity_s@@@Z 2014cd70 f   g_target.obj
 0001:0014beb0       ?target_laser_think@@YAXPAUgentity_s@@@Z 2014ceb0 f   g_target.obj
 0001:0014c430       ?target_laser_use@@YAXPAUgentity_s@@00@Z 2014d430 f   g_target.obj
 0001:0014c490       ?target_level_change_use@@YAXPAUgentity_s@@00@Z 2014d490 f   g_target.obj
 0001:0014c610       ?target_play_music_use@@YAXPAUgentity_s@@00@Z 2014d610 f   g_target.obj
 0001:0014c650       ?target_random_use@@YAXPAUgentity_s@@00@Z 2014d650 f   g_target.obj
 0001:0014c7f0       ?target_relay_use@@YAXPAUgentity_s@@00@Z 2014d7f0 f   g_target.obj
 0001:0014ca70       ?target_scriptrunner_use@@YAXPAUgentity_s@@00@Z 2014da70 f   g_target.obj
 0001:0014cb10       ?target_speaker_allowlogical@@YAHXZ 2014db10 f   g_target.obj
 0001:0014cb60       ?target_teleporter_use@@YAXPAUgentity_s@@00@Z 2014db60 f   g_target.obj
 0001:0014cc90       ?AddTeamScore@@YAXQAMHH@Z  2014dc90 f   g_team.obj
 0001:0014ce60       ?CheckTeamStatus@@YAXXZ    2014de60 f   g_team.obj
 0001:0014cfb0       ?OnSameTeam@@YAHPAUgentity_s@@0@Z 2014dfb0 f   g_team.obj
 0001:0014d290       ?OtherTeam@@YAHH@Z         2014e290 f   g_team.obj
 0001:0014d2d0       ?OtherTeamName@@YAPBDH@Z   2014e2d0 f   g_team.obj
 0001:0014d320       ?Pickup_Team@@YAHPAUgentity_s@@0@Z 2014e320 f   g_team.obj
 0001:0014d420       ?PrintCTFMessage@@YAXHHH@Z 2014e420 f   g_team.obj
 0001:0014d4f0       ?SP_team_CTF_blueplayer@@YAXPAUgentity_s@@@Z 2014e4f0 f   g_team.obj
 0001:0014d510       ?SP_team_CTF_bluespawn@@YAXPAUgentity_s@@@Z 2014e510 f   g_team.obj
 0001:0014d530       ?SP_team_CTF_redplayer@@YAXPAUgentity_s@@@Z 2014e530 f   g_team.obj
 0001:0014d550       ?SP_team_CTF_redspawn@@YAXPAUgentity_s@@@Z 2014e550 f   g_team.obj
 0001:0014d570       ?SelectCTFSpawnPoint@@YAPAUgentity_s@@PAU1@QAM1@Z 2014e570 f   g_team.obj
 0001:0014d700       ?SelectRandomTeamSpawnPoint@@YAPAUgentity_s@@HHH@Z 2014e700 f   g_team.obj
 0001:0014da50       ?SelectSiegeSpawnPoint@@YAPAUgentity_s@@PAU1@QAM1@Z 2014ea50 f   g_team.obj
 0001:0014dc00       ?TeamColorString@@YAPBDH@Z 2014ec00 f   g_team.obj
 0001:0014dc50       ?TeamName@@YAPBDH@Z        2014ec50 f   g_team.obj
 0001:0014dca0       ?Team_CaptureFlagSound@@YAXPAUgentity_s@@H@Z 2014eca0 f   g_team.obj
 0001:0014dd30       ?Team_CheckDroppedItem@@YAXPAUgentity_s@@@Z 2014ed30 f   g_team.obj
 0001:0014ddb0       ?Team_CheckHurtCarrier@@YAXPAUgentity_s@@0@Z 2014edb0 f   g_team.obj
 0001:0014dee0       ?Team_DroppedFlagThink@@YAXPAUgentity_s@@@Z 2014eee0 f   g_team.obj
 0001:0014df80       ?Team_ForceGesture@@YAXH@Z 2014ef80 f   g_team.obj
 0001:0014e030       ?Team_FragBonuses@@YAXPAUgentity_s@@00@Z 2014f030 f   g_team.obj
 0001:0014ed80       ?Team_FreeEntity@@YAXPAUgentity_s@@@Z 2014fd80 f   g_team.obj
 0001:0014ee00       ?Team_GetLocation@@YAPAUgentity_s@@PAU1@@Z 2014fe00 f   g_team.obj
 0001:0014f050       ?Team_GetLocationMsg@@YAHPAUgentity_s@@PADH@Z 20150050 f   g_team.obj
 0001:0014f140       ?Team_InitGame@@YAXXZ      20150140 f   g_team.obj
 0001:0014f200       ?Team_ResetFlag@@YAPAUgentity_s@@H@Z 20150200 f   g_team.obj
 0001:0014f2f0       ?Team_ResetFlags@@YAXXZ    201502f0 f   g_team.obj
 0001:0014f350       ?Team_ReturnFlag@@YAXH@Z   20150350 f   g_team.obj
 0001:0014f3b0       ?Team_ReturnFlagSound@@YAXPAUgentity_s@@H@Z 201503b0 f   g_team.obj
 0001:0014f440       ?Team_SetFlagStatus@@YAXHH@Z 20150440 f   g_team.obj
 0001:0014f580       ?Team_TakeFlagSound@@YAXPAUgentity_s@@H@Z 20150580 f   g_team.obj
 0001:0014f690       ?Team_TouchEnemyFlag@@YAHPAUgentity_s@@0H@Z 20150690 f   g_team.obj
 0001:0014f770       ?Team_TouchOurFlag@@YAHPAUgentity_s@@0H@Z 20150770 f   g_team.obj
 0001:0014fc70       ?TeamplayInfoMessage@@YAXPAUgentity_s@@@Z 20150c70 f   g_team.obj
 0001:00150160       ?TIMER_Clear2@@YAXPAUgentity_s@@@Z 20151160 f   g_timer.obj
 0001:00150210       ?TIMER_Clear@@YAXXZ        20151210 f   g_timer.obj
 0001:001502d0       ?TIMER_Done2@@YAHPAUgentity_s@@PBDH@Z 201512d0 f   g_timer.obj
 0001:00150370       ?TIMER_Done@@YAHPAUgentity_s@@PBD@Z 20151370 f   g_timer.obj
 0001:001503e0       ?TIMER_Exists@@YAHPAUgentity_s@@PBD@Z 201513e0 f   g_timer.obj
 0001:00150430       ?TIMER_Get@@YAHPAUgentity_s@@PBD@Z 20151430 f   g_timer.obj
 0001:00150480       ?TIMER_GetExisting@@YAPAUgtimer_s@@HPBD@Z 20151480 f   g_timer.obj
 0001:001504e0       ?TIMER_GetNew@@YAPAUgtimer_s@@HPBD@Z 201514e0 f   g_timer.obj
 0001:00150590       ?TIMER_Remove@@YAXPAUgentity_s@@PBD@Z 20151590 f   g_timer.obj
 0001:001505e0       ?TIMER_RemoveHelper@@YAXHPAUgtimer_s@@@Z 201515e0 f   g_timer.obj
 0001:00150690       ?TIMER_Set@@YAXPAUgentity_s@@PBDH@Z 20151690 f   g_timer.obj
 0001:001506f0       ?TIMER_Start@@YAHPAUgentity_s@@PBDH@Z 201516f0 f   g_timer.obj
 0001:00150750       ?AimAtTarget@@YAXPAUgentity_s@@@Z 20151750 f   g_trigger.obj
 0001:00151240       ?Do_Strike@@YAXPAUgentity_s@@@Z 20152240 f   g_trigger.obj
 0001:001515b0       ?G_NameInTriggerClassList@@YAHPAD0@Z 201525b0 f   g_trigger.obj
 0001:00151720       ?InitTrigger@@YAXPAUgentity_s@@@Z 20152720 f   g_trigger.obj
 0001:00151870       ?SP_func_timer@@YAXPAUgentity_s@@@Z 20152870 f   g_trigger.obj
 0001:001519a0       ?SP_target_push@@YAXPAUgentity_s@@@Z 201529a0 f   g_trigger.obj
 0001:00151c40       ?SP_trigger_always@@YAXPAUgentity_s@@@Z 20152c40 f   g_trigger.obj
 0001:00151c80       ?SP_trigger_asteroid_field@@YAXPAUgentity_s@@@Z 20152c80 f   g_trigger.obj
 0001:00151d50       ?SP_trigger_hurt@@YAXPAUgentity_s@@@Z 20152d50 f   g_trigger.obj
 0001:00151e60       ?SP_trigger_hyperspace@@YAXPAUgentity_s@@@Z 20152e60 f   g_trigger.obj
 0001:00151f80       ?SP_trigger_lightningstrike@@YAXPAUgentity_s@@@Z 20152f80 f   g_trigger.obj
 0001:00152120       ?SP_trigger_multiple@@YAXPAUgentity_s@@@Z 20153120 f   g_trigger.obj
 0001:00152450       ?SP_trigger_once@@YAXPAUgentity_s@@@Z 20153450 f   g_trigger.obj
 0001:00152610       ?SP_trigger_push@@YAXPAUgentity_s@@@Z 20153610 f   g_trigger.obj
 0001:001526f0       ?SP_trigger_shipboundary@@YAXPAUgentity_s@@@Z 201536f0 f   g_trigger.obj
 0001:001527f0       ?SP_trigger_space@@YAXPAUgentity_s@@@Z 201537f0 f   g_trigger.obj
 0001:00152870       ?SP_trigger_teleport@@YAXPAUgentity_s@@@Z 20153870 f   g_trigger.obj
 0001:00152920       ?SP_trigger_visible@@YAXPAUgentity_s@@@Z 20153920 f   g_trigger.obj
 0001:001529e0       ?Think_Strike@@YAXPAUgentity_s@@@Z 201539e0 f   g_trigger.obj
 0001:00152a70       ?Touch_Multi@@YAXPAUgentity_s@@0PAUtrace_t@@@Z 20153a70 f   g_trigger.obj
 0001:001533b0       ?Use_Multi@@YAXPAUgentity_s@@00@Z 201543b0 f   g_trigger.obj
 0001:001533e0       ?Use_Strike@@YAXPAUgentity_s@@00@Z 201543e0 f   g_trigger.obj
 0001:00153450       ?Use_target_push@@YAXPAUgentity_s@@00@Z 20154450 f   g_trigger.obj
 0001:001537b0       ?asteroid_count_num_asteroids@@YAHPAUgentity_s@@@Z 201547b0 f   g_trigger.obj
 0001:00153830       ?asteroid_field_think@@YAXPAUgentity_s@@@Z 20154830 f   g_trigger.obj
 0001:00153f00       ?asteroid_pick_random_asteroid@@YAPAUgentity_s@@PAU1@@Z 20154f00 f   g_trigger.obj
 0001:00154000       ?func_timer_think@@YAXPAUgentity_s@@@Z 20155000 f   g_trigger.obj
 0001:001540d0       ?func_timer_use@@YAXPAUgentity_s@@00@Z 201550d0 f   g_trigger.obj
 0001:00154140       ?hurt_touch@@YAXPAUgentity_s@@0PAUtrace_t@@@Z 20155140 f   g_trigger.obj
 0001:001546c0       ?hurt_use@@YAXPAUgentity_s@@00@Z 201556c0 f   g_trigger.obj
 0001:00154780       ?hyperspace_touch@@YAXPAUgentity_s@@0PAUtrace_t@@@Z 20155780 f   g_trigger.obj
 0001:00155170       ?multi_trigger@@YAXPAUgentity_s@@0@Z 20156170 f   g_trigger.obj
 0001:00155920       ?multi_trigger_run@@YAXPAUgentity_s@@@Z 20156920 f   g_trigger.obj
 0001:00155d30       ?multi_wait@@YAXPAUgentity_s@@@Z 20156d30 f   g_trigger.obj
 0001:00155d60       ?shipboundary_think@@YAXPAUgentity_s@@@Z 20156d60 f   g_trigger.obj
 0001:00155f20       ?shipboundary_touch@@YAXPAUgentity_s@@0PAUtrace_t@@@Z 20156f20 f   g_trigger.obj
 0001:001560f0       ?space_touch@@YAXPAUgentity_s@@0PAUtrace_t@@@Z 201570f0 f   g_trigger.obj
 0001:00156300       ?trigger_always_think@@YAXPAUgentity_s@@@Z 20157300 f   g_trigger.obj
 0001:001563b0       ?trigger_cleared_fire@@YAXPAUgentity_s@@@Z 201573b0 f   g_trigger.obj
 0001:001564d0       ?trigger_multiple_allowlogical@@YAHXZ 201574d0 f   g_trigger.obj
 0001:00156530       ?trigger_push_touch@@YAXPAUgentity_s@@0PAUtrace_t@@@Z 20157530 f   g_trigger.obj
 0001:00156d00       ?trigger_teleporter_touch@@YAXPAUgentity_s@@0PAUtrace_t@@@Z 20157d00 f   g_trigger.obj
 0001:00156e40       ?trigger_visible_think@@YAXPAUgentity_s@@@Z 20157e40 f   g_trigger.obj
 0001:001570e0       ?trigger_visible_use@@YAXPAUgentity_s@@00@Z 201580e0 f   g_trigger.obj
 0001:00157130       ?SP_misc_turret@@YAXPAUgentity_s@@@Z 20158130 f   g_turret.obj
 0001:00157440       ?TurretBasePain@@YAXPAUgentity_s@@0H@Z 20158440 f   g_turret.obj
 0001:001574d0       ?TurretPain@@YAXPAUgentity_s@@0H@Z 201584d0 f   g_turret.obj
 0001:001576a0       ?auto_turret_die@@YAXPAUgentity_s@@00HH@Z 201586a0 f   g_turret.obj
 0001:00157a80       ?bottom_die@@YAXPAUgentity_s@@00HH@Z 20158a80 f   g_turret.obj
 0001:00158700       ?turret_base_spawn_top@@YAHPAUgentity_s@@@Z 20159700 f   g_turret.obj
 0001:00158e90       ?turret_base_think@@YAXPAUgentity_s@@@Z 20159e90 f   g_turret.obj
 0001:00159460       ?turret_base_use@@YAXPAUgentity_s@@00@Z 2015a460 f   g_turret.obj
 0001:001594d0       ?turret_component_free@@YAXPAUgentity_s@@@Z 2015a4d0 f   g_turret.obj
 0001:0015a100       ?turret_head_think@@YAXPAUgentity_s@@@Z 2015b100 f   g_turret.obj
 0001:0015aa60       ?G2Tur_SetBoneAngles@@YAXPAUgentity_s@@PADQAM@Z 2015ba60 f   g_turret_G2.obj
 0001:0015ace0       ?SP_misc_turretG2@@YAXPAUgentity_s@@@Z 2015bce0 f   g_turret_G2.obj
 0001:0015b070       ?TurboLaser_SetBoneAnim@@YAXPAUgentity_s@@HH@Z 2015c070 f   g_turret_G2.obj
 0001:0015b1a0       ?TurretG2Pain@@YAXPAUgentity_s@@0H@Z 2015c1a0 f   g_turret_G2.obj
 0001:0015b310       ?TurretG2_CanTarget@@YAHPAUgentity_s@@0@Z 2015c310 f   g_turret_G2.obj
 0001:0015b510       ?finish_spawning_turretG2@@YAXPAUgentity_s@@@Z 2015c510 f   g_turret_G2.obj
 0001:0015c110       ?isArmed@@YAHPAUgentity_s@@@Z 2015d110 f   g_turret_G2.obj
 0001:0015d020       ?turretG2_base_think@@YAXPAUgentity_s@@@Z 2015e020 f   g_turret_G2.obj
 0001:0015d700       ?turretG2_base_use@@YAXPAUgentity_s@@00@Z 2015e700 f   g_turret_G2.obj
 0001:0015d860       ?turretG2_die@@YAXPAUgentity_s@@00HH@Z 2015e860 f   g_turret_G2.obj
 0001:0015ef50       ?turretG2_head_think@@YAXPAUgentity_s@@@Z 2015ff50 f   g_turret_G2.obj
 0001:0015f230       ?turretG2_respawn@@YAXPAUgentity_s@@@Z 20160230 f   g_turret_G2.obj
 0001:0015f360       ?turretG2_set_models@@YAXPAUgentity_s@@H@Z 20160360 f   g_turret_G2.obj
 0001:0015f680       ??$?0$$V@?$_Compressed_pair@V?$allocator@D@std@@V?$_String_val@U?$_Simple_types@D@std@@@2@$00@std@@QAE@U_Zero_then_variadic_args_t@1@@Z 20160680 f i g_utils.obj
 0001:0015f6c0       ??$?RV?$mersenne_twister_engine@I$0CA@$0CHA@$0BIN@$0BP@$0JJAILANP@$0L@$0PPPPPPPP@$06$0JNCMFGIA@$0P@$0OPMGAAAA@$0BC@$0GMAHIJGF@@std@@@?$uniform_int@H@std@@QAEHAAV?$mersenne_twister_engine@I$0CA@$0CHA@$0BIN@$0BP@$0JJAILANP@$0L@$0PPPPPPPP@$06$0JNCMFGIA@$0P@$0OPMGAAAA@$0BC@$0GMAHIJGF@@1@@Z 201606c0 f i g_utils.obj
 0001:0015f700       ??$?RV?$mersenne_twister_engine@I$0CA@$0CHA@$0BIN@$0BP@$0JJAILANP@$0L@$0PPPPPPPP@$06$0JNCMFGIA@$0P@$0OPMGAAAA@$0BC@$0GMAHIJGF@@std@@@?$uniform_real@M@std@@QAEMAAV?$mersenne_twister_engine@I$0CA@$0CHA@$0BIN@$0BP@$0JJAILANP@$0L@$0PPPPPPPP@$06$0JNCMFGIA@$0P@$0OPMGAAAA@$0BC@$0GMAHIJGF@@1@@Z 20160700 f i g_utils.obj
 0001:0015f730       ??$_Allocate@$07U_Default_allocate_traits@std@@$0A@@std@@YAPAXI@Z 20160730 f i g_utils.obj
 0001:0015f780       ??$_Allocate_at_least_helper@V?$allocator@D@std@@@std@@YAPADAAV?$allocator@D@0@AAI@Z 20160780 f i g_utils.obj
 0001:0015f7b0       ??$_Allocate_for_capacity@$0A@@?$basic_string@DU?$char_traits@D@std@@V?$allocator@D@2@@std@@CAPADAAV?$allocator@D@1@AAI@Z 201607b0 f i g_utils.obj
 0001:0015f800       ??$_Allocate_manually_vector_aligned@U_Default_allocate_traits@std@@@std@@YAPAXI@Z 20160800 f i g_utils.obj
 0001:0015f8f0       ??$_Construct@$00PBD@?$basic_string@DU?$char_traits@D@std@@V?$allocator@D@2@@std@@AAEXQBDI@Z 201608f0 f i g_utils.obj
 0001:0015faf0       ??$_Construct_in_place@PADABQAD@std@@YAXAAPADABQAD@Z 20160af0 f i g_utils.obj
 0001:0015fb40       ??$_Construct_in_place@U_Container_proxy@std@@PAU_Container_base12@2@@std@@YAXAAU_Container_proxy@0@$$QAPAU_Container_base12@0@@Z 20160b40 f i g_utils.obj
 0001:0015fba0       ??$_Convert_size@II@std@@YAII@Z 20160ba0 f i g_utils.obj
 0001:0015fbc0       ??$_Eval@V?$mersenne_twister_engine@I$0CA@$0CHA@$0BIN@$0BP@$0JJAILANP@$0L@$0PPPPPPPP@$06$0JNCMFGIA@$0P@$0OPMGAAAA@$0BC@$0GMAHIJGF@@std@@@?$uniform_int@H@std@@ABEHAAV?$mersenne_twister_engine@I$0CA@$0CHA@$0BIN@$0BP@$0JJAILANP@$0L@$0PPPPPPPP@$06$0JNCMFGIA@$0P@$0OPMGAAAA@$0BC@$0GMAHIJGF@@1@HH@Z 20160bc0 f i g_utils.obj
 0001:0015fc60       ??$_Eval@V?$mersenne_twister_engine@I$0CA@$0CHA@$0BIN@$0BP@$0JJAILANP@$0L@$0PPPPPPPP@$06$0JNCMFGIA@$0P@$0OPMGAAAA@$0BC@$0GMAHIJGF@@std@@@?$uniform_real@M@std@@ABEMAAV?$mersenne_twister_engine@I$0CA@$0CHA@$0BIN@$0BP@$0JJAILANP@$0L@$0PPPPPPPP@$06$0JNCMFGIA@$0P@$0OPMGAAAA@$0BC@$0GMAHIJGF@@1@ABUparam_type@01@@Z 20160c60 f i g_utils.obj
 0001:0015fcc0       ??$_Get_size_of_n@$00@std@@YAII@Z 20160cc0 f i g_utils.obj
 0001:0015fce0       ??$_Get_size_of_n@$07@std@@YAII@Z 20160ce0 f i g_utils.obj
 0001:0015fd20       ??$_Nrand_impl@MV?$mersenne_twister_engine@I$0CA@$0CHA@$0BIN@$0BP@$0JJAILANP@$0L@$0PPPPPPPP@$06$0JNCMFGIA@$0P@$0OPMGAAAA@$0BC@$0GMAHIJGF@@std@@@std@@YAMAAV?$mersenne_twister_engine@I$0CA@$0CHA@$0BIN@$0BP@$0JJAILANP@$0L@$0PPPPPPPP@$06$0JNCMFGIA@$0P@$0OPMGAAAA@$0BC@$0GMAHIJGF@@0@@Z 20160d20 f i g_utils.obj
 0001:0015fd60       ??$_Unfancy@U_Container_proxy@std@@@std@@YAPAU_Container_proxy@0@PAU10@@Z 20160d60 f i g_utils.obj
 0001:0015fd80       ??$addressof@PAD@std@@YAPAPADAAPAD@Z 20160d80 f i g_utils.obj
 0001:0015fda0       ??$addressof@U_Container_base12@std@@@std@@YAPAU_Container_base12@0@AAU10@@Z 20160da0 f i g_utils.obj
 0001:0015fdc0       ??$addressof@U_Container_proxy@std@@@std@@YAPAU_Container_proxy@0@AAU10@@Z 20160dc0 f i g_utils.obj
 0001:0015fde0       ??$advance@PBQBDI@std@@YAXAAPBQBDI@Z 20160de0 f i g_utils.obj
 0001:0015fe10       ??$forward@ABQAD@std@@YAABQADABQAD@Z 20160e10 f i g_utils.obj
 0001:0015fe30       ??$forward@PAU_Container_base12@std@@@std@@YA$$QAPAU_Container_base12@0@AAPAU10@@Z 20160e30 f i g_utils.obj
 0001:0015fe50       ??$generate_canonical@M$0BI@V?$mersenne_twister_engine@I$0CA@$0CHA@$0BIN@$0BP@$0JJAILANP@$0L@$0PPPPPPPP@$06$0JNCMFGIA@$0P@$0OPMGAAAA@$0BC@$0GMAHIJGF@@std@@@std@@YAMAAV?$mersenne_twister_engine@I$0CA@$0CHA@$0BIN@$0BP@$0JJAILANP@$0L@$0PPPPPPPP@$06$0JNCMFGIA@$0P@$0OPMGAAAA@$0BC@$0GMAHIJGF@@0@@Z 20160e50 f i g_utils.obj
 0001:0015ff60       ??$max@I@std@@YAABIABI0@Z  20160f60 f i g_utils.obj
 0001:0015ffa0       ??$min@I@std@@YAABIABI0@Z  20160fa0 f i g_utils.obj
 0001:0015ffe0       ??$move@AAH@std@@YA$$QAHAAH@Z 20160fe0 f i g_utils.obj
 0001:00160000       ??$move@AAM@std@@YA$$QAMAAM@Z 20161000 f i g_utils.obj
 0001:00160020       ??$swap@H$0A@@std@@YAXAAH0@Z 20161020 f i g_utils.obj
 0001:00160080       ??$swap@M$0A@@std@@YAXAAM0@Z 20161080 f i g_utils.obj
 0001:001600e0       ??0?$_Container_proxy_ptr12@V?$allocator@U_Container_proxy@std@@@std@@@std@@QAE@AAV?$allocator@U_Container_proxy@std@@@1@AAU_Container_base12@1@@Z 201610e0 f i g_utils.obj
 0001:00160170       ??0?$_Rng_from_urng_v2@IV?$mersenne_twister_engine@I$0CA@$0CHA@$0BIN@$0BP@$0JJAILANP@$0L@$0PPPPPPPP@$06$0JNCMFGIA@$0P@$0OPMGAAAA@$0BC@$0GMAHIJGF@@std@@@std@@QAE@AAV?$mersenne_twister_engine@I$0CA@$0CHA@$0BIN@$0BP@$0JJAILANP@$0L@$0PPPPPPPP@$06$0JNCMFGIA@$0P@$0OPMGAAAA@$0BC@$0GMAHIJGF@@1@@Z 20161170 f i g_utils.obj
 0001:001601a0       ??0?$_String_val@U?$_Simple_types@D@std@@@std@@QAE@XZ 201611a0 f i g_utils.obj
 0001:001601f0       ??0?$allocator@D@std@@QAE@XZ 201611f0 f i g_utils.obj
 0001:00160210       ??0?$basic_string@DU?$char_traits@D@std@@V?$allocator@D@2@@std@@QAE@QBD@Z 20161210 f i g_utils.obj
 0001:001602b0       ??0?$mersenne_twister@I$0CA@$0CHA@$0BIN@$0BP@$0JJAILANP@$0L@$06$0JNCMFGIA@$0P@$0OPMGAAAA@$0BC@@std@@QAE@III@Z 201612b0 f i g_utils.obj
 0001:00160300       ??0?$mersenne_twister_engine@I$0CA@$0CHA@$0BIN@$0BP@$0JJAILANP@$0L@$0PPPPPPPP@$06$0JNCMFGIA@$0P@$0OPMGAAAA@$0BC@$0GMAHIJGF@@std@@QAE@I@Z 20161300 f i g_utils.obj
 0001:00160340       ??0?$uniform_int@H@std@@QAE@HH@Z 20161340 f i g_utils.obj
 0001:00160380       ??0?$uniform_int_distribution@H@std@@QAE@HH@Z 20161380 f i g_utils.obj
 0001:001603c0       ??0?$uniform_real@M@std@@QAE@MM@Z 201613c0 f i g_utils.obj
 0001:00160410       ??0?$uniform_real_distribution@M@std@@QAE@MM@Z 20161410 f i g_utils.obj
 0001:00160460       ??0_Basic_container_proxy_ptr12@std@@IAE@XZ 20161460 f i g_utils.obj
 0001:00160490       ??0_Bxty@?$_String_val@U?$_Simple_types@D@std@@@std@@QAE@XZ 20161490 f i g_utils.obj
 0001:001604c0       ??0_Container_base12@std@@QAE@XZ 201614c0 f i g_utils.obj
 0001:001604f0       ??0_Container_proxy@std@@QAE@PAU_Container_base12@1@@Z 201614f0 f i g_utils.obj
 0001:00160530       ??0bad_alloc@std@@AAE@QBD@Z 20161530 f i g_utils.obj
 0001:00160570       ??0bad_alloc@std@@QAE@ABV01@@Z 20161570 f i g_utils.obj
 0001:001605b0       ??0bad_array_new_length@std@@QAE@ABV01@@Z 201615b0 f i g_utils.obj
 0001:001605f0       ??0bad_array_new_length@std@@QAE@XZ 201615f0 f i g_utils.obj
 0001:00160630       ??0exception@std@@QAE@ABV01@@Z 20161630 f i g_utils.obj
 0001:00160690       ??0exception@std@@QAE@QBDH@Z 20161690 f i g_utils.obj
 0001:001606e0       ??0param_type@?$uniform_int@H@std@@QAE@HH@Z 201616e0 f i g_utils.obj
 0001:00160720       ??0param_type@?$uniform_real@M@std@@QAE@MM@Z 20161720 f i g_utils.obj
 0001:00160770       ??1?$_Container_proxy_ptr12@V?$allocator@U_Container_proxy@std@@@std@@@std@@QAE@XZ 20161770 f i g_utils.obj
 0001:001607b0       ??1bad_alloc@std@@UAE@XZ   201617b0 f i g_utils.obj
 0001:001607e0       ??1bad_array_new_length@std@@UAE@XZ 201617e0 f i g_utils.obj
 0001:00160810       ??1exception@std@@UAE@XZ   20161810 f i g_utils.obj
 0001:00160850       ??2@YAPAXIPAX@Z            20161850 f i g_utils.obj
 0001:00160870       ??R?$_Rng_from_urng_v2@IV?$mersenne_twister_engine@I$0CA@$0CHA@$0BIN@$0BP@$0JJAILANP@$0L@$0PPPPPPPP@$06$0JNCMFGIA@$0P@$0OPMGAAAA@$0BC@$0GMAHIJGF@@std@@@std@@QAEII@Z 20161870 f i g_utils.obj
 0001:00160930       ??R?$mersenne_twister@I$0CA@$0CHA@$0BIN@$0BP@$0JJAILANP@$0L@$06$0JNCMFGIA@$0P@$0OPMGAAAA@$0BC@@std@@QAEIXZ 20161930 f i g_utils.obj
 0001:00160a00       ??Rrandom_device@std@@QAEIXZ 20161a00 f i g_utils.obj
 0001:00160a20       ??_Ebad_alloc@std@@UAEPAXI@Z 20161a20 f i g_utils.obj
 0001:00160a20       ??_Gbad_alloc@std@@UAEPAXI@Z 20161a20 f i g_utils.obj
 0001:00160a70       ??_Ebad_array_new_length@std@@UAEPAXI@Z 20161a70 f i g_utils.obj
 0001:00160a70       ??_Gbad_array_new_length@std@@UAEPAXI@Z 20161a70 f i g_utils.obj
 0001:00160ac0       ??_Eexception@std@@UAEPAXI@Z 20161ac0 f i g_utils.obj
 0001:00160ac0       ??_Gexception@std@@UAEPAXI@Z 20161ac0 f i g_utils.obj
 0001:00160b10       ?AddRemap@@YAHPBD0M@Z      20161b10 f   g_utils.obj
 0001:00160c50       ?BuildShaderStateConfig@@YAPBDXZ 20161c50 f   g_utils.obj
 0001:00160ec0       ?DebugLine@@YAHQAM0H@Z     20161ec0 f   g_utils.obj
 0001:001618b0       ?FileExists@@YA_NPBD@Z     201628b0 f   g_utils.obj
 0001:00161910       ?G_AddEvent@@YAXPAUgentity_s@@HH@Z 20162910 f   g_utils.obj
 0001:00161a40       ?G_AddPredictableEvent@@YAXPAUgentity_s@@HH@Z 20162a40 f   g_utils.obj
 0001:00161a90       ?G_AllocateVehicleObject@@YAXPAPAUVehicle_s@@@Z 20162a90 f   g_utils.obj
 0001:00161b70       ?G_BSPIndex@@YAHPBD@Z      20162b70 f   g_utils.obj
 0001:00161ba0       ?G_BoneIndex@@YAHPBD@Z     20162ba0 f   g_utils.obj
 0001:00161bd0       ?G_BoxInBounds@@YAHQAM0000@Z 20162bd0 f   g_utils.obj
 0001:00161e80       ?G_CanUseDispOn@@YAHPAUgentity_s@@H@Z 20162e80 f   g_utils.obj
 0001:00161ff0       ?G_CheckInSolid@@YAHPAUgentity_s@@H@Z 20162ff0 f   g_utils.obj
 0001:001622b0       ?G_CleanAllFakeClients@@YAXXZ 201632b0 f   g_utils.obj
 0001:00162340       ?G_ClearTrace@@YAHQAM000HH@Z 20163340 f   g_utils.obj
 0001:001623d0       ?G_ClientSound@@YAXPAUgentity_s@@HH@Z 201633d0 f   g_utils.obj
 0001:00162460       ?G_CreateFakeClient@@YAXHPAPAUgclient_s@@@Z 20163460 f   g_utils.obj
 0001:00162490       ?G_EffectIndex@@YAHPBD@Z   20163490 f   g_utils.obj
 0001:001624c0       ?G_EntitiesFree@@YAHXZ     201634c0 f   g_utils.obj
 0001:00162540       ?G_EntitySound@@YAXPAUgentity_s@@HH@Z 20163540 f   g_utils.obj
 0001:001625b0       ?G_ExpandPointToBBox@@YAHQAMQBM1HH@Z 201635b0 f   g_utils.obj
 0001:00162960       ?G_FindConfigstringIndex@@YAHPBDHHH@Z 20163960 f   g_utils.obj
 0001:00162a80       ?G_FreeEntity@@YAXPAUgentity_s@@@Z 20163a80 f   g_utils.obj
 0001:00162fa0       ?G_FreeFakeClient@@YAXPAPAUgclient_s@@@Z 20163fa0 f   g_utils.obj
 0001:00162fd0       ?G_FreeVehicleObject@@YAXPAUVehicle_s@@@Z 20163fd0 f   g_utils.obj
 0001:00163040       ?G_GlobalSound@@YAXPAUgentity_s@@HH@Z 20164040 f   g_utils.obj
 0001:001630c0       ?G_IconIndex@@YAHPBD@Z     201640c0 f   g_utils.obj
 0001:00163130       ?G_KillBox@@YAXPAUgentity_s@@@Z 20164130 f   g_utils.obj
 0001:00163430       ?G_KillG2Queue@@YAXH@Z     20164430 f   g_utils.obj
 0001:001634b0       ?G_ModelIndex@@YAHPBD@Z    201644b0 f   g_utils.obj
 0001:00163660       ?G_MuteSound@@YAXHH@Z      20164660 f   g_utils.obj
 0001:00163710       ?G_PickTarget@@YAPAUgentity_s@@PAD@Z 20164710 f   g_utils.obj
 0001:00163800       ?G_PlayEffect@@YAPAUgentity_s@@HQAM0@Z 20164800 f   g_utils.obj
 0001:00163920       ?G_PlayEffectID@@YAPAUgentity_s@@HQAM0@Z 20164920 f   g_utils.obj
 0001:00163ad0       ?G_PlayerHasCustomSkeleton@@YAHPAUgentity_s@@@Z 20164ad0 f   g_utils.obj
 0001:00163af0       ?G_PointInBounds@@YAHQAM00@Z 20164af0 f   g_utils.obj
 0001:00163b70       ?G_ROFF_NotetrackCallback@@YAXPAUgentity_s@@PBD@Z 20164b70 f   g_utils.obj
 0001:00163ef0       ?G_ReadMD3MinsMaxes@@YAEHQAM0@Z 20164ef0 f   g_utils.obj
 0001:00164030       ?G_ScaleNetHealth@@YAXPAUgentity_s@@@Z 20165030 f   g_utils.obj
 0001:00164130       ?G_ScreenShake@@YAPAUgentity_s@@QAMPAU1@MHH@Z 20165130 f   g_utils.obj
 0001:00164240       ?G_SendG2KillQueue@@YAXXZ  20165240 f   g_utils.obj
 0001:00164380       ?G_SetAngles@@YAXPAUgentity_s@@QAM@Z 20165380 f   g_utils.obj
 0001:001644e0       ?G_SetAnim@@YAXPAUgentity_s@@HHHH@Z 201654e0 f   g_utils.obj
 0001:00164570       ?G_SetMovedir@@YAXQAM0@Z   20165570 f   g_utils.obj
 0001:001646f0       ?G_SetOrigin@@YAXPAUgentity_s@@QAM@Z 201656f0 f   g_utils.obj
 0001:00164860       ?G_Sound@@YAXPAUgentity_s@@HH@Z 20165860 f   g_utils.obj
 0001:00164a80       ?G_SoundAtLoc@@YAXQAMHH@Z  20165a80 f   g_utils.obj
 0001:00164ae0       ?G_SoundIndex@@YAHPBD@Z    20165ae0 f   g_utils.obj
 0001:00164b20       ?G_SoundOnEnt@@YAXPAUgentity_s@@HPBD@Z 20165b20 f   g_utils.obj
 0001:00164ba0       ?G_SoundSetIndex@@YAHPBD@Z 20165ba0 f   g_utils.obj
 0001:00164bd0       ?G_SoundTempEntity@@YAPAUgentity_s@@QAMHH@Z 20165bd0 f   g_utils.obj
 0001:00164d00       ?G_Spawn@@YAPAUgentity_s@@XZ 20165d00 f   g_utils.obj
 0001:00164f10       ?G_SpeechEvent@@YAXPAUgentity_s@@H@Z 20165f10 f   g_utils.obj
 0001:00164f40       ?G_TeamCommand@@YAXHPAD@Z  20165f40 f   g_utils.obj
 0001:00164fe0       ?G_TempEntity@@YAPAUgentity_s@@QAMH@Z 20165fe0 f   g_utils.obj
 0001:00165100       ?G_Throw@@YAXPAUgentity_s@@QAMM@Z 20166100 f   g_utils.obj
 0001:001656c0       ?G_UseDispenserOn@@YAXPAUgentity_s@@H0@Z 201666c0 f   g_utils.obj
 0001:00165990       ?G_UseTargets2@@YAXPAUgentity_s@@0PBD@Z 20166990 f   g_utils.obj
 0001:00165af0       ?G_UseTargets@@YAXPAUgentity_s@@0@Z 20166af0 f   g_utils.obj
 0001:00165b30       ?GetAnglesForDirection@@YAXQBM0QAM@Z 20166b30 f   g_utils.obj
 0001:00165c30       ?GlobalUse@@YAXPAUgentity_s@@00@Z 20166c30 f   g_utils.obj
 0001:00165cc0       ?ShortestLineSegBewteen2LineSegs@@YAMQAM00000@Z 20166cc0 f   g_utils.obj
 0001:00166ec0       ?TryHeal@@YAHPAUgentity_s@@0@Z 20167ec0 f   g_utils.obj
 0001:001671e0       ?TryUse@@YAXPAUgentity_s@@@Z 201681e0 f   g_utils.obj
 0001:00168250       ?ValidUseTarget@@YAHPAUgentity_s@@@Z 20169250 f   g_utils.obj
 0001:00168420       ?_Adjust@?$uniform_int@H@std@@CAII@Z 20169420 f i g_utils.obj
 0001:00168470       ?_Allocate@_Default_allocate_traits@std@@SAPAXI@Z 20169470 f i g_utils.obj
 0001:001684a0       ?_Calculate_growth@?$basic_string@DU?$char_traits@D@std@@V?$allocator@D@2@@std@@ABEII@Z 201694a0 f i g_utils.obj
 0001:001684e0       ?_Calculate_growth@?$basic_string@DU?$char_traits@D@std@@V?$allocator@D@2@@std@@CAIIII@Z 201694e0 f i g_utils.obj
 0001:00168550       ?_Get_all_bits@?$_Rng_from_urng_v2@IV?$mersenne_twister_engine@I$0CA@$0CHA@$0BIN@$0BP@$0JJAILANP@$0L@$0PPPPPPPP@$06$0JNCMFGIA@$0P@$0OPMGAAAA@$0BC@$0GMAHIJGF@@std@@@std@@QAEIXZ 20169550 f i g_utils.obj
 0001:00168580       ?_Get_bits@?$_Rng_from_urng_v2@IV?$mersenne_twister_engine@I$0CA@$0CHA@$0BIN@$0BP@$0JJAILANP@$0L@$0PPPPPPPP@$06$0JNCMFGIA@$0P@$0OPMGAAAA@$0BC@$0GMAHIJGF@@std@@@std@@AAEIXZ 20169580 f i g_utils.obj
 0001:001685c0       ?_Get_first@?$_Compressed_pair@V?$allocator@D@std@@V?$_String_val@U?$_Simple_types@D@std@@@2@$00@std@@QBEABV?$allocator@D@2@XZ 201695c0 f i g_utils.obj
 0001:001685e0       ?_Get_random_product@?$_Rng_from_urng_v2@IV?$mersenne_twister_engine@I$0CA@$0CHA@$0BIN@$0BP@$0JJAILANP@$0L@$0PPPPPPPP@$06$0JNCMFGIA@$0P@$0OPMGAAAA@$0BC@$0GMAHIJGF@@std@@@std@@AAE_KII@Z 201695e0 f i g_utils.obj
 0001:00168610       ?_Getal@?$basic_string@DU?$char_traits@D@std@@V?$allocator@D@2@@std@@ABEABV?$allocator@D@2@XZ 20169610 f i g_utils.obj
 0001:00168640       ?_Init@param_type@?$uniform_int@H@std@@QAEXHH@Z 20169640 f i g_utils.obj
 0001:001686e0       ?_Init@param_type@?$uniform_real@M@std@@QAEXMM@Z 201696e0 f i g_utils.obj
 0001:001687c0       ?_Refill_lower@?$mersenne_twister@I$0CA@$0CHA@$0BIN@$0BP@$0JJAILANP@$0L@$06$0JNCMFGIA@$0P@$0OPMGAAAA@$0BC@@std@@IAEXXZ 201697c0 f i g_utils.obj
 0001:001689d0       ?_Refill_upper@?$mersenne_twister@I$0CA@$0CHA@$0BIN@$0BP@$0JJAILANP@$0L@$06$0JNCMFGIA@$0P@$0OPMGAAAA@$0BC@@std@@IAEXXZ 201699d0 f i g_utils.obj
 0001:00168a90       ?_Release@_Basic_container_proxy_ptr12@std@@QAEXXZ 20169a90 f i g_utils.obj
 0001:00168ac0       ?_Throw_bad_array_new_length@std@@YAXXZ 20169ac0 f i g_utils.obj
 0001:00168af0       ?_Xlen_string@std@@YAXXZ   20169af0 f i g_utils.obj
 0001:00168b10       ?__empty_global_delete@@YAXPAX@Z 20169b10 f i g_utils.obj
 0001:00168b30       ?__empty_global_delete@@YAXPAXI@Z 20169b30 f i g_utils.obj
 0001:00168b50       ?allocate@?$allocator@D@std@@QAEPADI@Z 20169b50 f i g_utils.obj
 0001:00168b90       ?allocate@?$allocator@U_Container_proxy@std@@@std@@QAEPAU_Container_proxy@2@I@Z 20169b90 f i g_utils.obj
 0001:00168bd0       ?begin@?$initializer_list@PBD@std@@QBEPBQBDXZ 20169bd0 f i g_utils.obj
 0001:00168bf0       ?copy@?$_Char_traits@DH@std@@SAPADQADQBDI@Z 20169bf0 f i g_utils.obj
 0001:00168c20       ?fabs@@YAMM@Z              20169c20 f i g_utils.obj
 0001:00168c50       ?get_random@@YAMMM@Z       20169c50 f   g_utils.obj
 0001:00168d00       ?get_random_int@@YAHHH@Z   20169d00 f   g_utils.obj
 0001:00168da0       ?get_random_message@@YA?AV?$basic_string@DU?$char_traits@D@std@@V?$allocator@D@2@@std@@V?$initializer_list@PBD@2@@Z 20169da0 f   g_utils.obj
 0001:00168e30       ?length@?$_Narrow_char_traits@DH@std@@SAIQBD@Z 20169e30 f i g_utils.obj
 0001:00168e60       ?listRemaps@@YAXPAUgentity_s@@H@Z 20169e60 f   g_utils.obj
 0001:00168f60       ?max@?$numeric_limits@H@std@@SAHXZ 20169f60 f i g_utils.obj
 0001:00168f80       ?max@?$numeric_limits@M@std@@SAMXZ 20169f80 f i g_utils.obj
 0001:00168fa0       ?max_size@?$_Default_allocator_traits@V?$allocator@D@std@@@std@@SAIABV?$allocator@D@2@@Z 20169fa0 f i g_utils.obj
 0001:00168fc0       ?max_size@?$basic_string@DU?$char_traits@D@std@@V?$allocator@D@2@@std@@QBEIXZ 20169fc0 f i g_utils.obj
 0001:00169040       ?removeRemap@@YAHH@Z       2016a040 f   g_utils.obj
 0001:001690d0       ?seed@?$mersenne_twister@I$0CA@$0CHA@$0BIN@$0BP@$0JJAILANP@$0L@$06$0JNCMFGIA@$0P@$0OPMGAAAA@$0BC@@std@@QAEXII@Z 2016a0d0 f i g_utils.obj
 0001:00169170       ?size@?$initializer_list@PBD@std@@QBEIXZ 2016a170 f i g_utils.obj
 0001:001691a0       ?tv@@YAPAMMMM@Z            2016a1a0 f   g_utils.obj
 0001:00169230       ?vtos2@@YAPADQBM@Z         2016a230 f   g_utils.obj
 0001:001692e0       ?vtos@@YAPADQBM@Z          2016a2e0 f   g_utils.obj
 0001:00169380       ?vtosf@@YAPADQBM@Z         2016a380 f   g_utils.obj
 0001:00169430       ?what@exception@std@@UBEPBDXZ 2016a430 f i g_utils.obj
 0001:001694a0       ?AddPassenger@@YAHPAUVehicle_s@@@Z 2016a4a0 f i g_vehicles.obj
 0001:001694c0       ?Animate@@YAXPAUVehicle_s@@@Z 2016a4c0 f   g_vehicles.obj
 0001:00169fe0       ?Board@@YAHPAUVehicle_s@@PAUbgEntity_s@@@Z 2016afe0 f   g_vehicles.obj
 0001:0016adf0       ?Eject@@YAHPAUVehicle_s@@PAUbgEntity_s@@H@Z 2016bdf0 f   g_vehicles.obj
 0001:0016b7d0       ?EjectAll@@YAHPAUVehicle_s@@@Z 2016c7d0 f   g_vehicles.obj
 0001:0016ba90       ?G_AttachToVehicle@@YAXPAUgentity_s@@PAPAUusercmd_s@@@Z 2016ca90 f   g_vehicles.obj
 0001:0016bc00       ?G_CanJumpToEnemyVeh@@YAMPAUVehicle_s@@PBUusercmd_s@@@Z 2016cc00 f   g_vehicles.obj
 0001:0016bc20       ?G_EjectDroidUnit@@YAXPAUVehicle_s@@H@Z 2016cc20 f   g_vehicles.obj
 0001:0016bd10       ?G_FlyVehicleDestroySurface@@YAHPAUgentity_s@@H@Z 2016cd10 f   g_vehicles.obj
 0001:0016c000       ?G_FlyVehicleImpactDir@@YAHPAUgentity_s@@PAUtrace_t@@@Z 2016d000 f   g_vehicles.obj
 0001:0016c890       ?G_FlyVehicleSurfaceDestruction@@YAXPAUgentity_s@@PAUtrace_t@@HH@Z 2016d890 f   g_vehicles.obj
 0001:0016cac0       ?G_IsRidingVehicle@@YAPAUVehicle_s@@PAUgentity_s@@@Z 2016dac0 f   g_vehicles.obj
 0001:0016cb40       ?G_SetSharedVehicleFunctions@@YAXPAUvehicleInfo_t@@@Z 2016db40 f   g_vehicles.obj
 0001:0016cc80       ?G_SetVehDamageFlags@@YAXPAUgentity_s@@HH@Z 2016dc80 f   g_vehicles.obj
 0001:0016d080       ?G_ShipSurfaceForSurfName@@YAHPBD@Z 2016e080 f   g_vehicles.obj
 0001:0016d1f0       ?G_VehUpdateShields@@YAXPAUgentity_s@@@Z 2016e1f0 f   g_vehicles.obj
 0001:0016d2e0       ?G_VehicleDamageBoxSizing@@YAXPAUVehicle_s@@@Z 2016e2e0 f   g_vehicles.obj
 0001:0016dae0       ?G_VehicleSetDamageLocFlags@@YAXPAUgentity_s@@HH@Z 2016eae0 f   g_vehicles.obj
 0001:0016de10       ?G_VehicleSpawn@@YAXPAUgentity_s@@@Z 2016ee10 f   g_vehicles.obj
 0001:0016dfe0       ?G_VehicleTrace@@YAXPAUtrace_t@@QBM111HH@Z 2016efe0 f   g_vehicles.obj
 0001:0016e0e0       ?Inhabited@@YAHPAUVehicle_s@@@Z 2016f0e0 f i g_vehicles.obj
 0001:0016e130       ?Initialize@@YAHPAUVehicle_s@@@Z 2016f130 f   g_vehicles.obj
 0001:0016e810       ?RegisterAssets@@YAXPAUVehicle_s@@@Z 2016f810 f   g_vehicles.obj
 0001:0016e830       ?SetParent@@YAXPAUVehicle_s@@PAUbgEntity_s@@@Z 2016f830 f i g_vehicles.obj
 0001:0016e850       ?SetPilot@@YAXPAUVehicle_s@@PAUbgEntity_s@@@Z 2016f850 f i g_vehicles.obj
 0001:00170a70       ?VEH_TryEject@@YAHPAUVehicle_s@@PAUgentity_s@@1HQAM@Z 20171a70 f   g_vehicles.obj
 0001:00171340       ?ValidateBoard@@YAHPAUVehicle_s@@PAUbgEntity_s@@@Z 20172340 f   g_vehicles.obj
 0001:00171790       ?Vehicle_SetAnim@@YAXPAUgentity_s@@HHHH@Z 20172790 f   g_vehicles.obj
 0001:00171830       ?VEH_TurretAim@@YAHPAUVehicle_s@@PAUgentity_s@@1PAUturretStats_t@@PAUvehWeaponInfo_t@@HHQAM@Z 20172830 f   g_vehicleTurret.obj
 0001:00171f80       ?VEH_TurretAnglesToEnemy@@YAXPAUVehicle_s@@HMPAUgentity_s@@HQAM@Z 20172f80 f   g_vehicleTurret.obj
 0001:001723c0       ?VEH_TurretCheckFire@@YAXPAUVehicle_s@@PAUgentity_s@@PAUturretStats_t@@PAUvehWeaponInfo_t@@HH@Z 201733c0 f   g_vehicleTurret.obj
 0001:00172c30       ?VEH_TurretObeyPassengerControl@@YAXPAUVehicle_s@@PAUgentity_s@@H@Z 20173c30 f   g_vehicleTurret.obj
 0001:00172df0       ?VEH_TurretThink@@YAXPAUVehicle_s@@PAUgentity_s@@H@Z 20173df0 f   g_vehicleTurret.obj
 0001:00173960       ?BlowDetpacks@@YAXPAUgentity_s@@@Z 20174960 f   g_weapon.obj
 0001:00173b00       ?CalcMuzzlePoint@@YAXPAUgentity_s@@QAM111@Z 20174b00 f   g_weapon.obj
 0001:00173fb0       ?CalcMuzzlePointOrigin@@YAXPAUgentity_s@@QAM1111@Z 20174fb0 f   g_weapon.obj
 0001:00174160       ?CheatsOn@@YAHXZ           20175160 f   g_weapon.obj
 0001:00174190       ?CreateLaserTrap@@YAXPAUgentity_s@@QAM0@Z 20175190 f   g_weapon.obj
 0001:001746c0       ?DetPackBlow@@YAXPAUgentity_s@@@Z 201756c0 f   g_weapon.obj
 0001:001748e0       ?DetPackDie@@YAXPAUgentity_s@@00HH@Z 201758e0 f   g_weapon.obj
 0001:00174940       ?DetPackPain@@YAXPAUgentity_s@@0H@Z 20175940 f   g_weapon.obj
 0001:00174b00       ?FireVehicleWeapon@@YAXPAUgentity_s@@H@Z 20175b00 f   g_weapon.obj
 0001:00175890       ?FireWeapon@@YAXPAUgentity_s@@H@Z 20176890 f   g_weapon.obj
 0001:00176020       ?G_EstimateCamPos@@YAXQAM0MMMMMH0@Z 20177020 f   g_weapon.obj
 0001:00176970       ?G_VehMuzzleFireFX@@YAXPAUgentity_s@@0H@Z 20177970 f   g_weapon.obj
 0001:00176a10       ?LogAccuracyHit@@YAHPAUgentity_s@@0@Z 20177a10 f   g_weapon.obj
 0001:00176ad0       ?SP_emplaced_gun@@YAXPAUgentity_s@@@Z 20177ad0 f   g_weapon.obj
 0001:00177330       ?SnapVectorTowards@@YAXQAM0@Z 20178330 f   g_weapon.obj
 0001:001773d0       ?TrapThink@@YAXPAUgentity_s@@@Z 201783d0 f   g_weapon.obj
 0001:001774d0       ?VectorNPos@@YAXQAM0@Z     201784d0 f   g_weapon.obj
 0001:00177630       ?WP_CalcVehMuzzle@@YAXPAUgentity_s@@H@Z 20178630 f   g_weapon.obj
 0001:00177870       ?WP_DropDetPack@@YAXPAUgentity_s@@H@Z 20178870 f   g_weapon.obj
 0001:00177ca0       ?WP_DropThermal@@YAPAUgentity_s@@PAU1@@Z 20178ca0 f   g_weapon.obj
 0001:00177d00       ?WP_FireBlasterMissile@@YAXPAUgentity_s@@QAM1H@Z 20178d00 f   g_weapon.obj
 0001:00178190       ?WP_FireEmplacedMissile@@YAXPAUgentity_s@@QAM1H0@Z 20179190 f   g_weapon.obj
 0001:00178290       ?WP_FireGenericBlasterMissile@@YAXPAUgentity_s@@QAM1HHHH@Z 20179290 f   g_weapon.obj
 0001:00178350       ?WP_FireMelee@@YAXPAUgentity_s@@H@Z 20179350 f   g_weapon.obj
 0001:00178b10       ?WP_FireStunBaton@@YAXPAUgentity_s@@H@Z 20179b10 f   g_weapon.obj
 0001:001792f0       ?WP_FireThermalDetonator@@YAPAUgentity_s@@PAU1@H@Z 2017a2f0 f   g_weapon.obj
 0001:00179990       ?WP_FireTurboLaserMissile@@YAXPAUgentity_s@@QAM1@Z 2017a990 f   g_weapon.obj
 0001:00179b20       ?WP_FireTurretMissile@@YAXPAUgentity_s@@QAM1HHHH0@Z 2017ab20 f   g_weapon.obj
 0001:00179c00       ?WP_FireVehicleWeapon@@YAPAUgentity_s@@PAU1@QAM1PAUvehWeaponInfo_t@@HH@Z 2017ac00 f   g_weapon.obj
 0001:0017a600       ?WP_GetVehicleCamPos@@YAXPAUgentity_s@@0QAM@Z 2017b600 f   g_weapon.obj
 0001:0017a9f0       ?WP_LobFire@@YAHPAUgentity_s@@QAM111H1HHHMMMH@Z 2017b9f0 f   g_weapon.obj
 0001:0017b420       ?WP_PlaceLaserTrap@@YAXPAUgentity_s@@H@Z 2017c420 f   g_weapon.obj
 0001:0017b900       ?WP_SpeedOfMissileForWeapon@@YAMHH@Z 2017c900 f   g_weapon.obj
 0001:0017b920       ?WP_TouchVehMissile@@YAXPAUgentity_s@@0PAUtrace_t@@@Z 2017c920 f   g_weapon.obj
 0001:0017b990       ?WP_TraceSetStart@@YAXPAUgentity_s@@QAM11@Z 2017c990 f   g_weapon.obj
 0001:0017bc80       ?WP_VehCheckTraceFromCamPos@@YAHPAUgentity_s@@QBMQAM@Z 2017cc80 f   g_weapon.obj
 0001:0017c300       ?WP_VehLeadCrosshairVeh@@YAXPAUgentity_s@@QAMQBM21@Z 2017d300 f   g_weapon.obj
 0001:0017c5a0       ?WP_VehWeapSetSolidToOwner@@YAXPAUgentity_s@@@Z 2017d5a0 f   g_weapon.obj
 0001:0017c640       ?W_TraceSetStart@@YAXPAUgentity_s@@QAM11@Z 2017d640 f   g_weapon.obj
 0001:0017c9c0       ?charge_stick@@YAXPAUgentity_s@@0PAUtrace_t@@@Z 2017d9c0 f   g_weapon.obj
 0001:0017d430       ?drop_charge@@YAXPAUgentity_s@@QAM1@Z 2017e430 f   g_weapon.obj
 0001:0017da10       ?emplaced_gun_die@@YAXPAUgentity_s@@00HH@Z 2017ea10 f   g_weapon.obj
 0001:0017da70       ?emplaced_gun_pain@@YAXPAUgentity_s@@0H@Z 2017ea70 f   g_weapon.obj
 0001:0017dac0       ?emplaced_gun_realuse@@YAXPAUgentity_s@@00@Z 2017eac0 f   g_weapon.obj
 0001:0017daf0       ?emplaced_gun_update@@YAXPAUgentity_s@@@Z 2017eaf0 f   g_weapon.obj
 0001:0017e380       ?emplaced_gun_use@@YAXPAUgentity_s@@0PAUtrace_t@@@Z 2017f380 f   g_weapon.obj
 0001:0017ea90       ?laserTrapDelayedExplode@@YAXPAUgentity_s@@00HH@Z 2017fa90 f   g_weapon.obj
 0001:0017eb40       ?laserTrapExplode@@YAXPAUgentity_s@@@Z 2017fb40 f   g_weapon.obj
 0001:0017ed30       ?laserTrapStick@@YAXPAUgentity_s@@QAM1@Z 2017fd30 f   g_weapon.obj
 0001:0017f3f0       ?laserTrapThink@@YAXPAUgentity_s@@@Z 201803f0 f   g_weapon.obj
 0001:0017f640       ?proxMineThink@@YAXPAUgentity_s@@@Z 20180640 f   g_weapon.obj
 0001:0017fa00       ?thermalDetonatorExplode@@YAXPAUgentity_s@@@Z 20180a00 f   g_weapon.obj
 0001:0017fcf0       ?thermalThinkStandard@@YAXPAUgentity_s@@@Z 20180cf0 f   g_weapon.obj
 0001:0017fd60       ?touchLaserTrap@@YAXPAUgentity_s@@0PAUtrace_t@@@Z 20180d60 f   g_weapon.obj
 0001:0017ff10       ?touch_NULL@@YAXPAUgentity_s@@0PAUtrace_t@@@Z 20180f10 f   g_weapon.obj
 0001:0017ff30       ?ActivateCrashHandler@@YAXXZ 20180f30 f   gls_crashreport.obj
 0001:0017ff60       ?DeactivateCrashHandler@@YAXXZ 20180f60 f   gls_crashreport.obj
 0001:00181ac0       ?UpdateCvars@@YAXXZ        20182ac0 f   gls_crashreport.obj
 0001:00181b50       ?Cmd_ChPasswd_f@@YAXPAUgentity_s@@H@Z 20182b50 f   Lmd_Accounts.obj
 0001:00181c00       ?Cmd_GetStats_f@@YAXPAUgentity_s@@H@Z 20182c00 f   Lmd_Accounts.obj
 0001:00181c40       ?Cmd_Credits_f@@YAXPAUgentity_s@@H@Z 20182c40 f   Lmd_Accounts.obj
 0001:00182350       ?Cmd_Register_f@@YAXPAUgentity_s@@H@Z 20183350 f   Lmd_Accounts.obj
 0001:00182430       ?Cmd_Seccode_f@@YAXPAUgentity_s@@H@Z 20183430 f   Lmd_Accounts.obj
 0001:00182830       ?Cmd_Login_f@@YAXPAUgentity_s@@H@Z 20183830 f   Lmd_Accounts.obj
 0001:00182930       ?Cmd_Logout_f@@YAXPAUgentity_s@@H@Z 20183930 f   Lmd_Accounts.obj
 0001:001829e0       ?Cmd_Worthy_f@@YAXPAUgentity_s@@H@Z 201839e0 f   Lmd_Accounts.obj
 0001:00182a10       ?Cmd_aliasname_f@@YAXPAUgentity_s@@H@Z 20183a10 f   Lmd_Accounts.obj
 0001:00182c60       ?Cmd_Creditbox_f@@YAXPAUgentity_s@@H@Z 20183c60 f   Lmd_Accounts.obj
 0001:00182e00       ??$?0H@?$_Tuple_val@H@std@@QAE@$$QAH@Z 20183e00 f i Lmd_Accounts.obj
 0001:00182e40       ??$?0HM$0A@@?$tuple@HM@std@@QAE@$$QAH$$QAM@Z 20183e40 f i Lmd_Accounts.obj
 0001:00182ed0       ??$?0M@?$_Tuple_val@M@std@@QAE@$$QAM@Z 20183ed0 f i Lmd_Accounts.obj
 0001:00182f10       ??$?0U_Exact_args_t@std@@$0A@@?$tuple@$$V@std@@QAE@U_Exact_args_t@1@@Z 20183f10 f i Lmd_Accounts.obj
 0001:00182f30       ??$?0U_Exact_args_t@std@@HM$0A@@?$tuple@HM@std@@QAE@U_Exact_args_t@1@$$QAH$$QAM@Z 20183f30 f i Lmd_Accounts.obj
 0001:00182f90       ??$?0U_Exact_args_t@std@@M$$V$0A@@?$tuple@M@std@@QAE@U_Exact_args_t@1@$$QAM@Z 20183f90 f i Lmd_Accounts.obj
 0001:00182fe0       ??$forward@H@std@@YA$$QAHAAH@Z 20183fe0 f i Lmd_Accounts.obj
 0001:00183000       ??$forward@M@std@@YA$$QAMAAM@Z 20184000 f i Lmd_Accounts.obj
 0001:00183020       ??$get@$00HM@std@@YAAAMAAV?$tuple@HM@0@@Z 20184020 f i Lmd_Accounts.obj
 0001:00183040       ??$get@$0A@HM@std@@YAAAHAAV?$tuple@HM@0@@Z 20184040 f i Lmd_Accounts.obj
 0001:00183060       ??$make_tuple@HM@std@@YA?AV?$tuple@HM@0@$$QAH$$QAM@Z 20184060 f i Lmd_Accounts.obj
 0001:001830b0       ?GetStats@@YAXPAUgentity_s@@PAUAccount_s@@@Z 201840b0 f   Lmd_Accounts.obj
 0001:001835b0       ?GetTitle_system@@YAPADPAUAccount_s@@@Z 201845b0 f   Lmd_Accounts.obj
 0001:00183830       ?HiScore@@YAXPAUgentity_s@@H@Z 20184830 f   Lmd_Accounts.obj
 0001:00183c30       ?IsValidName@@YAHPAD@Z     20184c30 f   Lmd_Accounts.obj
 0001:00183e00       ?IsValidPlayerName@@YAHPADPAUgentity_s@@H@Z 20184e00 f   Lmd_Accounts.obj
 0001:00183e40       ?IsValidPlayerName@@YAHPADPAUgentity_s@@HPAPAD@Z 20184e40 f   Lmd_Accounts.obj
 0001:00183fb0       ?IsValidUsername@@YAHPADPAPAD@Z 20184fb0 f   Lmd_Accounts.obj
 0001:00184120       ?Lmd_Accounts_Bot_Login@@YAHPAUgentity_s@@@Z 20185120 f   Lmd_Accounts.obj
 0001:00184300       ?Lmd_Accounts_LogAction@@YAXPAUgentity_s@@PAUAccount_s@@PAD@Z 20185300 f   Lmd_Accounts.obj
 0001:00184390       ?Lmd_Accounts_Player_CreateSecurityCode@@YAXPAUgentity_s@@PAUAccount_s@@@Z 20185390 f   Lmd_Accounts.obj
 0001:00184490       ?Lmd_Accounts_Player_Login@@YAHPAUgentity_s@@PAUAccount_s@@@Z 20185490 f   Lmd_Accounts.obj
 0001:001848c0       ?Lmd_Accounts_Player_Logout@@YAXPAUgentity_s@@@Z 201858c0 f   Lmd_Accounts.obj
 0001:00184a60       ?Lmd_Accounts_Player_Register@@YAHPAUgentity_s@@PAD1@Z 20185a60 f   Lmd_Accounts.obj
 0001:00184d80       ?Lmd_Accounts_Player_TryLogin@@YAHPAUgentity_s@@PAD11@Z 20185d80 f   Lmd_Accounts.obj
 0001:00185340       ?Open_Creditbox@@YA?AV?$tuple@HM@std@@PAUgentity_s@@@Z 20186340 f   Lmd_Accounts.obj
 0001:00185550       ?RenamePlayer@@YAXPAUgentity_s@@PAD@Z 20186550 f   Lmd_Accounts.obj
 0001:00185650       ?checkLevelUp@@YAXPAUgentity_s@@@Z 20186650 f   Lmd_Accounts.obj
 0001:00185900       ?clearAccounts@@YAXXZ      20186900 f   Lmd_Accounts.obj
 0001:00185980       ?clearCash@@YAXXZ          20186980 f   Lmd_Accounts.obj
 0001:00185a00       ?clearLevels@@YAXXZ        20186a00 f   Lmd_Accounts.obj
 0001:00185a80       ?clearScore@@YAXXZ         20186a80 f   Lmd_Accounts.obj
 0001:00185b00       ?clearSkills@@YAXXZ        20186b00 f   Lmd_Accounts.obj
 0001:00185b80       ?clearTime@@YAXXZ          20186b80 f   Lmd_Accounts.obj
 0001:00185c00       ?listAdmins@@YAXPAUgentity_s@@@Z 20186c00 f   Lmd_Accounts.obj
 0001:00185d00       ?updatePlayer@@YAXPAUgentity_s@@@Z 20186d00 f   Lmd_Accounts.obj
 0001:00185e70       ?Accounts_Parse_Password@@YAHPAD0PAX1@Z 20186e70 f   Lmd_Accounts_Core.obj
 0001:00185ef0       ?Accounts_Write_Password@@YA?AW4DataWriteResult_t@@PAXQADH1HPAPAX0@Z 20186ef0 f   Lmd_Accounts_Core.obj
 0001:00185f40       ?Accounts_Parse_LastLogin@@YAHPAD0PAX1@Z 20186f40 f   Lmd_Accounts_Core.obj
 0001:00185f80       ?Accounts_Write_LastLogin@@YA?AW4DataWriteResult_t@@PAXQADH1HPAPAX0@Z 20186f80 f   Lmd_Accounts_Core.obj
 0001:00185fc0       ?Accounts_Parse_LastIP@@YAHPAD0PAX1@Z 20186fc0 f   Lmd_Accounts_Core.obj
 0001:00186000       ?Accounts_Write_LastIP@@YA?AW4DataWriteResult_t@@PAXPADH1HPAPAX0@Z 20187000 f   Lmd_Accounts_Core.obj
 0001:00186050       ?Accounts_AddFlags@@YAXPAUAccount_s@@H@Z 20187050 f   Lmd_Accounts_Core.obj
 0001:001860c0       ?Accounts_ClearSeccode@@YAXPAUAccount_s@@@Z 201870c0 f   Lmd_Accounts_Core.obj
 0001:00186110       ?Accounts_Count@@YAIXZ     20187110 f   Lmd_Accounts_Core.obj
 0001:00186130       ?Accounts_Delete@@YAXPAUAccount_s@@@Z 20187130 f   Lmd_Accounts_Core.obj
 0001:00186190       ?Accounts_Get@@YAPAUAccount_s@@I@Z 20187190 f   Lmd_Accounts_Core.obj
 0001:00186200       ?Accounts_GetActiveProfession@@YAHPAUAccount_s@@@Z 20187200 f   Lmd_Accounts_Core.obj
 0001:00186230       ?Accounts_GetBountyReward@@YAHPAUAccount_s@@@Z 20187230 f   Lmd_Accounts_Core.obj
 0001:00186260       ?Accounts_GetById@@YAPAUAccount_s@@H@Z 20187260 f   Lmd_Accounts_Core.obj
 0001:001862d0       ?Accounts_GetByName@@YAPAUAccount_s@@PAD@Z 201872d0 f   Lmd_Accounts_Core.obj
 0001:00186350       ?Accounts_GetByUsername@@YAPAUAccount_s@@PAD@Z 20187350 f   Lmd_Accounts_Core.obj
 0001:001863d0       ?Accounts_GetCredits@@YAHPAUAccount_s@@@Z 201873d0 f   Lmd_Accounts_Core.obj
 0001:00186400       ?Accounts_GetFlags@@YAHPAUAccount_s@@@Z 20187400 f   Lmd_Accounts_Core.obj
 0001:00186430       ?Accounts_GetId@@YAHPAUAccount_s@@@Z 20187430 f   Lmd_Accounts_Core.obj
 0001:00186460       ?Accounts_GetLastIp@@YAXPAUAccount_s@@QAE@Z 20187460 f   Lmd_Accounts_Core.obj
 0001:00186490       ?Accounts_GetLastLogin@@YAHPAUAccount_s@@@Z 20187490 f   Lmd_Accounts_Core.obj
 0001:001864c0       ?Accounts_GetLogins@@YAHPAUAccount_s@@@Z 201874c0 f   Lmd_Accounts_Core.obj
 0001:001864f0       ?Accounts_GetLootboxes@@YAHPAUAccount_s@@@Z 201874f0 f   Lmd_Accounts_Core.obj
 0001:00186520       ?Accounts_GetMaxKillstreak@@YAHPAUAccount_s@@@Z 20187520 f   Lmd_Accounts_Core.obj
 0001:00186550       ?Accounts_GetName@@YAPADPAUAccount_s@@@Z 20187550 f   Lmd_Accounts_Core.obj
 0001:001865a0       ?Accounts_GetPassword@@YAHPAUAccount_s@@@Z 201875a0 f   Lmd_Accounts_Core.obj
 0001:001865d0       ?Accounts_GetPlayerByAcc@@YAPAUgentity_s@@PAUAccount_s@@@Z 201875d0 f   Lmd_Accounts_Core.obj
 0001:00186670       ?Accounts_GetScore@@YAHPAUAccount_s@@@Z 20187670 f   Lmd_Accounts_Core.obj
 0001:001866a0       ?Accounts_GetSeccode@@YAPADPAUAccount_s@@@Z 201876a0 f   Lmd_Accounts_Core.obj
 0001:001866d0       ?Accounts_GetSkillPoints_Bonus@@YAMPAUAccount_s@@@Z 201876d0 f   Lmd_Accounts_Core.obj
 0001:00186700       ?Accounts_GetTime@@YAHPAUAccount_s@@@Z 20187700 f   Lmd_Accounts_Core.obj
 0001:00186730       ?Accounts_GetUsername@@YAPADPAUAccount_s@@@Z 20187730 f   Lmd_Accounts_Core.obj
 0001:00186760       ?Accounts_Load@@YAIXZ      20187760 f   Lmd_Accounts_Core.obj
 0001:00186850       ?Accounts_New@@YAPAUAccount_s@@PAD00@Z 20187850 f   Lmd_Accounts_Core.obj
 0001:001869b0       ?Accounts_NewSeccode@@YAPADPAUAccount_s@@@Z 201879b0 f   Lmd_Accounts_Core.obj
 0001:00186b30       ?Accounts_Parse_Modules@@YAHPAD0PAX1@Z 20187b30 f   Lmd_Accounts_Core.obj
 0001:00186bf0       ?Accounts_Save@@YAXPAUAccount_s@@@Z 20187bf0 f   Lmd_Accounts_Core.obj
 0001:00186ce0       ?Accounts_SaveAll@@YAXH@Z  20187ce0 f   Lmd_Accounts_Core.obj
 0001:00186d80       ?Accounts_SetActiveProfession@@YAXPAUAccount_s@@H@Z 20187d80 f   Lmd_Accounts_Core.obj
 0001:00186dd0       ?Accounts_SetBountyReward@@YAXPAUAccount_s@@H@Z 20187dd0 f   Lmd_Accounts_Core.obj
 0001:00186e20       ?Accounts_SetCredits@@YAXPAUAccount_s@@H@Z 20187e20 f   Lmd_Accounts_Core.obj
 0001:00186e70       ?Accounts_SetLastIp@@YAXPAUAccount_s@@QAE@Z 20187e70 f   Lmd_Accounts_Core.obj
 0001:00186ec0       ?Accounts_SetLastLogin@@YAXPAUAccount_s@@H@Z 20187ec0 f   Lmd_Accounts_Core.obj
 0001:00186f00       ?Accounts_SetLogins@@YAXPAUAccount_s@@H@Z 20187f00 f   Lmd_Accounts_Core.obj
 0001:00186f40       ?Accounts_SetLootboxes@@YAXPAUAccount_s@@H@Z 20187f40 f   Lmd_Accounts_Core.obj
 0001:00186f90       ?Accounts_SetMaxKillstreak@@YAXPAUAccount_s@@H@Z 20187f90 f   Lmd_Accounts_Core.obj
 0001:00186fe0       ?Accounts_SetName@@YAXPAUAccount_s@@PAD@Z 20187fe0 f   Lmd_Accounts_Core.obj
 0001:00187060       ?Accounts_SetPassword@@YAXPAUAccount_s@@PAD@Z 20188060 f   Lmd_Accounts_Core.obj
 0001:001870b0       ?Accounts_SetScore@@YAXPAUAccount_s@@H@Z 201880b0 f   Lmd_Accounts_Core.obj
 0001:001870f0       ?Accounts_SetSkillPoints_Bonus@@YAXPAUAccount_s@@M@Z 201880f0 f   Lmd_Accounts_Core.obj
 0001:00187150       ?Accounts_SetTime@@YAXPAUAccount_s@@H@Z 20188150 f   Lmd_Accounts_Core.obj
 0001:00187190       ?Accounts_Update_Override@@YAXPAPAD0@Z 20188190 f   Lmd_Accounts_Core.obj
 0001:00187200       ?Accounts_Write_Modules@@YA?AW4DataWriteResult_t@@PAXQADH1HPAPAX0@Z 20188200 f   Lmd_Accounts_Core.obj
 0001:00187400       ?Lmd_Accounts_AddDataCategory@@YAHPAUaccDataModule_v1_s@@@Z 20188400 f   Lmd_Accounts_Core.obj
 0001:00187450       ?Lmd_Accounts_GetAccountCategoryData@@YAPAXPAUAccount_s@@H@Z 20188450 f   Lmd_Accounts_Core.obj
 0001:001874b0       ?Lmd_Accounts_Modify@@YAXPAUAccount_s@@@Z 201884b0 f   Lmd_Accounts_Core.obj
 0001:001874e0       ?accountLiveTime@@YAHH@Z   201884e0 f   Lmd_Accounts_Core.obj
 0001:00187540       ?accountLiveTimeCheck@@YAHPAUAccount_s@@@Z 20188540 f   Lmd_Accounts_Core.obj
 0001:001875b0       ?addAccount@@YAXPAUAccount_s@@@Z 201885b0 f   Lmd_Accounts_Core.obj
 0001:00187620       ?allocAccount@@YAPAUAccount_s@@XZ 20188620 f   Lmd_Accounts_Core.obj
 0001:00187720       ?calcAccountLive@@YAHPAUAccount_s@@@Z 20188720 f   Lmd_Accounts_Core.obj
 0001:00187760       ?deleteAccount@@YAXPAUAccount_s@@@Z 20188760 f   Lmd_Accounts_Core.obj
 0001:00187810       ?freeAccount@@YAXPAUAccount_s@@@Z 20188810 f   Lmd_Accounts_Core.obj
 0001:00187930       ?getAccountLiveDays@@YAHPAUAccount_s@@@Z 20188930 f   Lmd_Accounts_Core.obj
 0001:00187960       ?getAccountLiveTime@@YAHPAUAccount_s@@@Z 20188960 f   Lmd_Accounts_Core.obj
 0001:00187990       ?loadAccountData@@YAXPAD@Z 20188990 f   Lmd_Accounts_Core.obj
 0001:00187a80       ?parseAccount@@YAHPAD0@Z   20188a80 f   Lmd_Accounts_Core.obj
 0001:00187b70       ?removeAccount@@YAXPAUAccount_s@@@Z 20188b70 f   Lmd_Accounts_Core.obj
 0001:00187c20       ?validateNewAccount@@YAHPAUAccount_s@@@Z 20188c20 f   Lmd_Accounts_Core.obj
 0001:00187ca0       ?Accounts_CustomSkill_Parse@@YAHPAD0PAX1@Z 20188ca0 f   Lmd_Accounts_CustomSkills.obj
 0001:00187d10       ?Accounts_CustomSkill_Write@@YA?AW4DataWriteResult_t@@PAXQADH1HPAPAX0@Z 20188d10 f   Lmd_Accounts_CustomSkills.obj
 0001:00187e10       ?freeCust@@YAXPAX@Z        20188e10 f   Lmd_Accounts_CustomSkills.obj
 0001:00187e40       ?Accounts_CustomSkills_Register@@YAXXZ 20188e40 f   Lmd_Accounts_CustomSkills.obj
 0001:00187e70       ?Accounts_Custom_Clear@@YAXPAUAccount_s@@@Z 20188e70 f   Lmd_Accounts_CustomSkills.obj
 0001:00187ec0       ?Accounts_Custom_ClearAll@@YAXXZ 20188ec0 f   Lmd_Accounts_CustomSkills.obj
 0001:00187f20       ?Accounts_Custom_GetValue@@YAPADPAUAccount_s@@PAD@Z 20188f20 f   Lmd_Accounts_CustomSkills.obj
 0001:00187f90       ?Accounts_Custom_SetValue@@YAXPAUAccount_s@@PAD1@Z 20188f90 f   Lmd_Accounts_CustomSkills.obj
 0001:00188050       ?Accounts_Friends_Parse@@YAHPAD0PAX1@Z 20189050 f   Lmd_Accounts_Friends.obj
 0001:001880b0       ?Accounts_Friends_Write@@YA?AW4DataWriteResult_t@@PAXQADH1HPAPAX0@Z 201890b0 f   Lmd_Accounts_Friends.obj
 0001:001881a0       ?Accounts_Friends_AccountLoaded@@YAXPAX0@Z 201891a0 f   Lmd_Accounts_Friends.obj
 0001:00188230       ?Accounts_Friends_Free@@YAXPAX@Z 20189230 f   Lmd_Accounts_Friends.obj
 0001:00188260       ?Accounts_Friends_Count@@YAIPAUAccount_s@@@Z 20189260 f   Lmd_Accounts_Friends.obj
 0001:001882b0       ?Accounts_Friends_IsFriend@@YAHPAUAccount_s@@H@Z 201892b0 f   Lmd_Accounts_Friends.obj
 0001:00188330       ?Accounts_Friends_Register@@YAXXZ 20189330 f   Lmd_Accounts_Friends.obj
 0001:00188360       ?Cmd_Friends_f@@YAXPAUgentity_s@@H@Z 20189360 f   Lmd_Accounts_Friends.obj
 0001:001888a0       ?addFriend@@YAHPAUfriendData_s@@H@Z 201898a0 f   Lmd_Accounts_Friends.obj
 0001:00188910       ?getFriendIndex@@YAHPAUfriendData_s@@H@Z 20189910 f   Lmd_Accounts_Friends.obj
 0001:00188970       ?listDataFriends@@YAXPAUgentity_s@@PAUfriendData_s@@@Z 20189970 f   Lmd_Accounts_Friends.obj
 0001:00188c20       ?listFriends@@YAXPAUgentity_s@@PAUAccount_s@@@Z 20189c20 f   Lmd_Accounts_Friends.obj
 0001:00188ee0       ?removeFriendIndex@@YAXPAUfriendData_s@@H@Z 20189ee0 f   Lmd_Accounts_Friends.obj
 0001:00188f30       ?Accounts_Property_Parse@@YAHPAD0PAX1@Z 20189f30 f   Lmd_Accounts_Property.obj
 0001:00189280       ?Accounts_Property_Write@@YA?AW4DataWriteResult_t@@PAXQADH1HPAPAX0@Z 2018a280 f   Lmd_Accounts_Property.obj
 0001:00189430       ?Accounts_Property_Free@@YAXPAX@Z 2018a430 f   Lmd_Accounts_Property.obj
 0001:001894a0       ?Accounts_Property_GetAccess@@YAIPAUAccount_s@@PADPAHPAI2@Z 2018a4a0 f   Lmd_Accounts_Property.obj
 0001:001895e0       ?Accounts_Property_GetAccessCount@@YAIPADH@Z 2018a5e0 f   Lmd_Accounts_Property.obj
 0001:00189700       ?Accounts_Property_GetPlayerPropRank@@YAHPAUgentity_s@@PAD@Z 2018a700 f   Lmd_Accounts_Property.obj
 0001:001897a0       ?Accounts_Property_Register@@YAXXZ 2018a7a0 f   Lmd_Accounts_Property.obj
 0001:001897d0       ?Accounts_Property_SetAccess@@YAXPAUAccount_s@@PADIHIH@Z 2018a7d0 f   Lmd_Accounts_Property.obj
 0001:00189990       ?Accounts_Property_ViewAccount@@YAXPAUgentity_s@@PAUAccount_s@@@Z 2018a990 f   Lmd_Accounts_Property.obj
 0001:00189ba0       ?Accounts_Property_ViewKey@@YAXPAUgentity_s@@PAD@Z 2018aba0 f   Lmd_Accounts_Property.obj
 0001:00189e10       ?Cmd_Property_f@@YAXPAUgentity_s@@H@Z 2018ae10 f   Lmd_Accounts_Property.obj
 0001:0018a8a0       ?checkExpiredProperty@@YAXPAUAccount_s@@@Z 2018b8a0 f   Lmd_Accounts_Property.obj
 0001:0018a970       ?lmd_property@@YAXPAUgentity_s@@@Z 2018b970 f   Lmd_Accounts_Property.obj
 0001:0018aa80       ?lmd_property_use@@YAXPAUgentity_s@@00@Z 2018ba80 f   Lmd_Accounts_Property.obj
 0001:0018aae0       ?lmd_propertyterminal@@YAXPAUgentity_s@@@Z 2018bae0 f   Lmd_Accounts_Property.obj
 0001:0018adb0       ?lmd_propertyterminal_examine@@YAXPAUgentity_s@@0@Z 2018bdb0 f   Lmd_Accounts_Property.obj
 0001:0018b2e0       ?lmd_propertyterminal_pay@@YAHPAUgentity_s@@H0@Z 2018c2e0 f   Lmd_Accounts_Property.obj
 0001:0018b6e0       ?lmd_propertyterminal_use@@YAXPAUgentity_s@@00@Z 2018c6e0 f   Lmd_Accounts_Property.obj
 0001:0018b8e0       ?removePropertyByAdder@@YAXPADH@Z 2018c8e0 f   Lmd_Accounts_Property.obj
 0001:0018b9f0       ?Accounts_Stats_GetDeaths@@YAHPAUAccount_s@@@Z 2018c9f0 f   Lmd_Accounts_Stats.obj
 0001:0018ba40       ?Accounts_Stats_GetDuels@@YAHPAUAccount_s@@@Z 2018ca40 f   Lmd_Accounts_Stats.obj
 0001:0018ba90       ?Accounts_Stats_GetDuelsWon@@YAHPAUAccount_s@@@Z 2018ca90 f   Lmd_Accounts_Stats.obj
 0001:0018bae0       ?Accounts_Stats_GetHits@@YAHPAUAccount_s@@@Z 2018cae0 f   Lmd_Accounts_Stats.obj
 0001:0018bb30       ?Accounts_Stats_GetKills@@YAHPAUAccount_s@@@Z 2018cb30 f   Lmd_Accounts_Stats.obj
 0001:0018bb80       ?Accounts_Stats_GetShots@@YAHPAUAccount_s@@@Z 2018cb80 f   Lmd_Accounts_Stats.obj
 0001:0018bbd0       ?Accounts_Stats_GetStashes@@YAHPAUAccount_s@@@Z 2018cbd0 f   Lmd_Accounts_Stats.obj
 0001:0018bc20       ?Accounts_Stats_Register@@YAXXZ 2018cc20 f   Lmd_Accounts_Stats.obj
 0001:0018bc50       ?Accounts_Stats_SetDeaths@@YAXPAUAccount_s@@H@Z 2018cc50 f   Lmd_Accounts_Stats.obj
 0001:0018bcb0       ?Accounts_Stats_SetDuels@@YAXPAUAccount_s@@H@Z 2018ccb0 f   Lmd_Accounts_Stats.obj
 0001:0018bd10       ?Accounts_Stats_SetDuelsWon@@YAXPAUAccount_s@@H@Z 2018cd10 f   Lmd_Accounts_Stats.obj
 0001:0018bd70       ?Accounts_Stats_SetHits@@YAXPAUAccount_s@@H@Z 2018cd70 f   Lmd_Accounts_Stats.obj
 0001:0018bdd0       ?Accounts_Stats_SetKills@@YAXPAUAccount_s@@H@Z 2018cdd0 f   Lmd_Accounts_Stats.obj
 0001:0018be30       ?Accounts_Stats_SetShots@@YAXPAUAccount_s@@H@Z 2018ce30 f   Lmd_Accounts_Stats.obj
 0001:0018be90       ?Accounts_Stats_SetStashes@@YAXPAUAccount_s@@H@Z 2018ce90 f   Lmd_Accounts_Stats.obj
 0001:0018bef0       ?Actor_Create@@YAPAUgentity_s@@PAD0QAM1@Z 2018cef0 f   Lmd_Actor_Core.obj
 0001:0018c3e0       ?Actor_SetAngles@@YAXPAUgentity_s@@QAM@Z 2018d3e0 f   Lmd_Actor_Core.obj
 0001:0018c410       ?Actor_SetAnimation_Both@@YAXPAUgentity_s@@HH@Z 2018d410 f   Lmd_Actor_Core.obj
 0001:0018c4a0       ?Actor_SetAnimation_Legs@@YAXPAUgentity_s@@HH@Z 2018d4a0 f   Lmd_Actor_Core.obj
 0001:0018c510       ?Actor_SetAnimation_Torso@@YAXPAUgentity_s@@HH@Z 2018d510 f   Lmd_Actor_Core.obj
 0001:0018c580       ?Actor_SetDestination@@YAXPAUgentity_s@@QAMH@Z 2018d580 f   Lmd_Actor_Core.obj
 0001:0018c630       ?Actor_SetModel@@YAXPAUgentity_s@@PAD1@Z 2018d630 f   Lmd_Actor_Core.obj
 0001:0018c6a0       ?Actor_SetOrigin@@YAXPAUgentity_s@@QAM@Z 2018d6a0 f   Lmd_Actor_Core.obj
 0001:0018c7d0       ?Actor_SetScale@@YAXPAUgentity_s@@M@Z 2018d7d0 f   Lmd_Actor_Core.obj
 0001:0018c810       ?Actor_SetSpeed@@YAXPAUgentity_s@@H@Z 2018d810 f   Lmd_Actor_Core.obj
 0001:0018c840       ?Actor_Think@@YAXPAUgentity_s@@@Z 2018d840 f   Lmd_Actor_Core.obj
 0001:0018cd10       ?ApplyActorAttributeEntityKeys@@YAXPAUgentity_s@@0@Z 2018dd10 f   Lmd_Actor_Entities.obj
 0001:0018ce80       ?ParseActorAttributeEntityKeys@@YAXPAUgentity_s@@@Z 2018de80 f   Lmd_Actor_Entities.obj
 0001:0018cf50       ?lmd_actor@@YAXPAUgentity_s@@@Z 2018df50 f   Lmd_Actor_Entities.obj
 0001:0018d0c0       ?lmd_actor_modify@@YAXPAUgentity_s@@@Z 2018e0c0 f   Lmd_Actor_Entities.obj
 0001:0018d150       ?lmd_actor_modify_use@@YAXPAUgentity_s@@00@Z 2018e150 f   Lmd_Actor_Entities.obj
 0001:0018d300       ?lmd_actor_use@@YAXPAUgentity_s@@00@Z 2018e300 f   Lmd_Actor_Entities.obj
 0001:0018d510       ?Cmd_AccountEdit_f@@YAXPAUgentity_s@@H@Z 2018e510 f   Lmd_Admin.obj
 0001:0018e350       ?Cmd_AccountInfo_f@@YAXPAUgentity_s@@H@Z 2018f350 f   Lmd_Admin.obj
 0001:0018e470       ?Cmd_Announce_f@@YAXPAUgentity_s@@H@Z 2018f470 f   Lmd_Admin.obj
 0001:0018e550       ?Cmd_CancelVote_f@@YAXPAUgentity_s@@H@Z 2018f550 f   Lmd_Admin.obj
 0001:0018e5c0       ?Cmd_Freeze_f@@YAXPAUgentity_s@@H@Z 2018f5c0 f   Lmd_Admin.obj
 0001:0018e7c0       ?Cmd_Teleport_f@@YAXPAUgentity_s@@H@Z 2018f7c0 f   Lmd_Admin.obj
 0001:0018f160       ?Cmd_GotoPoint_f@@YAXPAUgentity_s@@H@Z 20190160 f   Lmd_Admin.obj
 0001:0018f730       ?Cmd_HideAdminStatus_f@@YAXPAUgentity_s@@H@Z 20190730 f   Lmd_Admin.obj
 0001:0018f7e0       ?Cmd_Jail_f@@YAXPAUgentity_s@@H@Z 201907e0 f   Lmd_Admin.obj
 0001:0018fa70       ?Cmd_JmQuit_f@@YAXPAUgentity_s@@H@Z 20190a70 f   Lmd_Admin.obj
 0001:0018ff70       ?Cmd_ListAdmins_f@@YAXPAUgentity_s@@H@Z 20190f70 f   Lmd_Admin.obj
 0001:0018ffa0       ?Cmd_ToggleSPF_f@@YAXPAUgentity_s@@H@Z 20190fa0 f   Lmd_Admin.obj
 0001:00190260       ?Cmd_PassVote_f@@YAXPAUgentity_s@@H@Z 20191260 f   Lmd_Admin.obj
 0001:001902e0       ?Cmd_Penalize_f@@YAXPAUgentity_s@@H@Z 201912e0 f   Lmd_Admin.obj
 0001:00190660       ?Cmd_Playerlist_f@@YAXPAUgentity_s@@H@Z 20191660 f   Lmd_Admin.obj
 0001:00190cd0       ?Cmd_RenamePlayer_f@@YAXPAUgentity_s@@H@Z 20191cd0 f   Lmd_Admin.obj
 0001:00190df0       ?Cmd_Strip_f@@YAXPAUgentity_s@@H@Z 20191df0 f   Lmd_Admin.obj
 0001:00191030       ?Cmd_TeamOther_f@@YAXPAUgentity_s@@H@Z 20192030 f   Lmd_Admin.obj
 0001:00191390       ?Cmd_TmpBan_f@@YAXPAUgentity_s@@H@Z 20192390 f   Lmd_Admin.obj
 0001:001914c0       ?SumCredits@@YAHXZ         201924c0 f   Lmd_Admin.obj
 0001:001915d0       ?jailPlayer@@YAXPAUgentity_s@@H@Z 201925d0 f   Lmd_Admin.obj
 0001:001918f0       ?totalAccountCredits@@YAIXZ 201928f0 f   Lmd_Admin.obj
 0001:00191960       ?updatePenalties@@YAXPAUgentity_s@@@Z 20192960 f   Lmd_Admin.obj
 0001:00191a10       ?LmdApi_Accounts_RegisterAccountModule@@YAHPAUaccDataModule_v1_s@@H@Z 20192a10 f   Lmd_API_Accounts.obj
 0001:00191a40       ?LmdApi_Accounts_GetAccountModuleData@@YAPAXPAXH@Z 20192a40 f   Lmd_API_Accounts.obj
 0001:00191a70       ?LmdApi_Accounts_GetById@@YAPAXH@Z 20192a70 f   Lmd_API_Accounts.obj
 0001:00191aa0       ?LmdApi_Accounts_GetByUsername@@YAPAXPAD@Z 20192aa0 f   Lmd_API_Accounts.obj
 0001:00191ad0       ?LmdApi_Accounts_GetByName@@YAPAXPAD@Z 20192ad0 f   Lmd_API_Accounts.obj
 0001:00191b00       ?LmdApi_Accounts_Get@@YAPAXI@Z 20192b00 f   Lmd_API_Accounts.obj
 0001:00191b30       ?LmdApi_Accounts_GetId@@YAHPAX@Z 20192b30 f   Lmd_API_Accounts.obj
 0001:00191b60       ?LmdApi_Accounts_GetUsername@@YAPADPAX@Z 20192b60 f   Lmd_API_Accounts.obj
 0001:00191b90       ?LmdApi_Accounts_SetPassword@@YAXPAXPAD@Z 20192b90 f   Lmd_API_Accounts.obj
 0001:00191bc0       ?LmdApi_Accounts_GetCredits@@YAHPAX@Z 20192bc0 f   Lmd_API_Accounts.obj
 0001:00191bf0       ?LmdApi_Accounts_SetCredits@@YAXPAXH@Z 20192bf0 f   Lmd_API_Accounts.obj
 0001:00191c20       ?LmdApi_Accounts_GetScore@@YAHPAX@Z 20192c20 f   Lmd_API_Accounts.obj
 0001:00191c50       ?LmdApi_Accounts_SetScore@@YAXPAXH@Z 20192c50 f   Lmd_API_Accounts.obj
 0001:00191c80       ?LmdApi_Accounts_GetTime@@YAHPAX@Z 20192c80 f   Lmd_API_Accounts.obj
 0001:00191cb0       ?LmdApi_Accounts_GetSeccode@@YAPADPAX@Z 20192cb0 f   Lmd_API_Accounts.obj
 0001:00191ce0       ?LmdApi_Accounts_ClearSeccode@@YAXPAX@Z 20192ce0 f   Lmd_API_Accounts.obj
 0001:00191d10       ?LmdApi_Accounts_GetFlags@@YAHPAX@Z 20192d10 f   Lmd_API_Accounts.obj
 0001:00191d40       ?LmdApi_Accounts_AddFlags@@YAXPAXH@Z 20192d40 f   Lmd_API_Accounts.obj
 0001:00191d70       ?LmdApi_Accounts_GetLogins@@YAHPAX@Z 20192d70 f   Lmd_API_Accounts.obj
 0001:00191da0       ?LmdApi_Accounts_GetLastIp@@YAXPAXQAE@Z 20192da0 f   Lmd_API_Accounts.obj
 0001:00191dd0       ?LmdApi_Accounts_GetLastLogin@@YAHPAX@Z 20192dd0 f   Lmd_API_Accounts.obj
 0001:00191e00       ?LmdApi_Accounts_GetName@@YAPADPAX@Z 20192e00 f   Lmd_API_Accounts.obj
 0001:00191e30       ?LmdApi_Accounts_SetName@@YAXPAXPAD@Z 20192e30 f   Lmd_API_Accounts.obj
 0001:00191e60       ?LmdApi_Get_Accounts@@YAPBXI@Z 20192e60 f   Lmd_API_Accounts.obj
 0001:00191e90       ?LmdApi_Commands_Auths_AccountHasAdmin@@YAHPAX@Z 20192e90 f   Lmd_API_Commands_Auths.obj
 0001:00191ec0       ?LmdApi_Commands_Auths_AccountHasAuthFlag@@YAHPAXH@Z 20192ec0 f   Lmd_API_Commands_Auths.obj
 0001:00191ef0       ?LmdApi_Commands_Auths_AccountHasAuth@@YAHPAXPAUauthFile_s@@@Z 20192ef0 f   Lmd_API_Commands_Auths.obj
 0001:00191f20       ?LmdApi_Commands_Auths_PlayerInferiorToAccount@@YAHPAUgentity_s@@PAX@Z 20192f20 f   Lmd_API_Commands_Auths.obj
 0001:00191f50       ?LmdApi_Commands_Auths_AccountRank@@YAHPAX@Z 20192f50 f   Lmd_API_Commands_Auths.obj
 0001:00191f80       ?LmdApi_Commands_Auths_GrantAccountAuth@@YAXPAXPAUauthFile_s@@@Z 20192f80 f   Lmd_API_Commands_Auths.obj
 0001:00191fb0       ?LmdApi_Commands_Auths_RemoveAccountAuth@@YAHPAXPAUauthFile_s@@@Z 20192fb0 f   Lmd_API_Commands_Auths.obj
 0001:00191fe0       ?LmdApi_Get_Commands_Auths@@YAPBXI@Z 20192fe0 f   Lmd_API_Commands_Auths.obj
 0001:00192010       ?LmdApi_Entities_ClearSpawnKeys@@YAXXZ 20193010 f   Lmd_API_Entities.obj
 0001:00192040       ?LmdApi_Entities_SpawnFromKeys@@YAPAUgentity_s@@XZ 20193040 f   Lmd_API_Entities.obj
 0001:001920b0       ?LmdApi_Entities_RegisterSpawnableEntity@@YAXPADP6AXPAUgentity_s@@@ZUentLogicalData_s@@PBUentityInfo_t@@@Z 201930b0 f   Lmd_API_Entities.obj
 0001:00192120       ?LmdApi_Entities_AddSpawnKey@@YAXPAD0@Z 20193120 f   Lmd_API_Entities.obj
 0001:00192150       ?LmdApi_Get_Entities@@YAPBXI@Z 20193150 f   Lmd_API_Entities.obj
 0001:00192180       ?LmdApi_Professions_GetNumProfessions@@YAHXZ 20193180 f   Lmd_API_Professions.obj
 0001:001921a0       ?LmdApi_Professions_GetProfession@@YAPAUprofession_s@@H@Z 201931a0 f   Lmd_API_Professions.obj
 0001:001921e0       ?LmdApi_Get_Professions@@YAPBXI@Z 201931e0 f   Lmd_API_Professions.obj
 0001:00192210       ?Lmd_Arrays_AddArrayElement@@YAIPAPAXIPAI@Z 20193210 f   Lmd_Arrays.obj
 0001:001922c0       ?Lmd_Arrays_AddArrayElement_Location@@YAHHPAPAXIPAI@Z 201932c0 f   Lmd_Arrays.obj
 0001:00192390       ?Lmd_Arrays_RemoveAllElements@@YAXPAPAX@Z 20193390 f   Lmd_Arrays.obj
 0001:001923d0       ?Lmd_Arrays_RemoveArrayElement@@YAXPAPAXHIPAI@Z 201933d0 f   Lmd_Arrays.obj
 0001:001924c0       ?Lmd_Arrays_Shift@@YAXPAXIHHH@Z 201934c0 f   Lmd_Arrays.obj
 0001:00192590       ?Cmd_BanIP_f@@YAXPAUgentity_s@@H@Z 20193590 f   Lmd_Bans.obj
 0001:001927c0       ?Cmd_BanHost_f@@YAXPAUgentity_s@@H@Z 201937c0 f   Lmd_Bans.obj
 0001:00192990       ?Cmd_RemoveBan_f@@YAXPAUgentity_s@@H@Z 20193990 f   Lmd_Bans.obj
 0001:00192a90       ?Cmd_ListBans_f@@YAXPAUgentity_s@@H@Z 20193a90 f   Lmd_Bans.obj
 0001:00192d80       ?Bans_AddHost@@YAXPADH0@Z  20193d80 f   Lmd_Bans.obj
 0001:00192de0       ?Bans_AddIP@@YAXQAEHPAD@Z  20193de0 f   Lmd_Bans.obj
 0001:00192e40       ?Bans_CheckBegin@@YAHPAUgentity_s@@@Z 20193e40 f   Lmd_Bans.obj
 0001:00192fa0       ?Bans_CheckTime@@YAXXZ     20193fa0 f   Lmd_Bans.obj
 0001:00193050       ?Bans_Create@@YAPAUBan_s@@HPAD@Z 20194050 f   Lmd_Bans.obj
 0001:00193130       ?Bans_GetHostnameIndex@@YAHPAD@Z 20194130 f   Lmd_Bans.obj
 0001:001931c0       ?Bans_GetIpIndex@@YAHQAE@Z 201941c0 f   Lmd_Bans.obj
 0001:00193250       ?Bans_HostnameIsBanned@@YAPADPAD@Z 20194250 f   Lmd_Bans.obj
 0001:00193390       ?Bans_IPIsBanned@@YAPADQAE@Z 20194390 f   Lmd_Bans.obj
 0001:00193420       ?Bans_Load@@YAXXZ          20194420 f   Lmd_Bans.obj
 0001:00193770       ?Bans_Load_Callback@@YAHPAD0PAX@Z 20194770 f   Lmd_Bans.obj
 0001:00193940       ?Bans_Remove@@YAXH@Z       20194940 f   Lmd_Bans.obj
 0001:001939c0       ?Bans_Save@@YAXXZ          201949c0 f   Lmd_Bans.obj
 0001:00193a10       ?Bans_Save_Callback@@YAPAUDBSaveFileCallbackReturn_t@@PAEPAU1@PADH2H@Z 20194a10 f   Lmd_Bans.obj
 0001:00193c30       ?Lmd_Bans_BanPlayer@@YAXPAUgentity_s@@@Z 20194c30 f   Lmd_Bans.obj
 0001:00193c90       ?Lmd_Bans_TempBanPlayer@@YAXPAUgentity_s@@HPAD@Z 20194c90 f   Lmd_Bans.obj
 0001:00193d90       ?Checksum@@YAIPAD@Z        20194d90 f   Lmd_Checksum.obj
 0001:00193eb0       ?HexToInt@@YAHPBD@Z        20194eb0 f   Lmd_Checksum.obj
 0001:00193ff0       ?Cmd_Confirm_f@@YAXPAUgentity_s@@H@Z 20194ff0 f   Lmd_Command_Confirm.obj
 0001:00194270       ?Confirm_Check@@YAXPAUgentity_s@@@Z 20195270 f   Lmd_Command_Confirm.obj
 0001:001942f0       ?Confirm_Clear@@YAXPAUgentity_s@@@Z 201952f0 f   Lmd_Command_Confirm.obj
 0001:00194350       ?Confirm_Set@@YAHPAUgentity_s@@P6AX0PAX@Z1@Z 20195350 f   Lmd_Command_Confirm.obj
 0001:001943f0       ?Confirm_Set_Without_Flag@@YAHPAUgentity_s@@P6AX0PAX@Z1@Z 201953f0 f   Lmd_Command_Confirm.obj
 0001:00194460       ?Cmd_Interact_f@@YAXPAUgentity_s@@H@Z 20195460 f   Lmd_Command_Interact.obj
 0001:00194530       ?Interact_Check@@YAXPAUgentity_s@@@Z 20195530 f   Lmd_Command_Interact.obj
 0001:001947a0       ?Interact_Clear@@YAXPAUgentity_s@@@Z 201957a0 f   Lmd_Command_Interact.obj
 0001:001947e0       ?Interact_Set@@YAXPAUgentity_s@@0QAMHPAD@Z 201957e0 f   Lmd_Command_Interact.obj
 0001:00194b00       ?Cmd_AdminInfo_f@@YAXPAUgentity_s@@H@Z 20195b00 f   Lmd_Commands.obj
 0001:00194c40       ?Cmd_IgnoreClient_f@@YAXPAUgentity_s@@H@Z 20195c40 f   Lmd_Commands.obj
 0001:00195000       ?Cmd_BuddyClient_f@@YAXPAUgentity_s@@H@Z 20196000 f   Lmd_Commands.obj
 0001:00195210       ?Cmd_Challenge_f@@YAXPAUgentity_s@@H@Z 20196210 f   Lmd_Commands.obj
 0001:00195690       ?Cmd_Resize_f@@YAXPAUgentity_s@@H@Z 20196690 f   Lmd_Commands.obj
 0001:00195970       ?Cmd_emote_f@@YAXPAUgentity_s@@H@Z 20196970 f   Lmd_Commands.obj
 0001:00195d20       ?Cmd_Ionlyduel_f@@YAXPAUgentity_s@@H@Z 20196d20 f   Lmd_Commands.obj
 0001:00195eb0       ?Cmd_King_f@@YAXPAUgentity_s@@H@Z 20196eb0 f   Lmd_Commands.obj
 0001:001960d0       ?Cmd_Say2_f@@YAXPAUgentity_s@@H@Z 201970d0 f   Lmd_Commands.obj
 0001:00196100       ?Cmd_DropStuff_f@@YAXPAUgentity_s@@H@Z 20197100 f   Lmd_Commands.obj
 0001:001964a0       ?Cmd_RageQuit_f@@YAXPAUgentity_s@@H@Z 201974a0 f   Lmd_Commands.obj
 0001:00196500       ?Cmd_ChatMode_f@@YAXPAUgentity_s@@H@Z 20197500 f   Lmd_Commands.obj
 0001:00196a90       ?Cmd_dispMotd_f@@YAXPAUgentity_s@@H@Z 20197a90 f   Lmd_Commands.obj
 0001:00196ac0       ?Cmd_Stash_f@@YAXPAUgentity_s@@H@Z 20197ac0 f   Lmd_Commands.obj
 0001:00196bd0       ?Cmd_DropStash_f@@YAXPAUgentity_s@@H@Z 20197bd0 f   Lmd_Commands.obj
 0001:00196c90       ?Cmd_Examine_f@@YAXPAUgentity_s@@H@Z 20197c90 f   Lmd_Commands.obj
 0001:00196fa0       ?Bounty_List_disp@@YAXPAUgentity_s@@H@Z 20197fa0 f   Lmd_Commands.obj
 0001:00197340       ?Cmd_SetBounty_f@@YAXPAUgentity_s@@H@Z 20198340 f   Lmd_Commands.obj
 0001:001978c0       ?AimAnyTarget@@YAPAUgentity_s@@PAU1@H@Z 201988c0 f   Lmd_Commands.obj
 0001:00197b00       ?AimTarget@@YAPAUgentity_s@@PAU1@H@Z 20198b00 f   Lmd_Commands.obj
 0001:00197b70       ?ClientFromArg@@YAPAUgentity_s@@PAU1@H@Z 20198b70 f   Lmd_Commands.obj
 0001:00197c10       ?Cmd_None_f@@YAXPAUgentity_s@@H@Z 20198c10 f   Lmd_Commands.obj
 0001:00197c30       ?G_NewString2@@YAPADPBD@Z  20198c30 f   Lmd_Commands.obj
 0001:00197cd0       ?HurlItem@@YAPAUgentity_s@@PAU1@PBD@Z 20198cd0 f   Lmd_Commands.obj
 0001:00198050       ?PlayerItem_CanSpawnItem@@YAHPAUgentity_s@@@Z 20199050 f   Lmd_Commands.obj
 0001:001980b0       ?PlayerItem_Scan@@YAXPAUgentity_s@@@Z 201990b0 f   Lmd_Commands.obj
 0001:001981a0       ?PlayerItem_Spawn@@YAHPAUgentity_s@@0@Z 201991a0 f   Lmd_Commands.obj
 0001:00198240       ?hurl@@YAXPAUgentity_s@@0@Z 20199240 f   Lmd_Commands.obj
 0001:00198650       ?isBuddy@@YAHPAUgentity_s@@0@Z 20199650 f   Lmd_Commands.obj
 0001:00198760       ?listEmotes@@YAXPAUgentity_s@@@Z 20199760 f   Lmd_Commands.obj
 0001:001988a0       ?scaleEntity@@YAXPAUgentity_s@@H@Z 201998a0 f   Lmd_Commands.obj
 0001:00198ab0       ?Accounts_Auths_Parse@@YAHPAD0PAX1@Z 20199ab0 f   Lmd_Commands_Auths.obj
 0001:00198bd0       ?Accounts_Auths_Write@@YA?AW4DataWriteResult_t@@PAXQADH1HPAPAX0@Z 20199bd0 f   Lmd_Commands_Auths.obj
 0001:00198cd0       ?Accounts_Auths_Free@@YAXPAX@Z 20199cd0 f   Lmd_Commands_Auths.obj
 0001:00198d00       ?Cmd_GrantAdmin_f@@YAXPAUgentity_s@@H@Z 20199d00 f   Lmd_Commands_Auths.obj
 0001:00199260       ?Cmd_GrantTempAdmin_f@@YAXPAUgentity_s@@H@Z 2019a260 f   Lmd_Commands_Auths.obj
 0001:00199740       ?Cmd_MyAuths_f@@YAXPAUgentity_s@@H@Z 2019a740 f   Lmd_Commands_Auths.obj
 0001:00199a80       ?Cmd_AuthInfo_f@@YAXPAUgentity_s@@H@Z 2019aa80 f   Lmd_Commands_Auths.obj
 0001:00199d50       ?Accounts_Auths_Register@@YAXXZ 2019ad50 f   Lmd_Commands_Auths.obj
 0001:00199d80       ?Auths_AccHasAdmin@@YAHPAUAccount_s@@@Z 2019ad80 f   Lmd_Commands_Auths.obj
 0001:00199de0       ?Auths_AccHasAuthFlag@@YAHPAUAccount_s@@H@Z 2019ade0 f   Lmd_Commands_Auths.obj
 0001:00199e80       ?Auths_AccHasFile@@YAHPAUAccount_s@@PAUauthFile_s@@@Z 2019ae80 f   Lmd_Commands_Auths.obj
 0001:00199f10       ?Auths_AddAccAuthfile@@YAXPAUAccount_s@@PAUauthFile_s@@@Z 2019af10 f   Lmd_Commands_Auths.obj
 0001:00199f80       ?Auths_AddDataEntry@@YAXPAUauthFileDataList_s@@PAUauthFile_s@@H@Z 2019af80 f   Lmd_Commands_Auths.obj
 0001:0019a040       ?Auths_AddTempAuthfile@@YAXPAUgentity_s@@PAUauthFile_s@@@Z 2019b040 f   Lmd_Commands_Auths.obj
 0001:0019a080       ?Auths_AllocTempAdmin@@YAXPAUclientSession_t@@@Z 2019b080 f   Lmd_Commands_Auths.obj
 0001:0019a0e0       ?Auths_CanUseCommand@@YAHPAUgentity_s@@PAUcmdEntry_s@@@Z 2019b0e0 f   Lmd_Commands_Auths.obj
 0001:0019a250       ?Auths_CommandUsed@@YAXPAUgentity_s@@PAUcmdEntry_s@@@Z 2019b250 f   Lmd_Commands_Auths.obj
 0001:0019a410       ?Auths_DispAdmins@@YAXPAD@Z 2019b410 f   Lmd_Commands_Auths.obj
 0001:0019a4a0       ?Auths_DispInfo@@YAXPAUgentity_s@@PAUauthFile_s@@PAUcmdCategory_s@@@Z 2019b4a0 f   Lmd_Commands_Auths.obj
 0001:0019a9c0       ?Auths_GetAccAuthData@@YAPAUauthFileData_s@@PAUAccount_s@@PAUauthFile_s@@@Z 2019b9c0 f   Lmd_Commands_Auths.obj
 0001:0019aa50       ?Auths_GetAuthCmdEntry@@YAPAUauthCmdEntry_s@@PAUauthFile_s@@PAUcmdEntry_s@@@Z 2019ba50 f   Lmd_Commands_Auths.obj
 0001:0019aac0       ?Auths_GetFile@@YAPAUauthFile_s@@PAD@Z 2019bac0 f   Lmd_Commands_Auths.obj
 0001:0019ab60       ?Auths_GetPlayerFileCmdEntry@@YAPAUauthCmdEntry_s@@PAUgentity_s@@PAUcmdEntry_s@@PAPAUauthFileData_s@@@Z 2019bb60 f   Lmd_Commands_Auths.obj
 0001:0019ad10       ?Auths_GetPlayerRank@@YAHPAUgentity_s@@@Z 2019bd10 f   Lmd_Commands_Auths.obj
 0001:0019ae40       ?Auths_GetRank@@YAHPAUAccount_s@@@Z 2019be40 f   Lmd_Commands_Auths.obj
 0001:0019af00       ?Auths_Inferior@@YAHPAUgentity_s@@0@Z 2019bf00 f   Lmd_Commands_Auths.obj
 0001:0019afc0       ?Auths_InferiorToAcc@@YAHPAUgentity_s@@PAUAccount_s@@@Z 2019bfc0 f   Lmd_Commands_Auths.obj
 0001:0019b090       ?Auths_Load@@YAIXZ         2019c090 f   Lmd_Commands_Auths.obj
 0001:0019b0e0       ?Auths_LoadDefaults@@YAXXZ 2019c0e0 f   Lmd_Commands_Auths.obj
 0001:0019b340       ?Auths_LoadFile@@YAHPAD0@Z 2019c340 f   Lmd_Commands_Auths.obj
 0001:0019b390       ?Auths_NewAuthCmdEntry@@YAPAUauthCmdEntry_s@@PAUauthFile_s@@PAUcmdEntry_s@@@Z 2019c390 f   Lmd_Commands_Auths.obj
 0001:0019b400       ?Auths_NewFile@@YAPAUauthFile_s@@PAD@Z 2019c400 f   Lmd_Commands_Auths.obj
 0001:0019b470       ?Auths_ParseFile@@YAHPAEHPAD1@Z 2019c470 f   Lmd_Commands_Auths.obj
 0001:0019b530       ?Auths_ParseLevelFile@@YAXXZ 2019c530 f   Lmd_Commands_Auths.obj
 0001:0019b710       ?Auths_PlayerCmdpointRegen@@YAXPAUgentity_s@@@Z 2019c710 f   Lmd_Commands_Auths.obj
 0001:0019b730       ?Auths_PlayerHasAdmin@@YAHPAUgentity_s@@@Z 2019c730 f   Lmd_Commands_Auths.obj
 0001:0019b7a0       ?Auths_PlayerHasAuthFlag@@YAHPAUgentity_s@@H@Z 2019c7a0 f   Lmd_Commands_Auths.obj
 0001:0019b860       ?Auths_PlayerHasCommand@@YAHPAUgentity_s@@PAUcmdEntry_s@@@Z 2019c860 f   Lmd_Commands_Auths.obj
 0001:0019b8b0       ?Auths_PlayerHasFile@@YAHPAUgentity_s@@PAUauthFile_s@@@Z 2019c8b0 f   Lmd_Commands_Auths.obj
 0001:0019b910       ?Auths_PlayerHasTempAdmin@@YAHPAUgentity_s@@@Z 2019c910 f   Lmd_Commands_Auths.obj
 0001:0019b990       ?Auths_PlayerHasTempFile@@YAHPAUgentity_s@@PAUauthFile_s@@@Z 2019c990 f   Lmd_Commands_Auths.obj
 0001:0019ba10       ?Auths_QuickAuthList@@YAPADPAUAccount_s@@@Z 2019ca10 f   Lmd_Commands_Auths.obj
 0001:0019bcd0       ?Auths_QuickPlayerAuthList@@YAPADPAUgentity_s@@@Z 2019ccd0 f   Lmd_Commands_Auths.obj
 0001:0019bf30       ?Auths_ReadTempAdminSess@@YAXPAUgclient_s@@@Z 2019cf30 f   Lmd_Commands_Auths.obj
 0001:0019c190       ?Auths_RemoveAccAuthfile@@YAHPAUAccount_s@@PAUauthFile_s@@@Z 2019d190 f   Lmd_Commands_Auths.obj
 0001:0019c200       ?Auths_RemoveAllAccAuthfiles@@YAHPAUAccount_s@@@Z 2019d200 f   Lmd_Commands_Auths.obj
 0001:0019c260       ?Auths_RemoveAllDataEntries@@YAXPAUauthFileDataList_s@@@Z 2019d260 f   Lmd_Commands_Auths.obj
 0001:0019c2a0       ?Auths_RemoveAutoAuthfiles@@YAXPAUauthFileDataList_s@@@Z 2019d2a0 f   Lmd_Commands_Auths.obj
 0001:0019c320       ?Auths_RemoveDataEntry@@YAHPAUauthFileDataList_s@@PAUauthFile_s@@@Z 2019d320 f   Lmd_Commands_Auths.obj
 0001:0019c3c0       ?Auths_RemoveTempAdmin@@YAHPAUgentity_s@@PAD@Z 2019d3c0 f   Lmd_Commands_Auths.obj
 0001:0019c450       ?Auths_RemoveTempAuthfile@@YAHPAUgentity_s@@PAUauthFile_s@@@Z 2019d450 f   Lmd_Commands_Auths.obj
 0001:0019c4d0       ?Auths_Shutdown@@YAXXZ     2019d4d0 f   Lmd_Commands_Auths.obj
 0001:0019c560       ?Auths_UnallocFile@@YAXPAUauthFile_s@@@Z 2019d560 f   Lmd_Commands_Auths.obj
 0001:0019c600       ?Auths_WriteTempAdminSess@@YAXPAUgclient_s@@@Z 2019d600 f   Lmd_Commands_Auths.obj
 0001:0019c7c0       ?Cmd_GrantAdmin_ListAuths@@YAXPAUgentity_s@@PAUAccount_s@@@Z 2019d7c0 f   Lmd_Commands_Auths.obj
 0001:0019c8a0       ?Cmd_GrantAdmin_ShowAvailableAuthfiles@@YAXPAUgentity_s@@@Z 2019d8a0 f   Lmd_Commands_Auths.obj
 0001:0019c990       ?Cmd_GrantTempAdmin_ListAuths@@YAXPAUgentity_s@@0@Z 2019d990 f   Lmd_Commands_Auths.obj
 0001:0019ca60       ?Cmd_MyAuths_DispList@@YAXPAUgentity_s@@PAUauthFileDataList_s@@@Z 2019da60 f   Lmd_Commands_Auths.obj
 0001:0019cb60       ?Cmd_Anims_f@@YAXPAUgentity_s@@H@Z 2019db60 f   Lmd_Commands_Cheats.obj
 0001:0019d000       ?Cmd_BecomeKing_f@@YAXPAUgentity_s@@H@Z 2019e000 f   Lmd_Commands_Cheats.obj
 0001:0019d0a0       ?Cmd_BotWPRender_f@@YAXPAUgentity_s@@H@Z 2019e0a0 f   Lmd_Commands_Cheats.obj
 0001:0019d130       ?Cmd_Dragon_f@@YAXPAUgentity_s@@H@Z 2019e130 f   Lmd_Commands_Cheats.obj
 0001:0019d400       ?Cmd_Drop_f@@YAXPAUgentity_s@@H@Z 2019e400 f   Lmd_Commands_Cheats.obj
 0001:0019d4c0       ?Cmd_DataFlag_f@@YAXPAUgentity_s@@H@Z 2019e4c0 f   Lmd_Commands_Cheats.obj
 0001:0019d5e0       ?Cmd_Gravity_f@@YAXPAUgentity_s@@H@Z 2019e5e0 f   Lmd_Commands_Cheats.obj
 0001:0019d890       ?Cmd_Invisible_f@@YAXPAUgentity_s@@H@Z 2019e890 f   Lmd_Commands_Cheats.obj
 0001:0019da00       ?Cmd_KillOther_f@@YAXPAUgentity_s@@H@Z 2019ea00 f   Lmd_Commands_Cheats.obj
 0001:0019e1c0       ?Cmd_Noclip_f@@YAXPAUgentity_s@@H@Z 2019f1c0 f   Lmd_Commands_Cheats.obj
 0001:0019e2b0       ?Cmd_PlayFX_f@@YAXPAUgentity_s@@H@Z 2019f2b0 f   Lmd_Commands_Cheats.obj
 0001:0019e320       ?Cmd_PlayMusic_f@@YAXPAUgentity_s@@H@Z 2019f320 f   Lmd_Commands_Cheats.obj
 0001:0019e360       ?Cmd_PlaySnd_f@@YAXPAUgentity_s@@H@Z 2019f360 f   Lmd_Commands_Cheats.obj
 0001:0019e3b0       ?Cmd_Powerup_f@@YAXPAUgentity_s@@H@Z 2019f3b0 f   Lmd_Commands_Cheats.obj
 0001:0019e4c0       ?Cmd_Scale_f@@YAXPAUgentity_s@@H@Z 2019f4c0 f   Lmd_Commands_Cheats.obj
 0001:0019e6b0       ?Cmd_Shield_f@@YAXPAUgentity_s@@H@Z 2019f6b0 f   Lmd_Commands_Cheats.obj
 0001:0019e7d0       ?Cmd_ShowHealth_f@@YAXPAUgentity_s@@H@Z 2019f7d0 f   Lmd_Commands_Cheats.obj
 0001:0019e8d0       ?Cmd_Speed_f@@YAXPAUgentity_s@@H@Z 2019f8d0 f   Lmd_Commands_Cheats.obj
 0001:0019eb80       ?Cmd_HidePing_f@@YAXPAUgentity_s@@H@Z 2019fb80 f   Lmd_Commands_Cheats.obj
 0001:0019ec90       ?Cmd_FakeIP_f@@YAXPAUgentity_s@@H@Z 2019fc90 f   Lmd_Commands_Cheats.obj
 0001:0019ed10       ?Cmd_Help_ListCategories@@YAXPAUgentity_s@@@Z 2019fd10 f   Lmd_Commands_Core.obj
 0001:0019edb0       ?Cmd_Help_ListCmds@@YAHPAUgentity_s@@PAUcmdCategory_s@@@Z 2019fdb0 f   Lmd_Commands_Core.obj
 0001:0019ee80       ?Cmd_Help_ShowCmd@@YAXPAUgentity_s@@PAUauthCmdEntry_s@@@Z 2019fe80 f   Lmd_Commands_Core.obj
 0001:0019ef60       ?Cmd_Help_f@@YAXPAUgentity_s@@@Z 2019ff60 f   Lmd_Commands_Core.obj
 0001:0019f0f0       ?Commands_GetCategory@@YAPAUcmdCategory_s@@PBD@Z 201a00f0 f   Lmd_Commands_Core.obj
 0001:0019f150       ?Commands_GetEntry@@YAPAUcmdEntry_s@@PBD@Z 201a0150 f   Lmd_Commands_Core.obj
 0001:0019f1d0       ?Commands_Init@@YAXXZ      201a01d0 f   Lmd_Commands_Core.obj
 0001:0019f240       ?Commands_PlayerCanUseCommand@@YAHPAUgentity_s@@PAUcmdEntry_s@@@Z 201a0240 f   Lmd_Commands_Core.obj
 0001:0019f340       ?Commands_PlayerHasCatgory@@YAHPAUgentity_s@@PAUcmdCategory_s@@@Z 201a0340 f   Lmd_Commands_Core.obj
 0001:0019f3c0       ?Commands_TryUse@@YAHPAUgentity_s@@PAUcmdEntry_s@@@Z 201a03c0 f   Lmd_Commands_Core.obj
 0001:0019f460       ?Lmd_Command@@YAHPAUgentity_s@@PBD@Z 201a0460 f   Lmd_Commands_Core.obj
 0001:0019f6b0       ?lmdCmd_NPC_f@@YAXPAUgentity_s@@H@Z 201a06b0 f   Lmd_Commands_NPC.obj
 0001:0019f6e0       ?Cmd_NpcBehavior_f@@YAXPAUgentity_s@@H@Z 201a06e0 f   Lmd_Commands_NPC.obj
 0001:0019f920       ?Cmd_NpcClear_f@@YAXPAUgentity_s@@H@Z 201a0920 f   Lmd_Commands_NPC.obj
 0001:0019fad0       ?Cmd_NpcFollow_f@@YAXPAUgentity_s@@H@Z 201a0ad0 f   Lmd_Commands_NPC.obj
 0001:0019fbd0       ?Cmd_NpcTeam_f@@YAXPAUgentity_s@@H@Z 201a0bd0 f   Lmd_Commands_NPC.obj
 0001:0019fe10       ?Cmd_SetGoal_f@@YAXPAUgentity_s@@H@Z 201a0e10 f   Lmd_Commands_NPC.obj
 0001:001a00e0       ?Cmd_SpawnVehicle_f@@YAXPAUgentity_s@@H@Z 201a10e0 f   Lmd_Commands_NPC.obj
 0001:001a0160       ?Disp@@YAXPAUgentity_s@@PBD@Z 201a1160 f   Lmd_Console.obj
 0001:001a0300       ?DispContiguous@@YAXPAUgentity_s@@PBD@Z 201a1300 f   Lmd_Console.obj
 0001:001a0450       ?DisableCoreDump@@YAXXZ    201a1450 f   Lmd_CrashReport.obj
 0001:001a0470       ?DisableStackTrace@@YAXXZ  201a1470 f   Lmd_CrashReport.obj
 0001:001a0490       ?EnableCoreDumps@@YAXXZ    201a1490 f   Lmd_CrashReport.obj
 0001:001a04b0       ?EnableStackTrace@@YAXXZ   201a14b0 f   Lmd_CrashReport.obj
 0001:001a04d0       ?EnumModules@@YGHPADKPAX@Z 201a14d0 f   Lmd_CrashReport.obj
 0001:001a0510       ?ExceptionName@@YAPADK@Z   201a1510 f   Lmd_CrashReport.obj
 0001:001a0880       ?win32_backtrace@@YAXPAU_EXCEPTION_POINTERS@@@Z 201a1880 f   Lmd_CrashReport.obj
 0001:001a0b70       ?win32_deinitialize_handler@@YAXXZ 201a1b70 f   Lmd_CrashReport.obj
 0001:001a0c00       ?win32_dllinfo@@YAXXZ      201a1c00 f   Lmd_CrashReport.obj
 0001:001a0c40       ?win32_exception_handler@@YGJPAU_EXCEPTION_POINTERS@@@Z 201a1c40 f   Lmd_CrashReport.obj
 0001:001a0e50       ?win32_exceptioninfo@@YAXPAU_EXCEPTION_POINTERS@@@Z 201a1e50 f   Lmd_CrashReport.obj
 0001:001a0eb0       ?win32_initialize_handler@@YAXXZ 201a1eb0 f   Lmd_CrashReport.obj
 0001:001a1040       ?DropCredits@@YAHPAUgentity_s@@H@Z 201a2040 f   Lmd_Credits.obj
 0001:001a1340       ?GiveCredits@@YAXPAUgentity_s@@HPAD@Z 201a2340 f   Lmd_Credits.obj
 0001:001a1490       ?GiveExperience@@YAXPAUgentity_s@@HPAD@Z 201a2490 f   Lmd_Credits.obj
 0001:001a1640       ?GiveLootboxes@@YAXPAUgentity_s@@HPAD@Z 201a2640 f   Lmd_Credits.obj
 0001:001a1790       ?GiveSkillPoints_Bonus@@YAXPAUgentity_s@@MPAD@Z 201a2790 f   Lmd_Credits.obj
 0001:001a1920       ?Touch_Credits@@YAXPAUgentity_s@@0PAUtrace_t@@@Z 201a2920 f   Lmd_Credits.obj
 0001:001a1b40       ?creditsByTime@@YAXPAUgentity_s@@H@Z 201a2b40 f   Lmd_Credits.obj
 0001:001a1c70       ?recallDroppedCredits@@YAHPAUgentity_s@@@Z 201a2c70 f   Lmd_Credits.obj
 0001:001a1d40       ?SP_money_dispenser@@YAXPAUgentity_s@@@Z 201a2d40 f   Lmd_Creditshunt.obj
 0001:001a2200       ?SP_money_stash@@YAXPAUgentity_s@@@Z 201a3200 f   Lmd_Creditshunt.obj
 0001:001a25c0       ?StashHolder@@YAHXZ        201a35c0 f   Lmd_Creditshunt.obj
 0001:001a2650       ?TryStashGuide@@YAXPAUgentity_s@@@Z 201a3650 f   Lmd_Creditshunt.obj
 0001:001a2c50       ?depositMoneyStash@@YAXPAUgentity_s@@@Z 201a3c50 f   Lmd_Creditshunt.obj
 0001:001a2e80       ?dropMoneyStash_Old@@YAXPAUgentity_s@@@Z 201a3e80 f   Lmd_Creditshunt.obj
 0001:001a30a0       ?make_money_stash@@YAXXZ   201a40a0 f   Lmd_Creditshunt.obj
 0001:001a31a0       ?moneyDisps@@YAHXZ         201a41a0 f   Lmd_Creditshunt.obj
 0001:001a3250       ?money_dispenser_think@@YAXPAUgentity_s@@@Z 201a4250 f   Lmd_Creditshunt.obj
 0001:001a32e0       ?money_dispenser_use@@YAXPAUgentity_s@@00@Z 201a42e0 f   Lmd_Creditshunt.obj
 0001:001a3900       ?money_stash_think@@YAXPAUgentity_s@@@Z 201a4900 f   Lmd_Creditshunt.obj
 0001:001a3ae0       ?money_stash_touch@@YAXPAUgentity_s@@0PAUtrace_t@@@Z 201a4ae0 f   Lmd_Creditshunt.obj
 0001:001a4040       ?resetStash@@YAXXZ         201a5040 f   Lmd_Creditshunt.obj
 0001:001a4110       ?thereIsAMoneyStash@@YAHXZ 201a5110 f   Lmd_Creditshunt.obj
 0001:001a41b0       ?zone_think@@YAXPAUgentity_s@@@Z 201a51b0 f   Lmd_Creditshunt.obj
 0001:001a4280       ?Lmd_Data_AllocFileContents@@YAPADPAD@Z 201a5280 f   Lmd_Data.obj
 0001:001a4330       ?Lmd_Data_AutoFieldCallback_Free@@YAXPAX0@Z 201a5330 f   Lmd_Data.obj
 0001:001a4370       ?Lmd_Data_AutoFieldCallback_Parse@@YAHPAD0PAX1@Z 201a5370 f   Lmd_Data.obj
 0001:001a4440       ?Lmd_Data_AutoFieldCallback_Write@@YA?AW4DataWriteResult_t@@PAXQADH1HPAPAX0@Z 201a5440 f   Lmd_Data.obj
 0001:001a44e0       ?Lmd_Data_DeleteFile@@YAHPAD0@Z 201a54e0 f   Lmd_Data.obj
 0001:001a4650       ?Lmd_Data_FreeFields@@YAXPAXQBUDataField_s@@H@Z 201a5650 f   Lmd_Data.obj
 0001:001a46d0       ?Lmd_Data_GetDataPath@@YAPADPAD0H@Z 201a56d0 f   Lmd_Data.obj
 0001:001a4740       ?Lmd_Data_IsCleanPath@@YAHPAD@Z 201a5740 f   Lmd_Data.obj
 0001:001a4800       ?Lmd_Data_MatchField@@YAHPADPBUDataField_s@@HH@Z 201a5800 f   Lmd_Data.obj
 0001:001a48e0       ?Lmd_Data_OpenDataFile@@YAHPAD0W4fsMode_t@@@Z 201a58e0 f   Lmd_Data.obj
 0001:001a49c0       ?Lmd_Data_ParseDatastring@@YAIPAPADP6AHPAEHPAD2@ZPAUBG_field_t@@1@Z 201a59c0 f   Lmd_Data.obj
 0001:001a4b70       ?Lmd_Data_ParseFields_Callback@@YAHPAD0PAX@Z 201a5b70 f   Lmd_Data.obj
 0001:001a4c40       ?Lmd_Data_ParseFields_Old@@YAIPAPADHP6AHPAEHPAD2@ZPAUBG_field_t@@1@Z 201a5c40 f   Lmd_Data.obj
 0001:001a4c90       ?Lmd_Data_ParseKeys_Old@@YAIPAPADHP6AHPAD1PAX@Z2@Z 201a5c90 f   Lmd_Data.obj
 0001:001a4eb0       ?Lmd_Data_Parse_KeyValuePair@@YAHPAD0PAXQBUDataField_s@@H@Z 201a5eb0 f   Lmd_Data.obj
 0001:001a4f60       ?Lmd_Data_Parse_LineDelimited@@YAHPAPADPAXQBUDataField_s@@H@Z 201a5f60 f   Lmd_Data.obj
 0001:001a5130       ?Lmd_Data_ProcessFile@@YAIPAD0P6AH00@Z@Z 201a6130 f   Lmd_Data.obj
 0001:001a52d0       ?Lmd_Data_ProcessFiles@@YAIPAD0P6AH00@ZH0@Z 201a62d0 f   Lmd_Data.obj
 0001:001a5400       ?Lmd_Data_SaveDatafile@@YAHPAD0PAUBG_field_t@@PAEP6AH200H@ZP6APAUDBSaveFileCallbackReturn_t@@2PAU2@0H0H@Z@Z 201a6400 f   Lmd_Data.obj
 0001:001a5810       ?Lmd_Data_WriteDatafileField@@YAHPAUBG_field_t@@PADIPAE@Z 201a6810 f   Lmd_Data.obj
 0001:001a5950       ?Lmd_Data_WriteDatastringField@@YAHPAUBG_field_t@@PADIPAE@Z 201a6950 f   Lmd_Data.obj
 0001:001a5a90       ?Lmd_Data_WriteToFile_LinesDelimited@@YAHHQBUDataField_s@@HPAX@Z 201a6a90 f   Lmd_Data.obj
 0001:001a5ce0       ?Lmd_Data_isFileValid@@YA_NPAD0@Z 201a6ce0 f   Lmd_Data.obj
 0001:001a5de0       _snprintf                  201a6de0 f i Lmd_Data.obj
 0001:001a5e30       _vsnprintf                 201a6e30 f i Lmd_Data.obj
 0001:001a5ea0       ?Cmd_Bounds_f@@YAXPAUgentity_s@@H@Z 201a6ea0 f   Lmd_Entities_Commands.obj
 0001:001a6a50       ?Cmd_BlowUp_f@@YAXPAUgentity_s@@H@Z 201a7a50 f   Lmd_Entities_Commands.obj
 0001:001a6b50       ?Cmd_DelAll_f@@YAXPAUgentity_s@@H@Z 201a7b50 f   Lmd_Entities_Commands.obj
 0001:001a6d90       ?Cmd_Delent_f@@YAXPAUgentity_s@@H@Z 201a7d90 f   Lmd_Entities_Commands.obj
 0001:001a6fa0       ?Cmd_DisableEnt_f@@YAXPAUgentity_s@@H@Z 201a7fa0 f   Lmd_Entities_Commands.obj
 0001:001a71b0       ?Cmd_Entitylist_f@@YAXPAUgentity_s@@H@Z 201a81b0 f   Lmd_Entities_Commands.obj
 0001:001a7580       ?Cmd_GetEnt_f@@YAXPAUgentity_s@@H@Z 201a8580 f   Lmd_Entities_Commands.obj
 0001:001a7d80       ?Cmd_PlayerSpawnPoint_f@@YAXPAUgentity_s@@H@Z 201a8d80 f   Lmd_Entities_Commands.obj
 0001:001a7f40       ?Cmd_Mapents_f@@YAXPAUgentity_s@@H@Z 201a8f40 f   Lmd_Entities_Commands.obj
 0001:001a8320       ?Cmd_Nearby_f@@YAXPAUgentity_s@@H@Z 201a9320 f   Lmd_Entities_Commands.obj
 0001:001a85a0       ?Cmd_NewMap_f@@YAXPAUgentity_s@@H@Z 201a95a0 f   Lmd_Entities_Commands.obj
 0001:001a8600       ?Cmd_NextMap_f@@YAXPAUgentity_s@@H@Z 201a9600 f   Lmd_Entities_Commands.obj
 0001:001a8630       ?Cmd_Nudge_f@@YAXPAUgentity_s@@H@Z 201a9630 f   Lmd_Entities_Commands.obj
 0001:001a8bb0       ?Cmd_Place_f@@YAXPAUgentity_s@@H@Z 201a9bb0 f   Lmd_Entities_Commands.obj
 0001:001a9780       ?Cmd_PlaceCannon_f@@YAXPAUgentity_s@@H@Z 201aa780 f   Lmd_Entities_Commands.obj
 0001:001a97b0       ?Cmd_PlaceRandomSpot_f@@YAXPAUgentity_s@@H@Z 201aa7b0 f   Lmd_Entities_Commands.obj
 0001:001a98b0       ?Cmd_Remap_f@@YAXPAUgentity_s@@H@Z 201aa8b0 f   Lmd_Entities_Commands.obj
 0001:001a9bb0       ?Cmd_ShowEntities_f@@YAXPAUgentity_s@@H@Z 201aabb0 f   Lmd_Entities_Commands.obj
 0001:001a9df0       ?Cmd_Spawnstring_f@@YAXPAUgentity_s@@H@Z 201aadf0 f   Lmd_Entities_Commands.obj
 0001:001aa580       ?Cmd_Trace_f@@YAXPAUgentity_s@@H@Z 201ab580 f   Lmd_Entities_Commands.obj
 0001:001aa6f0       ?Cmd_UseEnt_f@@YAXPAUgentity_s@@H@Z 201ab6f0 f   Lmd_Entities_Commands.obj
 0001:001aa970       ?Action_UndoDelete@@YAHPAUgentity_s@@PAUAction_s@@@Z 201ab970 f   Lmd_Entities_Commands.obj
 0001:001aab10       ?Action_UndoPlace@@YAHPAUgentity_s@@PAUAction_s@@@Z 201abb10 f   Lmd_Entities_Commands.obj
 0001:001aae30       ?BlowUpEntity@@YAXPAUgentity_s@@@Z 201abe30 f   Lmd_Entities_Commands.obj
 0001:001ab020       ?Cmd_DelAll_Confirm@@YAXPAUgentity_s@@PAX@Z 201ac020 f   Lmd_Entities_Commands.obj
 0001:001ab100       ?DiagnoseBuilding@@YAXPAUgentity_s@@@Z 201ac100 f   Lmd_Entities_Commands.obj
 0001:001ab120       ?EntityMatches@@YAHPAUgentity_s@@PAD1H@Z 201ac120 f   Lmd_Entities_Commands.obj
 0001:001ab1f0       ?FormattedEntString@@YAPADPAUgentity_s@@@Z 201ac1f0 f   Lmd_Entities_Commands.obj
 0001:001ab300       ?dispEntityInfo@@YAXPAUgentity_s@@0@Z 201ac300 f   Lmd_Entities_Commands.obj
 0001:001abbf0       ?placeinfront@@YAXPAUgentity_s@@PBD@Z 201acbf0 f   Lmd_Entities_Commands.obj
 0001:001abea0       ?EntitiesInBox@@YAHQBM0PAHHH@Z 201acea0 f   Lmd_Entities_Core.obj
 0001:001abf70       ?G_Find@@YAPAUgentity_s@@PAU1@HPBD@Z 201acf70 f   Lmd_Entities_Core.obj
 0001:001abff0       ?G_InitGentity@@YAXPAUgentity_s@@@Z 201acff0 f   Lmd_Entities_Core.obj
 0001:001ac0e0       ?G_RadiusList@@YAHQAMMPAUgentity_s@@HQAPAU1@H@Z 201ad0e0 f   Lmd_Entities_Core.obj
 0001:001ac620       ?GetEnt@@YAPAUgentity_s@@H@Z 201ad620 f   Lmd_Entities_Core.obj
 0001:001ac680       ?IterateEnts@@YAPAUgentity_s@@PAU1@@Z 201ad680 f i Lmd_Entities_Core.obj
 0001:001ac930       ?CheckRestrictAll@@YAXPAUgentity_s@@@Z 201ad930 f   Lmd_Entities_Ents.obj
 0001:001aca90       ?FakeBodyThink@@YAXPAUgentity_s@@@Z 201ada90 f   Lmd_Entities_Ents.obj
 0001:001acbc0       ?FixBox@@YAXQAM00@Z        201adbc0 f   Lmd_Entities_Ents.obj
 0001:001ad4c0       ?G_FindEntityTeam@@YAHPAUgentity_s@@@Z 201ae4c0 f   Lmd_Entities_Ents.obj
 0001:001ad700       ?PlayerUsableGetKeys@@YAXPAUgentity_s@@@Z 201ae700 f   Lmd_Entities_Ents.obj
 0001:001ad870       ?PlayerUseableCheck@@YAHPAUgentity_s@@0@Z 201ae870 f   Lmd_Entities_Ents.obj
 0001:001adc50       ?SpawnEntModel@@YAHPAUgentity_s@@HH@Z 201aec50 f   Lmd_Entities_Ents.obj
 0001:001ae440       ?Use_lmd_gravity@@YAXPAUgentity_s@@00@Z 201af440 f   Lmd_Entities_Ents.obj
 0001:001ae5a0       ?Use_lmd_speed@@YAXPAUgentity_s@@00@Z 201af5a0 f   Lmd_Entities_Ents.obj
 0001:001ae870       ?animate_model@@YAXPAUgentity_s@@@Z 201af870 f   Lmd_Entities_Ents.obj
 0001:001ae970       ?attachPlayerToBody@@YAPAUgentity_s@@PAU1@@Z 201af970 f   Lmd_Entities_Ents.obj
 0001:001ae9f0       ?fixpath@@YAPADPAD@Z       201af9f0 f   Lmd_Entities_Ents.obj
 0001:001aeb10       ?lmd_body@@YAXPAUgentity_s@@@Z 201afb10 f   Lmd_Entities_Ents.obj
 0001:001aeb40       ?lmd_body_think@@YAXPAUgentity_s@@@Z 201afb40 f   Lmd_Entities_Ents.obj
 0001:001aec70       ?lmd_chance@@YAXPAUgentity_s@@@Z 201afc70 f   Lmd_Entities_Ents.obj
 0001:001aeda0       ?lmd_chance_use@@YAXPAUgentity_s@@00@Z 201afda0 f   Lmd_Entities_Ents.obj
 0001:001aef10       ?lmd_countcheck@@YAXPAUgentity_s@@@Z 201aff10 f   Lmd_Entities_Ents.obj
 0001:001aeff0       ?lmd_countcheck_use@@YAXPAUgentity_s@@00@Z 201afff0 f   Lmd_Entities_Ents.obj
 0001:001af410       ?lmd_cskill_compare@@YAXPAUgentity_s@@@Z 201b0410 f   Lmd_Entities_Ents.obj
 0001:001af4a0       ?lmd_cskill_compare_use@@YAXPAUgentity_s@@00@Z 201b04a0 f   Lmd_Entities_Ents.obj
 0001:001af610       ?lmd_customskill@@YAXPAUgentity_s@@@Z 201b0610 f   Lmd_Entities_Ents.obj
 0001:001af6b0       ?lmd_customskill_use@@YAXPAUgentity_s@@00@Z 201b06b0 f   Lmd_Entities_Ents.obj
 0001:001af7d0       ?lmd_door@@YAXPAUgentity_s@@@Z 201b07d0 f   Lmd_Entities_Ents.obj
 0001:001b00a0       ?lmd_drop@@YAXPAUgentity_s@@@Z 201b10a0 f   Lmd_Entities_Ents.obj
 0001:001b02e0       ?lmd_drop_object_think@@YAXPAUgentity_s@@@Z 201b12e0 f   Lmd_Entities_Ents.obj
 0001:001b0370       ?lmd_drop_object_touch@@YAXPAUgentity_s@@0PAUtrace_t@@@Z 201b1370 f   Lmd_Entities_Ents.obj
 0001:001b03a0       ?lmd_drop_object_trypickup@@YAXPAUgentity_s@@0@Z 201b13a0 f   Lmd_Entities_Ents.obj
 0001:001b05e0       ?lmd_drop_object_use@@YAXPAUgentity_s@@00@Z 201b15e0 f   Lmd_Entities_Ents.obj
 0001:001b0610       ?lmd_drop_use@@YAXPAUgentity_s@@00@Z 201b1610 f   Lmd_Entities_Ents.obj
 0001:001b0f60       ?lmd_event@@YAXPAUgentity_s@@@Z 201b1f60 f   Lmd_Entities_Ents.obj
 0001:001b10c0       ?lmd_event_playerhurt@@YAXPAUgentity_s@@0@Z 201b20c0 f   Lmd_Entities_Ents.obj
 0001:001b10e0       ?lmd_event_playerkilled@@YAXPAUgentity_s@@0H@Z 201b20e0 f   Lmd_Entities_Ents.obj
 0001:001b12c0       ?lmd_event_think@@YAXPAUgentity_s@@@Z 201b22c0 f   Lmd_Entities_Ents.obj
 0001:001b1720       ?lmd_flagplayer@@YAXPAUgentity_s@@@Z 201b2720 f   Lmd_Entities_Ents.obj
 0001:001b1780       ?lmd_flagplayer_use@@YAXPAUgentity_s@@00@Z 201b2780 f   Lmd_Entities_Ents.obj
 0001:001b1820       ?lmd_gate@@YAXPAUgentity_s@@@Z 201b2820 f   Lmd_Entities_Ents.obj
 0001:001b1880       ?lmd_gate_use@@YAXPAUgentity_s@@00@Z 201b2880 f   Lmd_Entities_Ents.obj
 0001:001b18e0       ?lmd_gravity@@YAXPAUgentity_s@@@Z 201b28e0 f   Lmd_Entities_Ents.obj
 0001:001b1a00       ?lmd_interact@@YAXPAUgentity_s@@@Z 201b2a00 f   Lmd_Entities_Ents.obj
 0001:001b1e00       ?lmd_interact_interact@@YAXPAUgentity_s@@0@Z 201b2e00 f   Lmd_Entities_Ents.obj
 0001:001b20a0       ?lmd_interact_use@@YAXPAUgentity_s@@00@Z 201b30a0 f   Lmd_Entities_Ents.obj
 0001:001b20f0       ?lmd_iobject@@YAXPAUgentity_s@@@Z 201b30f0 f   Lmd_Entities_Ents.obj
 0001:001b21a0       ?lmd_iobject_use@@YAXPAUgentity_s@@00@Z 201b31a0 f   Lmd_Entities_Ents.obj
 0001:001b21f0       ?lmd_iterateplayers@@YAXPAUgentity_s@@@Z 201b31f0 f   Lmd_Entities_Ents.obj
 0001:001b22d0       ?lmd_iterateplayers_use@@YAXPAUgentity_s@@00@Z 201b32d0 f   Lmd_Entities_Ents.obj
 0001:001b26a0       ?lmd_light@@YAXPAUgentity_s@@@Z 201b36a0 f   Lmd_Entities_Ents.obj
 0001:001b29a0       ?lmd_mover@@YAXPAUgentity_s@@@Z 201b39a0 f   Lmd_Entities_Ents.obj
 0001:001b3070       ?lmd_playercheck@@YAXPAUgentity_s@@@Z 201b4070 f   Lmd_Entities_Ents.obj
 0001:001b30b0       ?lmd_playercheck_use@@YAXPAUgentity_s@@00@Z 201b40b0 f   Lmd_Entities_Ents.obj
 0001:001b3120       ?lmd_playereffect@@YAXPAUgentity_s@@@Z 201b4120 f   Lmd_Entities_Ents.obj
 0001:001b31d0       ?lmd_playereffect_use@@YAXPAUgentity_s@@00@Z 201b41d0 f   Lmd_Entities_Ents.obj
 0001:001b3530       ?lmd_pwterminal@@YAXPAUgentity_s@@@Z 201b4530 f   Lmd_Entities_Ents.obj
 0001:001b38f0       ?lmd_pwterminal_interact@@YAXPAUgentity_s@@0@Z 201b48f0 f   Lmd_Entities_Ents.obj
 0001:001b3a20       ?lmd_pwterminal_use@@YAXPAUgentity_s@@00@Z 201b4a20 f   Lmd_Entities_Ents.obj
 0001:001b3ab0       ?lmd_remap@@YAXPAUgentity_s@@@Z 201b4ab0 f   Lmd_Entities_Ents.obj
 0001:001b3c20       ?lmd_rentterminal@@YAXPAUgentity_s@@@Z 201b4c20 f   Lmd_Entities_Ents.obj
 0001:001b3df0       ?lmd_rentterminal_examine@@YAXPAUgentity_s@@0@Z 201b4df0 f   Lmd_Entities_Ents.obj
 0001:001b4750       ?lmd_rentterminal_pay@@YAHPAUgentity_s@@H0@Z 201b5750 f   Lmd_Entities_Ents.obj
 0001:001b4ff0       ?lmd_rentterminal_think@@YAXPAUgentity_s@@@Z 201b5ff0 f   Lmd_Entities_Ents.obj
 0001:001b5380       ?lmd_rentterminal_use@@YAXPAUgentity_s@@00@Z 201b6380 f   Lmd_Entities_Ents.obj
 0001:001b5580       ?lmd_restrict@@YAXPAUgentity_s@@@Z 201b6580 f   Lmd_Entities_Ents.obj
 0001:001b5680       ?lmd_scale@@YAXPAUgentity_s@@@Z 201b6680 f   Lmd_Entities_Ents.obj
 0001:001b5770       ?lmd_scale_use@@YAXPAUgentity_s@@00@Z 201b6770 f   Lmd_Entities_Ents.obj
 0001:001b5810       ?lmd_speed@@YAXPAUgentity_s@@@Z 201b6810 f   Lmd_Entities_Ents.obj
 0001:001b58d0       ?lmd_terminal@@YAXPAUgentity_s@@@Z 201b68d0 f   Lmd_Entities_Ents.obj
 0001:001b5b80       ?lmd_terminal_interact@@YAXPAUgentity_s@@0@Z 201b6b80 f   Lmd_Entities_Ents.obj
 0001:001b5e30       ?lmd_terminal_use@@YAXPAUgentity_s@@00@Z 201b6e30 f   Lmd_Entities_Ents.obj
 0001:001b60c0       ?lmd_toggle@@YAXPAUgentity_s@@@Z 201b70c0 f   Lmd_Entities_Ents.obj
 0001:001b61b0       ?lmd_train@@YAXPAUgentity_s@@@Z 201b71b0 f   Lmd_Entities_Ents.obj
 0001:001b63e0       ?makeFakeBody@@YAPAUgentity_s@@PAU1@@Z 201b73e0 f   Lmd_Entities_Ents.obj
 0001:001b6ee0       ?removePlayerFromBody@@YAXPAUgentity_s@@@Z 201b7ee0 f   Lmd_Entities_Ents.obj
 0001:001b6f90       ?reset_lmd_gravity@@YAXPAUgentity_s@@@Z 201b7f90 f   Lmd_Entities_Ents.obj
 0001:001b6fe0       ?reset_lmd_speed@@YAXPAUgentity_s@@@Z 201b7fe0 f   Lmd_Entities_Ents.obj
 0001:001b7030       ?sp_target_animate@@YAXPAUgentity_s@@@Z 201b8030 f   Lmd_Entities_Ents.obj
 0001:001b7130       ?sp_target_heal@@YAXPAUgentity_s@@@Z 201b8130 f   Lmd_Entities_Ents.obj
 0001:001b71c0       ?sp_target_modify@@YAXPAUgentity_s@@@Z 201b81c0 f   Lmd_Entities_Ents.obj
 0001:001b7230       ?target_animate_use@@YAXPAUgentity_s@@00@Z 201b8230 f   Lmd_Entities_Ents.obj
 0001:001b73c0       ?target_heal_use@@YAXPAUgentity_s@@00@Z 201b83c0 f   Lmd_Entities_Ents.obj
 0001:001b76c0       ?target_modify_use@@YAXPAUgentity_s@@00@Z 201b86c0 f   Lmd_Entities_Ents.obj
 0001:001b77d0       ?use_lmd_body@@YAXPAUgentity_s@@00@Z 201b87d0 f   Lmd_Entities_Ents.obj
 0001:001b7a80       ?use_lmd_light@@YAXPAUgentity_s@@00@Z 201b8a80 f   Lmd_Entities_Ents.obj
 0001:001b7b00       ?use_lmd_mover@@YAXPAUgentity_s@@00@Z 201b8b00 f   Lmd_Entities_Ents.obj
 0001:001b7dd0       ?use_lmd_remap@@YAXPAUgentity_s@@00@Z 201b8dd0 f   Lmd_Entities_Ents.obj
 0001:001b7ed0       ?use_lmd_toggle@@YAXPAUgentity_s@@00@Z 201b8ed0 f   Lmd_Entities_Ents.obj
 0001:001b8090       ?Cmd_ImportGroup_f@@YAXPAUgentity_s@@H@Z 201b9090 f   Lmd_Entities_Groups.obj
 0001:001b8450       ?Cmd_SaveGroup_f@@YAXPAUgentity_s@@H@Z 201b9450 f   Lmd_Entities_Groups.obj
 0001:001b8670       ?Cmd_ManipGroupVec_f@@YAXPAUgentity_s@@H@Z 201b9670 f   Lmd_Entities_Groups.obj
 0001:001b8a40       ?Cmd_DeleteGroup_f@@YAXPAUgentity_s@@H@Z 201b9a40 f   Lmd_Entities_Groups.obj
 0001:001b8b60       ?Cmd_DeleteGroup_Confirm@@YAXPAUgentity_s@@PAX@Z 201b9b60 f   Lmd_Entities_Groups.obj
 0001:001b8c20       ?Cmd_SaveGroup_Confirm@@YAXPAUgentity_s@@PAX@Z 201b9c20 f   Lmd_Entities_Groups.obj
 0001:001b8cc0       ?GroupPath@@YAPADXZ        201b9cc0 f   Lmd_Entities_Groups.obj
 0001:001b8d10       ?Group_Center@@YAIPADHQAMH@Z 201b9d10 f   Lmd_Entities_Groups.obj
 0001:001b9050       ?Group_Count@@YAIPADH@Z    201ba050 f   Lmd_Entities_Groups.obj
 0001:001b90d0       ?Groups_ImportFile@@YAHPAD0QAMPAUgentity_s@@@Z 201ba0d0 f   Lmd_Entities_Groups.obj
 0001:001b9480       ?Groups_Modify@@YAXPADP6AXPAUSpawnData_s@@PAX@Z2PAUgentity_s@@@Z 201ba480 f   Lmd_Entities_Groups.obj
 0001:001b97a0       ?Groups_NudgeModifier@@YAXPAUSpawnData_s@@PAX@Z 201ba7a0 f   Lmd_Entities_Groups.obj
 0001:001b99c0       ?Groups_RotateModifier@@YAXPAUSpawnData_s@@PAX@Z 201ba9c0 f   Lmd_Entities_Groups.obj
 0001:001ba040       ?Groups_SaveFile@@YAHPAD0@Z 201bb040 f   Lmd_Entities_Groups.obj
 0001:001ba3d0       ?Lmd_logic_count@@YAHXZ    201bb3d0 f   Lmd_Entities_Logical.obj
 0001:001ba3f0       ?Lmd_logic_entity@@YAPAUgentity_s@@H@Z 201bb3f0 f   Lmd_Entities_Logical.obj
 0001:001ba430       ?Lmd_logic_entityindex@@YAHPAUgentity_s@@@Z 201bb430 f   Lmd_Entities_Logical.obj
 0001:001ba490       ?Lmd_logic_spawn@@YAPAUgentity_s@@XZ 201bb490 f   Lmd_Entities_Logical.obj
 0001:001ba540       ?Lmd_logic_think@@YAXXZ    201bb540 f   Lmd_Entities_Logical.obj
 0001:001ba5c0       ?getFreeSlot@@YAHXZ        201bb5c0 f i Lmd_Entities_Logical.obj
 0001:001ba620       ?ClearEntities@@YAXXZ      201bb620 f   Lmd_Entities_Spawner.obj
 0001:001ba770       ?ClearMap@@YAXXZ           201bb770 f   Lmd_Entities_Spawner.obj
 0001:001ba7a0       ?ImportMapDefaults@@YAPAUSpawnData_s@@XZ 201bb7a0 f   Lmd_Entities_Spawner.obj
 0001:001ba910       ?Lmd_Entites_GetSpawnstringLen@@YAIPAUSpawnData_s@@@Z 201bb910 f   Lmd_Entities_Spawner.obj
 0001:001ba9b0       ?Lmd_Entities_IsSaveable@@YAHPAUgentity_s@@@Z 201bb9b0 f   Lmd_Entities_Spawner.obj
 0001:001ba9f0       ?Lmd_Entities_SetSaveable@@YAXPAUSpawnData_s@@H@Z 201bb9f0 f   Lmd_Entities_Spawner.obj
 0001:001baa10       ?Lmd_Entities_deleteSpawnstringKey@@YAHPAUSpawnData_s@@PAD@Z 201bba10 f   Lmd_Entities_Spawner.obj
 0001:001baa70       ?Lmd_Entities_getSpawnstring@@YAXPAUSpawnData_s@@PADH@Z 201bba70 f   Lmd_Entities_Spawner.obj
 0001:001bab50       ?Lmd_Entities_getSpawnstringKey@@YAHPAUSpawnData_s@@PAD1H@Z 201bbb50 f   Lmd_Entities_Spawner.obj
 0001:001babc0       ?Lmd_Entities_getSpawnstringKeyIndex@@YAHPAUSpawnData_s@@PAD@Z 201bbbc0 f   Lmd_Entities_Spawner.obj
 0001:001bac40       ?Lmd_Entities_getSpawnstringKeyValue@@YAPADPAUSpawnData_s@@H@Z 201bbc40 f   Lmd_Entities_Spawner.obj
 0001:001bac80       ?Lmd_Entities_setSpawnstringKey@@YAXPAUSpawnData_s@@PAD1@Z 201bbc80 f   Lmd_Entities_Spawner.obj
 0001:001bad10       ?LoadEntitiesData@@YAHPBDH@Z 201bbd10 f   Lmd_Entities_Spawner.obj
 0001:001bb140       ?LoadMapDefaults@@YAXXZ    201bc140 f   Lmd_Entities_Spawner.obj
 0001:001bb1e0       ?MapEntPath@@YAPADXZ       201bc1e0 f   Lmd_Entities_Spawner.obj
 0001:001bb230       ?ParseEntityLoadstring@@YAPAUSpawnData_s@@PAD@Z 201bc230 f   Lmd_Entities_Spawner.obj
 0001:001bb300       ?ParseEntitySpawnstring@@YAPAUSpawnData_s@@PAD@Z 201bc300 f   Lmd_Entities_Spawner.obj
 0001:001bb340       ?SaveEntitiesData@@YAXPBD@Z 201bc340 f   Lmd_Entities_Spawner.obj
 0001:001bb5d0       ?ShutdownEntitySystem@@YAXXZ 201bc5d0 f   Lmd_Entities_Spawner.obj
 0001:001bb670       ?cloneSpawnstring@@YAPAUSpawnData_s@@PAU1@@Z 201bc670 f   Lmd_Entities_Spawner.obj
 0001:001bb6f0       ?entityIsWorldspawn@@YAHPAUSpawnData_s@@@Z 201bc6f0 f   Lmd_Entities_Spawner.obj
 0001:001bb760       ?getSpawnDataIndex@@YAHPAUSpawnData_s@@@Z 201bc760 f   Lmd_Entities_Spawner.obj
 0001:001bb7c0       ?getSpawnstringPairs@@YAXPAUSpawnData_s@@PAUKeyPairSet_s@@@Z 201bc7c0 f   Lmd_Entities_Spawner.obj
 0001:001bb7f0       ?newMapSpawnstring@@YAPAUSpawnData_s@@XZ 201bc7f0 f   Lmd_Entities_Spawner.obj
 0001:001bb850       ?newSpawnstring@@YAPAUSpawnData_s@@XZ 201bc850 f   Lmd_Entities_Spawner.obj
 0001:001bb900       ?removeSpawnstring@@YAXPAUSpawnData_s@@@Z 201bc900 f   Lmd_Entities_Spawner.obj
 0001:001bba30       ?spawnEntity@@YAPAUgentity_s@@PAU1@PAUSpawnData_s@@@Z 201bca30 f   Lmd_Entities_Spawner.obj
 0001:001bbc20       ?spawnEntityFromData@@YAPAUgentity_s@@PAUSpawnData_s@@@Z 201bcc20 f   Lmd_Entities_Spawner.obj
 0001:001bbcd0       ?tryImport@@YAPAUgentity_s@@PAUKeyPairSet_s@@@Z 201bccd0 f   Lmd_Entities_Spawner.obj
 0001:001bbd20       ?trySpawn@@YAPAUgentity_s@@PAD@Z 201bcd20 f   Lmd_Entities_Spawner.obj
 0001:001bbd50       ?Cmd_Factions_f@@YAXPAUgentity_s@@H@Z 201bcd50 f   Lmd_Factions_Old.obj
 0001:001be330       ?Factions_AddAnouncement@@YAHPAUFactions_s@@IPAD1@Z 201bf330 f   Lmd_Factions_Old.obj
 0001:001be420       ?Factions_AddPlayer@@YAXPAUFactions_s@@PADH@Z 201bf420 f   Lmd_Factions_Old.obj
 0001:001be4a0       ?Factions_AddRank@@YAXPAUFactions_s@@PAD1II@Z 201bf4a0 f   Lmd_Factions_Old.obj
 0001:001be560       ?Factions_AnnouncementIsOutdated@@YAHPAUfactionMessage_s@@@Z 201bf560 f   Lmd_Factions_Old.obj
 0001:001be5b0       ?Factions_CheckPlayerFactionProperty@@YAHHPAD@Z 201bf5b0 f   Lmd_Factions_Old.obj
 0001:001be650       ?Factions_GetAnnouncement@@YAPAUfactionMessage_s@@PAUFactions_s@@PAD@Z 201bf650 f   Lmd_Factions_Old.obj
 0001:001be6d0       ?Factions_GetFaction@@YAPAUFactions_s@@PAD@Z 201bf6d0 f   Lmd_Factions_Old.obj
 0001:001be720       ?Factions_GetFactionByTag@@YAPAUFactions_s@@PAD@Z 201bf720 f   Lmd_Factions_Old.obj
 0001:001be7b0       ?Factions_GetFactionIndex@@YAHPAD@Z 201bf7b0 f   Lmd_Factions_Old.obj
 0001:001be820       ?Factions_GetPlayerEntry@@YAPAUfactionPlayer_s@@PAUFactions_s@@H@Z 201bf820 f   Lmd_Factions_Old.obj
 0001:001be890       ?Factions_GetRank@@YAPAUfactionRank_s@@PAUFactions_s@@PAD@Z 201bf890 f   Lmd_Factions_Old.obj
 0001:001be900       ?Factions_GetRankByTag@@YAPAUfactionRank_s@@PAUFactions_s@@PAD@Z 201bf900 f   Lmd_Factions_Old.obj
 0001:001be980       ?Factions_GetRankTag@@YAPADPAUFactions_s@@PAD@Z 201bf980 f   Lmd_Factions_Old.obj
 0001:001be9d0       ?Factions_List@@YAXPAUgentity_s@@H@Z 201bf9d0 f   Lmd_Factions_Old.obj
 0001:001bec90       ?Factions_ListAnnouncements@@YAXPAUgentity_s@@PAUFactions_s@@@Z 201bfc90 f   Lmd_Factions_Old.obj
 0001:001bee00       ?Factions_ListMembers@@YAXPAUgentity_s@@PAUFactions_s@@@Z 201bfe00 f   Lmd_Factions_Old.obj
 0001:001befc0       ?Factions_ListRanks@@YAXPAUgentity_s@@PAUFactions_s@@H@Z 201bffc0 f   Lmd_Factions_Old.obj
 0001:001bf150       ?Factions_Load@@YAIXZ      201c0150 f   Lmd_Factions_Old.obj
 0001:001bf190       ?Factions_LoadFile@@YAHPAD0@Z 201c0190 f   Lmd_Factions_Old.obj
 0001:001bf200       ?Factions_Modify@@YAXPAUFactions_s@@@Z 201c0200 f   Lmd_Factions_Old.obj
 0001:001bf230       ?Factions_New@@YAPAUFactions_s@@PAD@Z 201c0230 f   Lmd_Factions_Old.obj
 0001:001bf2e0       ?Factions_ParseKey@@YAHPAEHPAD1@Z 201c02e0 f   Lmd_Factions_Old.obj
 0001:001bf4e0       ?Factions_PlayerHasAuth@@YAHPAUFactions_s@@PAUfactionPlayer_s@@I@Z 201c04e0 f   Lmd_Factions_Old.obj
 0001:001bf530       ?Factions_RankString@@YAIIPADH@Z 201c0530 f   Lmd_Factions_Old.obj
 0001:001bf600       ?Factions_Remove@@YAHPAUFactions_s@@@Z 201c0600 f   Lmd_Factions_Old.obj
 0001:001bf720       ?Factions_RemoveAnnouncement@@YAHPAUFactions_s@@PAUfactionMessage_s@@@Z 201c0720 f   Lmd_Factions_Old.obj
 0001:001bf7c0       ?Factions_RemoveOutdatedAnnouncements@@YAXPAUFactions_s@@@Z 201c07c0 f   Lmd_Factions_Old.obj
 0001:001bf840       ?Factions_RemovePlayer@@YAHPAUFactions_s@@PAUfactionPlayer_s@@@Z 201c0840 f   Lmd_Factions_Old.obj
 0001:001bf8d0       ?Factions_RemoveRank@@YAHPAUFactions_s@@PAUfactionRank_s@@@Z 201c08d0 f   Lmd_Factions_Old.obj
 0001:001bf9c0       ?Factions_Save@@YAXH@Z     201c09c0 f   Lmd_Factions_Old.obj
 0001:001bfa50       ?Factions_SaveFaction@@YAXI@Z 201c0a50 f   Lmd_Factions_Old.obj
 0001:001bfad0       ?Factions_SaveMoreKeys@@YAPAUDBSaveFileCallbackReturn_t@@PAEPAU1@PADH2H@Z 201c0ad0 f   Lmd_Factions_Old.obj
 0001:001bfdb0       ?Factions_SetAuth@@YAHPAUFactions_s@@PAUfactionRank_s@@I@Z 201c0db0 f   Lmd_Factions_Old.obj
 0001:001bfe30       ?Factions_SetFactionProperty@@YAHPAUFactions_s@@PAD@Z 201c0e30 f   Lmd_Factions_Old.obj
 0001:001bfe90       ?Factions_SetFactionTag@@YAHPAUFactions_s@@PAD@Z 201c0e90 f   Lmd_Factions_Old.obj
 0001:001bff10       ?Factions_SetMemberRank@@YAHPAUFactions_s@@PAUfactionPlayer_s@@PAUfactionRank_s@@@Z 201c0f10 f   Lmd_Factions_Old.obj
 0001:001bff80       ?Factions_SetPlayerRank@@YAHPAUFactions_s@@PAUfactionPlayer_s@@PAUfactionRank_s@@@Z 201c0f80 f   Lmd_Factions_Old.obj
 0001:001bffd0       ?Factions_SetRankTag@@YAHPAUFactions_s@@PAUfactionRank_s@@PAD@Z 201c0fd0 f   Lmd_Factions_Old.obj
 0001:001c0050       ?Force_CanUsePower@@YAHPAUgentity_s@@H@Z 201c1050 f   Lmd_Force_Core.obj
 0001:001c0180       ?Force_Cooldown@@YAXPAUgentity_s@@HH@Z 201c1180 f   Lmd_Force_Core.obj
 0001:001c01c0       ?Force_DrainForceEnergy@@YAXPAUgentity_s@@HH@Z 201c11c0 f   Lmd_Force_Core.obj
 0001:001c0200       ?Force_GetPlayerForceData@@YAPAXPAUgentity_s@@H@Z 201c1200 f   Lmd_Force_Core.obj
 0001:001c0270       ?Force_StopPower@@YAXPAUgentity_s@@H@Z 201c1270 f   Lmd_Force_Core.obj
 0001:001c0340       ?Force_Update@@YAXPAUgentity_s@@@Z 201c1340 f   Lmd_Force_Core.obj
 0001:001c0490       ?Force_UsePower@@YAHPAUgentity_s@@H@Z 201c1490 f   Lmd_Force_Core.obj
 0001:001c06f0       ?isForce_Cooldown@@YAHPAUgentity_s@@H@Z 201c16f0 f   Lmd_Force_Core.obj
 0001:001c0740       ?Force_Grip_Available@@YAHPAUgentity_s@@PBX@Z 201c1740 f   Lmd_Force_Dark.obj
 0001:001c07d0       ?Force_Grip_Start@@YAHPAUgentity_s@@PBX@Z 201c17d0 f   Lmd_Force_Dark.obj
 0001:001c0d30       ?Force_Grip_Run@@YAHPAUgentity_s@@PBX@Z 201c1d30 f   Lmd_Force_Dark.obj
 0001:001c1ce0       ?Force_Grip_Stop@@YAXPAUgentity_s@@PBX@Z 201c2ce0 f   Lmd_Force_Dark.obj
 0001:001c1f10       ?Force_Lightning_Available@@YAHPAUgentity_s@@PBX@Z 201c2f10 f   Lmd_Force_Dark.obj
 0001:001c1fa0       ?Force_Lightning_Start@@YAHPAUgentity_s@@PBX@Z 201c2fa0 f   Lmd_Force_Dark.obj
 0001:001c20f0       ?Force_Lightning_Run@@YAHPAUgentity_s@@PBX@Z 201c30f0 f   Lmd_Force_Dark.obj
 0001:001c2e30       ?Force_Lightning_Stop@@YAXPAUgentity_s@@PBX@Z 201c3e30 f   Lmd_Force_Dark.obj
 0001:001c2ef0       ?Force_Rage_Available@@YAHPAUgentity_s@@PBX@Z 201c3ef0 f   Lmd_Force_Dark.obj
 0001:001c2f30       ?Force_Rage_Start@@YAHPAUgentity_s@@PBX@Z 201c3f30 f   Lmd_Force_Dark.obj
 0001:001c30a0       ?Force_Rage_Run@@YAHPAUgentity_s@@PBX@Z 201c40a0 f   Lmd_Force_Dark.obj
 0001:001c31f0       ?Force_Rage_Stop@@YAXPAUgentity_s@@PBX@Z 201c41f0 f   Lmd_Force_Dark.obj
 0001:001c3260       ?Force_TeamReplenish_Start@@YAHPAUgentity_s@@PBX@Z 201c4260 f   Lmd_Force_Dark.obj
 0001:001c3830       ?Force_Drain_Available@@YAHPAUgentity_s@@PBX@Z 201c4830 f   Lmd_Force_Dark.obj
 0001:001c38f0       ?Force_Drain_Start@@YAHPAUgentity_s@@PBX@Z 201c48f0 f   Lmd_Force_Dark.obj
 0001:001c39f0       ?Force_Drain_Run@@YAHPAUgentity_s@@PBX@Z 201c49f0 f   Lmd_Force_Dark.obj
 0001:001c4790       ?Force_Drain_Stop@@YAXPAUgentity_s@@PBX@Z 201c5790 f   Lmd_Force_Dark.obj
 0001:001c4840       ?Force_Drain_AbsorbPower@@YAMPAUgentity_s@@0PBUforceDrain_s@@@Z 201c5840 f   Lmd_Force_Dark.obj
 0001:001c48f0       ?Force_Drain_Damage@@YAXPAUgentity_s@@0QAM1PBUforceDrain_s@@@Z 201c58f0 f   Lmd_Force_Dark.obj
 0001:001c4d10       ?Force_Grip_AbsorbPower@@YAMPAUgentity_s@@0PBUforceGrip_s@@@Z 201c5d10 f   Lmd_Force_Dark.obj
 0001:001c4dc0       ?Force_Grip_Distance@@YAHPAUgentity_s@@PBUforceGrip_s@@@Z 201c5dc0 f   Lmd_Force_Dark.obj
 0001:001c4e10       ?Force_Lightning_AbsorbPower@@YAMPAUgentity_s@@0PBUforceLightning_s@@@Z 201c5e10 f   Lmd_Force_Dark.obj
 0001:001c4ec0       ?Force_Lightning_Damage@@YAXPAUgentity_s@@0QAMPBUforceLightning_s@@@Z 201c5ec0 f   Lmd_Force_Dark.obj
 0001:001c59a0       ?Force_Heal_Available@@YAHPAUgentity_s@@PBX@Z 201c69a0 f   Lmd_Force_Light.obj
 0001:001c5a10       ?Force_Heal_Start@@YAHPAUgentity_s@@PBX@Z 201c6a10 f   Lmd_Force_Light.obj
 0001:001c5b00       ?Force_Telepathy_Available@@YAHPAUgentity_s@@PBX@Z 201c6b00 f   Lmd_Force_Light.obj
 0001:001c5bc0       ?Force_Telepathy_Start@@YAHPAUgentity_s@@PBX@Z 201c6bc0 f   Lmd_Force_Light.obj
 0001:001c6510       ?Force_Telepathy_Stop@@YAXPAUgentity_s@@PBX@Z 201c7510 f   Lmd_Force_Light.obj
 0001:001c65c0       ?Force_Protect_Start@@YAHPAUgentity_s@@PBX@Z 201c75c0 f   Lmd_Force_Light.obj
 0001:001c6710       ?Force_Protect_Run@@YAHPAUgentity_s@@PBX@Z 201c7710 f   Lmd_Force_Light.obj
 0001:001c67c0       ?Force_Protect_Stop@@YAXPAUgentity_s@@PBX@Z 201c77c0 f   Lmd_Force_Light.obj
 0001:001c6820       ?Force_Absorb_Start@@YAHPAUgentity_s@@PBX@Z 201c7820 f   Lmd_Force_Light.obj
 0001:001c6960       ?Force_Absorb_Run@@YAHPAUgentity_s@@PBX@Z 201c7960 f   Lmd_Force_Light.obj
 0001:001c6a10       ?Force_Absorb_Stop@@YAXPAUgentity_s@@PBX@Z 201c7a10 f   Lmd_Force_Light.obj
 0001:001c6a70       ?Force_TeamHeal_Start@@YAHPAUgentity_s@@PBX@Z 201c7a70 f   Lmd_Force_Light.obj
 0001:001c70e0       ?ForceTelepathyCheckDirectNPCTarget@@YAHPAUgentity_s@@PAUtrace_t@@PAHPBUforceTelepathy_s@@@Z 201c80e0 f   Lmd_Force_Light.obj
 0001:001c79f0       ?Force_Protect_ModifyDamage@@YAHPAUgentity_s@@H@Z 201c89f0 f   Lmd_Force_Light.obj
 0001:001c7cc0       ?WP_AddAsMindtricked@@YAXPAUforcedata_s@@H@Z 201c8cc0 f   Lmd_Force_Light.obj
 0001:001c7da0       ?Force_Levitation_Available@@YAHPAUgentity_s@@PBX@Z 201c8da0 f   Lmd_Force_Neutral.obj
 0001:001c7e20       ?Force_Levitation_Start@@YAHPAUgentity_s@@PBX@Z 201c8e20 f   Lmd_Force_Neutral.obj
 0001:001c8020       ?Force_Levitation_Run@@YAHPAUgentity_s@@PBX@Z 201c9020 f   Lmd_Force_Neutral.obj
 0001:001c8080       ?Force_Speed_Start@@YAHPAUgentity_s@@PBX@Z 201c9080 f   Lmd_Force_Neutral.obj
 0001:001c8140       ?Force_Speed_Stop@@YAXPAUgentity_s@@PBX@Z 201c9140 f   Lmd_Force_Neutral.obj
 0001:001c81a0       ?Force_Throw_Available@@YAHPAUgentity_s@@PBX@Z 201c91a0 f   Lmd_Force_Neutral.obj
 0001:001c8280       ?Force_Push_Start@@YAHPAUgentity_s@@PBX@Z 201c9280 f   Lmd_Force_Neutral.obj
 0001:001c82b0       ?Force_Pull_Start@@YAHPAUgentity_s@@PBX@Z 201c92b0 f   Lmd_Force_Neutral.obj
 0001:001c82e0       ?Force_See_Start@@YAHPAUgentity_s@@PBX@Z 201c92e0 f   Lmd_Force_Neutral.obj
 0001:001c83d0       ?Force_See_Stop@@YAXPAUgentity_s@@PBX@Z 201c93d0 f   Lmd_Force_Neutral.obj
 0001:001c8530       ?Force_Throw_AbsorbPower@@YAMPAUgentity_s@@0PBUforceThrow_s@@H@Z 201c9530 f   Lmd_Force_Neutral.obj
 0001:001c8620       ?Force_Throw_BreakGrip@@YAHPAUgentity_s@@H0@Z 201c9620 f   Lmd_Force_Neutral.obj
 0001:001c86b0       ?Force_Throw_CanCounter@@YAHPAUgentity_s@@0H@Z 201c96b0 f   Lmd_Force_Neutral.obj
 0001:001c8aa0       ?Force_Throw_Client@@YAXPAUgentity_s@@0HHPBUforceThrow_s@@@Z 201c9aa0 f   Lmd_Force_Neutral.obj
 0001:001c9960       ?Force_Throw_Entity@@YAXPAUgentity_s@@QAM0IHPBUforceThrow_s@@@Z 201ca960 f   Lmd_Force_Neutral.obj
 0001:001cab70       ?Force_Throw_IsThrowable@@YAHPAUgentity_s@@H@Z 201cbb70 f   Lmd_Force_Neutral.obj
 0001:001cafc0       ?Force_Throw_PushPower@@YAHPAUgentity_s@@H@Z 201cbfc0 f   Lmd_Force_Neutral.obj
 0001:001cb060       ?Force_Throw_Start@@YAXPAUgentity_s@@HPBUforceThrow_s@@@Z 201cc060 f   Lmd_Force_Neutral.obj
 0001:001ccbd0       ?WP_GetVelocityForForceJump@@YAHPAUgentity_s@@QAMPAUusercmd_s@@@Z 201cdbd0 f   Lmd_Force_Neutral.obj
 0001:001cd1c0       ?Accounts_Inventory_Parse@@YAHPAD0PAX1@Z 201ce1c0 f   Lmd_Inventory_Core.obj
 0001:001cd2e0       ?Accounts_Inventory_Write@@YA?AW4DataWriteResult_t@@PAXQADH1HPAPAX0@Z 201ce2e0 f   Lmd_Inventory_Core.obj
 0001:001cd450       ?Accounts_Inventory_Free@@YAXPAX@Z 201ce450 f   Lmd_Inventory_Core.obj
 0001:001cd4c0       ?Accounts_Inventory_Register@@YAXXZ 201ce4c0 f   Lmd_Inventory_Core.obj
 0001:001cd4f0       ?AimAnyTargetz@@YAPAUgentity_s@@PAU1@H@Z 201ce4f0 f   Lmd_Inventory_Core.obj
 0001:001cd730       ?Cmd_Inventory_Delete@@YAXPAUgentity_s@@PAUiObjectList_s@@H@Z 201ce730 f   Lmd_Inventory_Core.obj
 0001:001cdaa0       ?Cmd_Inventory_Delete_Item_Confirm@@YAXPAUgentity_s@@PAX@Z 201ceaa0 f   Lmd_Inventory_Core.obj
 0001:001cdb30       ?Cmd_Inventory_Delete_Type_Confirm@@YAXPAUgentity_s@@PAX@Z 201ceb30 f   Lmd_Inventory_Core.obj
 0001:001cdc30       ?Cmd_Inventory_Give@@YAXPAUgentity_s@@PAUiObjectList_s@@H@Z 201cec30 f   Lmd_Inventory_Core.obj
 0001:001cde40       ?Cmd_Inventory_Give_Confirm@@YAXPAUgentity_s@@PAX@Z 201cee40 f   Lmd_Inventory_Core.obj
 0001:001cdfa0       ?Cmd_Inventory_List@@YAXPAUgentity_s@@PAUiObjectList_s@@H@Z 201cefa0 f   Lmd_Inventory_Core.obj
 0001:001ce290       ?Cmd_Inventory_ListCatagory@@YAXPAUgentity_s@@PAUiObjectList_s@@PAUiObjectCatagory_s@@PADPAH4@Z 201cf290 f   Lmd_Inventory_Core.obj
 0001:001ce4a0       ?Cmd_Inventory_Sell@@YAXPAUgentity_s@@PAUiObjectList_s@@HH@Z 201cf4a0 f   Lmd_Inventory_Core.obj
 0001:001ce8a0       ?Cmd_Inventory_Sell_Confirm_buy@@YAXPAUgentity_s@@PAX@Z 201cf8a0 f   Lmd_Inventory_Core.obj
 0001:001ceb30       ?Cmd_Inventory_Use@@YAXPAUgentity_s@@PAUiObjectList_s@@H@Z 201cfb30 f   Lmd_Inventory_Core.obj
 0001:001cedb0       ?Cmd_Inventory_f@@YAXPAUgentity_s@@H@Z 201cfdb0 f   Lmd_Inventory_Core.obj
 0001:001cf010       ?Inventory_AddObject@@YAHPAUiObjectList_s@@PAUiObject_s@@@Z 201d0010 f   Lmd_Inventory_Core.obj
 0001:001cf090       ?Inventory_CheckCombine@@YAHPAUiObjectList_s@@PAUiObject_s@@@Z 201d0090 f   Lmd_Inventory_Core.obj
 0001:001cf120       ?Inventory_ClearAccounts@@YAXXZ 201d0120 f   Lmd_Inventory_Core.obj
 0001:001cf1f0       ?Inventory_DeleteObject@@YAHPAUiObject_s@@@Z 201d01f0 f   Lmd_Inventory_Core.obj
 0001:001cf240       ?Inventory_DestroyObject@@YAHPAUiObject_s@@@Z 201d0240 f   Lmd_Inventory_Core.obj
 0001:001cf2a0       ?Inventory_FreeObject@@YAXPAUiObject_s@@@Z 201d02a0 f   Lmd_Inventory_Core.obj
 0001:001cf330       ?Inventory_GetCategory@@YAPAUiObjectCatagory_s@@PAD@Z 201d0330 f   Lmd_Inventory_Core.obj
 0001:001cf390       ?Inventory_GetObjectDef@@YAPAUiObjectDef_s@@PADPAPAUiObjectCatagory_s@@@Z 201d0390 f   Lmd_Inventory_Core.obj
 0001:001cf430       ?Inventory_Holder_LooseObject@@YAHPAUiObject_s@@@Z 201d0430 f   Lmd_Inventory_Core.obj
 0001:001cf4b0       ?Inventory_Holder_RemoveObject@@YAXPAUiObject_s@@@Z 201d04b0 f   Lmd_Inventory_Core.obj
 0001:001cf500       ?Inventory_LoadObject@@YAPAUiObject_s@@PAUiObjectDef_s@@PAD@Z 201d0500 f   Lmd_Inventory_Core.obj
 0001:001cf590       ?Inventory_NewObject@@YAPAUiObject_s@@PAUiObjectDef_s@@@Z 201d0590 f   Lmd_Inventory_Core.obj
 0001:001cf620       ?Inventory_Player_AquireItem@@YAHPAUgentity_s@@PAUiObject_s@@@Z 201d0620 f   Lmd_Inventory_Core.obj
 0001:001cf710       ?Inventory_Player_GetInventory@@YAPAUiObjectList_s@@PAUgentity_s@@@Z 201d0710 f   Lmd_Inventory_Core.obj
 0001:001cf770       ?Inventory_Player_Login@@YAXPAUgentity_s@@@Z 201d0770 f   Lmd_Inventory_Core.obj
 0001:001cf7f0       ?Inventory_Player_Logout@@YAXPAUgentity_s@@@Z 201d07f0 f   Lmd_Inventory_Core.obj
 0001:001cf870       ?Inventory_Player_Modify@@YAXPAUgentity_s@@@Z 201d0870 f   Lmd_Inventory_Core.obj
 0001:001cf8b0       ?Inventory_Player_Think@@YAXPAUgentity_s@@@Z 201d08b0 f   Lmd_Inventory_Core.obj
 0001:001cf970       ?Inventory_RemoveObject@@YAXPAUiObject_s@@@Z 201d0970 f   Lmd_Inventory_Core.obj
 0001:001cfa80       ?Inventory_RunSpawner@@YAHPAUgentity_s@@0@Z 201d0a80 f   Lmd_Inventory_Core.obj
 0001:001cfb20       ?Inventory_SetupSpawner@@YAHPAUgentity_s@@@Z 201d0b20 f   Lmd_Inventory_Core.obj
 0001:001cfd80       ?Inventory_SpawnObject@@YAXPAUiObject_s@@@Z 201d0d80 f   Lmd_Inventory_Core.obj
 0001:001cfdc0       ?Inventory_TryCombine@@YAHPAUiObject_s@@0@Z 201d0dc0 f   Lmd_Inventory_Core.obj
 0001:001d0040       ?Inventory_WriteObject@@YAXPAUiObject_s@@PADI@Z 201d1040 f   Lmd_Inventory_Core.obj
 0001:001d01a0       ?Item_Test_Spawn@@YAXPAUiObject_s@@@Z 201d11a0 f   Lmd_Inventory_General.obj
 0001:001d01c0       ?Item_Medpack_Spawn@@YAXPAUiObject_s@@@Z 201d11c0 f   Lmd_Inventory_General.obj
 0001:001d01f0       ?Item_Weaponpack_Spawn@@YAXPAUiObject_s@@@Z 201d11f0 f   Lmd_Inventory_General.obj
 0001:001d0220       ?Item_Ammopack_Spawn@@YAXPAUiObject_s@@@Z 201d1220 f   Lmd_Inventory_General.obj
 0001:001d0250       ?Item_Ammopack_Describe@@YAXPAUiObject_s@@PADI@Z 201d1250 f   Lmd_Inventory_General.obj
 0001:001d03e0       ?Item_Ammopack_Use@@YAXPAUiObject_s@@@Z 201d13e0 f   Lmd_Inventory_General.obj
 0001:001d0b60       ?Item_Madpack_Combine@@YAHPAUiObject_s@@0@Z 201d1b60 f   Lmd_Inventory_General.obj
 0001:001d0c10       ?Item_Medpack_Describe@@YAXPAUiObject_s@@PADI@Z 201d1c10 f   Lmd_Inventory_General.obj
 0001:001d0d20       ?Item_Medpack_Use@@YAXPAUiObject_s@@@Z 201d1d20 f   Lmd_Inventory_General.obj
 0001:001d1090       ?Item_Test_Use@@YAXPAUiObject_s@@@Z 201d2090 f   Lmd_Inventory_General.obj
 0001:001d1100       ?Item_Weaponpack_Describe@@YAXPAUiObject_s@@PADI@Z 201d2100 f   Lmd_Inventory_General.obj
 0001:001d1280       ?Item_Weaponpack_Use@@YAXPAUiObject_s@@@Z 201d2280 f   Lmd_Inventory_General.obj
 0001:001d1820       ?Item_UpCount_Spawn@@YAXPAUiObject_s@@@Z 201d2820 f   Lmd_Inventory_Quest.obj
 0001:001d1870       ?Item_DownCount_Spawn@@YAXPAUiObject_s@@@Z 201d2870 f   Lmd_Inventory_Quest.obj
 0001:001d1940       ?Inventory_Quest_CheckAccess@@YAHPAUgentity_s@@PAD@Z 201d2940 f   Lmd_Inventory_Quest.obj
 0001:001d19a0       ?Inventory_Quest_DownCount_CheckAccess@@YAHPAUgentity_s@@PAD@Z 201d29a0 f   Lmd_Inventory_Quest.obj
 0001:001d1ad0       ?Inventory_Quest_UpCount_CheckAccess@@YAHPAUgentity_s@@PAD@Z 201d2ad0 f   Lmd_Inventory_Quest.obj
 0001:001d1bb0       ?Item_DownCount_Combine@@YAHPAUiObject_s@@0@Z 201d2bb0 f   Lmd_Inventory_Quest.obj
 0001:001d1c80       ?Item_DownCount_Describe@@YAXPAUiObject_s@@PADI@Z 201d2c80 f   Lmd_Inventory_Quest.obj
 0001:001d1d70       ?Item_UpCount_Combine@@YAHPAUiObject_s@@0@Z 201d2d70 f   Lmd_Inventory_Quest.obj
 0001:001d1df0       ?Item_UpCount_Describe@@YAXPAUiObject_s@@PADI@Z 201d2df0 f   Lmd_Inventory_Quest.obj
 0001:001d1e50       ?Cmd_PlayerIPs_f@@YAXPAUgentity_s@@H@Z 201d2e50 f   Lmd_IPs.obj
 0001:001d2150       ?Cmd_FindIP_f@@YAXPAUgentity_s@@H@Z 201d3150 f   Lmd_IPs.obj
 0001:001d2220       ?Cmd_ListIPs_f@@YAXPAUgentity_s@@H@Z 201d3220 f   Lmd_IPs.obj
 0001:001d2540       ?Cmd_FindIP_FindName@@YAXPAUgentity_s@@PAD@Z 201d3540 f   Lmd_IPs.obj
 0001:001d2750       ?Cmd_FindIP_ListNames@@YAXPAUgentity_s@@QAE@Z 201d3750 f   Lmd_IPs.obj
 0001:001d2880       ?Lmd_HostnameIsValid@@YAHPAD@Z 201d3880 f   Lmd_IPs.obj
 0001:001d2a60       ?Lmd_IPs_AddAccount@@YAXQAEH@Z 201d3a60 f   Lmd_IPs.obj
 0001:001d2b70       ?Lmd_IPs_AddName@@YAXQAEPAD@Z 201d3b70 f   Lmd_IPs.obj
 0001:001d2ce0       ?Lmd_IPs_CheckUpdatedHostnames@@YAXXZ 201d3ce0 f   Lmd_IPs.obj
 0001:001d2ed0       ?Lmd_IPs_CompareIP@@YAHQAE0@Z 201d3ed0 f   Lmd_IPs.obj
 0001:001d2f60       ?Lmd_IPs_CreateIPData@@YAPAUIPData_s@@QAE@Z 201d3f60 f   Lmd_IPs.obj
 0001:001d2fe0       ?Lmd_IPs_GetHostname@@YAPADQAE@Z 201d3fe0 f   Lmd_IPs.obj
 0001:001d3050       ?Lmd_IPs_GetIPData@@YAPAUIPData_s@@QAE@Z 201d4050 f   Lmd_IPs.obj
 0001:001d30a0       ?Lmd_IPs_GetIPIndex@@YAHQAE@Z 201d40a0 f   Lmd_IPs.obj
 0001:001d3110       ?Lmd_IPs_IPToString@@YAPADQAE@Z 201d4110 f   Lmd_IPs.obj
 0001:001d31d0       ?Lmd_IPs_IdentifyHostname@@YAXQAE@Z 201d41d0 f   Lmd_IPs.obj
 0001:001d3220       ?Lmd_IPs_IdentifyHostnameByData@@YAXPAUIPData_s@@@Z 201d4220 f   Lmd_IPs.obj
 0001:001d3290       ?Lmd_IPs_IdentifyHostnameCall@@YAIPAUIPData_s@@@Z 201d4290 f   Lmd_IPs.obj
 0001:001d3300       ?Lmd_IPs_Init@@YAXXZ       201d4300 f   Lmd_IPs.obj
 0001:001d3370       ?Lmd_IPs_ParseIP@@YAHPADQAE@Z 201d4370 f   Lmd_IPs.obj
 0001:001d3540       ?Lmd_IPs_QueryHostname@@YAPADQAE@Z 201d4540 f   Lmd_IPs.obj
 0001:001d3620       ?Lmd_IPs_Run@@YAXXZ        201d4620 f   Lmd_IPs.obj
 0001:001d36f0       ?Lmd_IPs_SetPlayerIP@@YAXPAUgclient_s@@QAE@Z 201d46f0 f   Lmd_IPs.obj
 0001:001d3780       ?Lmd_Pairs_Clear@@YAXPAUKeyPairSet_s@@@Z 201d4780 f   Lmd_KeyPairs.obj
 0001:001d3840       ?Lmd_Pairs_FindKey@@YAHPAUKeyPairSet_s@@PAD@Z 201d4840 f   Lmd_KeyPairs.obj
 0001:001d38b0       ?Lmd_Pairs_GetKey@@YAPADPAUKeyPairSet_s@@PAD@Z 201d48b0 f   Lmd_KeyPairs.obj
 0001:001d3900       ?Lmd_Pairs_Merge@@YAXPAUKeyPairSet_s@@0@Z 201d4900 f   Lmd_KeyPairs.obj
 0001:001d3970       ?Lmd_Pairs_New@@YAIPAUKeyPairSet_s@@PAD1@Z 201d4970 f   Lmd_KeyPairs.obj
 0001:001d39f0       ?Lmd_Pairs_ParseDatastring@@YAXPAUKeyPairSet_s@@PAD@Z 201d49f0 f   Lmd_KeyPairs.obj
 0001:001d3ca0       ?Lmd_Pairs_Remove@@YAXPAUKeyPairSet_s@@H@Z 201d4ca0 f   Lmd_KeyPairs.obj
 0001:001d3d30       ?Lmd_Pairs_SetKey@@YAXPAUKeyPairSet_s@@PAD1@Z 201d4d30 f   Lmd_KeyPairs.obj
 0001:001d3dc0       ?Lmd_Pairs_ToDatastring@@YAPADPAUKeyPairSet_s@@@Z 201d4dc0 f   Lmd_KeyPairs.obj
 0001:001d4090       ?BecomeCommoner@@YAXPAUgentity_s@@@Z 201d5090 f   Lmd_King.obj
 0001:001d41c0       ?BecomeKing@@YAXPAUgentity_s@@@Z 201d51c0 f   Lmd_King.obj
 0001:001d4400       ?CalcScore@@YAXPAUgentity_s@@0@Z 201d5400 f   Lmd_King.obj
 0001:001d4b90       ?Chicken@@YAXPAUgentity_s@@@Z 201d5b90 f   Lmd_King.obj
 0001:001d4eb0       ?GetKing@@YAPAUgentity_s@@XZ 201d5eb0 f   Lmd_King.obj
 0001:001d4f20       ?IsKing@@YAHPAUgentity_s@@@Z 201d5f20 f   Lmd_King.obj
 0001:001d4f90       ?RevertKing@@YAXPAUgentity_s@@@Z 201d5f90 f   Lmd_King.obj
 0001:001d50a0       ?ThereIsAKing@@YAHXZ       201d60a0 f   Lmd_King.obj
 0001:001d5100       ?UndoScore@@YAXPAUgentity_s@@@Z 201d6100 f   Lmd_King.obj
 0001:001d5260       ?checkKingTimer@@YAXPAUgentity_s@@@Z 201d6260 f   Lmd_King.obj
 0001:001d53b0       ?listWorthy@@YAXPAUgentity_s@@@Z 201d63b0 f   Lmd_King.obj
 0001:001d55f0       ?scoring@@YAHHH@Z          201d65f0 f   Lmd_King.obj
 0001:001d56a0       ?showWinLose@@YAPADPAUgentity_s@@0@Z 201d66a0 f   Lmd_King.obj
 0001:001d5770       ?winlose@@YAPADHH@Z        201d6770 f   Lmd_King.obj
 0001:001d5800       ?Cmd_AddLocation_f@@YAXPAUgentity_s@@H@Z 201d6800 f   Lmd_Locations.obj
 0001:001d5920       ?Cmd_Position_f@@YAXPAUgentity_s@@H@Z 201d6920 f   Lmd_Locations.obj
 0001:001d5b90       ?Cmd_botReportLocation@@YAXPAUbot_state_s@@PAUgentity_s@@@Z 201d6b90 f   Lmd_Locations.obj
 0001:001d60b0       ?Cmd_botStatus_f@@YAXXZ    201d70b0 f   Lmd_Locations.obj
 0001:001d6500       ?CreateNewLC_FromObject@@YAXPAUlcobject_s@@@Z 201d7500 f   Lmd_Locations.obj
 0001:001d6750       ?LoadLocationData@@YAHXZ   201d7750 f   Lmd_Locations.obj
 0001:001d6ca0       ?SaveLocationData@@YAHXZ   201d7ca0 f   Lmd_Locations.obj
 0001:001d6e40       ?Lmd_PlayerThink@@YAXPAUgentity_s@@@Z 201d7e40 f   Lmd_Main.obj
 0001:001d7130       ?Lmd_RunFrame@@YAXXZ       201d8130 f   Lmd_Main.obj
 0001:001d7170       ?Lmd_Shutdown@@YAXXZ       201d8170 f   Lmd_Main.obj
 0001:001d71c0       ?Lmd_Startup@@YAXXZ        201d81c0 f   Lmd_Main.obj
 0001:001d7310       ?G_Alloc@@YAPAXH@Z         201d8310 f   Lmd_mem.obj
 0001:001d7370       ?G_Free@@YAXPAX@Z          201d8370 f   Lmd_mem.obj
 0001:001d7420       ?G_InitMemory@@YAXXZ       201d8420 f   Lmd_mem.obj
 0001:001d7440       ?G_ShutdownMemory@@YAXXZ   201d8440 f   Lmd_mem.obj
 0001:001d74a0       ?Mem_NewPtr@@YAPAUMemAlloc_s@@XZ 201d84a0 f   Lmd_mem.obj
 0001:001d7510       ?Svcmd_GameMem_f@@YAXXZ    201d8510 f   Lmd_mem.obj
 0001:001d7580       ?LmdApi_Get_Memory@@YAPBXI@Z 201d8580 f   Lmd_API_Memory.obj
 0001:001d75b0       ?MouseDroid_Spawn@@YAXPAUgentity_s@@@Z 201d85b0 f   Lmd_Misc.obj
 0001:001d7720       ?lmd_turret@@YAXPAUgentity_s@@@Z 201d8720 f   Lmd_Missile.obj
 0001:001d7780       ?lmd_turret_ai_think@@YAXPAUgentity_s@@@Z 201d8780 f   Lmd_Missile.obj
 0001:001d77a0       ?lmd_turret_player_think@@YAXPAUgentity_s@@@Z 201d87a0 f   Lmd_Missile.obj
 0001:001d77c0       ?NextSection@@YAHPAPAD@Z   201d87c0 f   Lmd_ParseField.obj
 0001:001d7830       ?ParseField@@YAHPAPADPADDD@Z 201d8830 f   Lmd_ParseField.obj
 0001:001d79e0       ?Cmd_Action_f@@YAXPAUgentity_s@@H@Z 201d89e0 f   Lmd_PlayerActions.obj
 0001:001d7c00       ?PlayerActions_Add@@YAPAUAction_s@@PAUgentity_s@@PAD1P6AH0PAU1@@ZH@Z 201d8c00 f   Lmd_PlayerActions.obj
 0001:001d7d60       ?PlayerActions_FindAction@@YAHPAUgentity_s@@PAD@Z 201d8d60 f   Lmd_PlayerActions.obj
 0001:001d7de0       ?PlayerActions_Remove@@YAXPAUgentity_s@@PAUAction_s@@@Z 201d8de0 f   Lmd_PlayerActions.obj
 0001:001d7f40       ?PlayerGuide_Player_Login@@YAXPAUgentity_s@@@Z 201d8f40 f   Lmd_PlayerGuide.obj
 0001:001d7f60       ?Lmd_Prof_Free@@YAXPAX@Z   201d8f60 f   Lmd_Prof_Core.obj
 0001:001d7fa0       ?Accounts_Profs_Parse@@YAHPAD0PAX1@Z 201d8fa0 f   Lmd_Prof_Core.obj
 0001:001d8120       ?Accounts_Profs_Write@@YA?AW4DataWriteResult_t@@PAXQADH1HPAPAX0@Z 201d9120 f   Lmd_Prof_Core.obj
 0001:001d82e0       ?Lmd_Prof_Alloc@@YAXPAX@Z  201d92e0 f   Lmd_Prof_Core.obj
 0001:001d83c0       ?Lmd_Prof_AccountLoaded@@YAXPAX0@Z 201d93c0 f   Lmd_Prof_Core.obj
 0001:001d84e0       ?Cmd_SkillSelect_f@@YAXPAUgentity_s@@H@Z 201d94e0 f   Lmd_Prof_Core.obj
 0001:001d8620       ?Cmd_ResetSkills_f@@YAXPAUgentity_s@@H@Z 201d9620 f   Lmd_Prof_Core.obj
 0001:001d8a10       ?Cmd_BuyLevel_f@@YAXPAUgentity_s@@H@Z 201d9a10 f   Lmd_Prof_Core.obj
 0001:001d8f60       ?Cmd_Profession_f@@YAXPAUgentity_s@@H@Z 201d9f60 f   Lmd_Prof_Core.obj
 0001:001d9100       ?Cmd_NewGameP_f@@YAXPAUgentity_s@@H@Z 201da100 f   Lmd_Prof_Core.obj
 0001:001d9550       ?Accounts_ClearData@@YAXPAUAccount_s@@@Z 201da550 f   Lmd_Prof_Core.obj
 0001:001d95a0       ?Accounts_LoadProfessionData@@YAIPAUAccount_s@@H@Z 201da5a0 f   Lmd_Prof_Core.obj
 0001:001d97c0       ?Accounts_ParseProfessionData@@YAIPAUAccount_s@@H@Z 201da7c0 f   Lmd_Prof_Core.obj
 0001:001d9940       ?Accounts_Prof_AllocProfessionTemplate@@YAXPAUAccount_s@@H@Z 201da940 f   Lmd_Prof_Core.obj
 0001:001d9a00       ?Accounts_Prof_ClearData@@YAXPAUAccount_s@@@Z 201daa00 f   Lmd_Prof_Core.obj
 0001:001d9ac0       ?Accounts_Prof_GetExperience@@YAHPAUAccount_s@@@Z 201daac0 f   Lmd_Prof_Core.obj
 0001:001d9b10       ?Accounts_Prof_GetFieldData@@YAPAXPAUAccount_s@@@Z 201dab10 f   Lmd_Prof_Core.obj
 0001:001d9b60       ?Accounts_Prof_GetLastLevelup@@YAHPAUAccount_s@@@Z 201dab60 f   Lmd_Prof_Core.obj
 0001:001d9bb0       ?Accounts_Prof_GetLevel@@YAHPAUAccount_s@@@Z 201dabb0 f   Lmd_Prof_Core.obj
 0001:001d9c00       ?Accounts_Prof_GetNewGamePlus_Counter@@YAHPAUAccount_s@@@Z 201dac00 f   Lmd_Prof_Core.obj
 0001:001d9c50       ?Accounts_Prof_GetNewGamePlus_SkillPoints@@YAHPAUAccount_s@@H@Z 201dac50 f   Lmd_Prof_Core.obj
 0001:001d9c80       ?Accounts_Prof_GetProfession@@YAHPAUAccount_s@@@Z 201dac80 f   Lmd_Prof_Core.obj
 0001:001d9cd0       ?Accounts_Prof_Register@@YAXXZ 201dacd0 f   Lmd_Prof_Core.obj
 0001:001d9d00       ?Accounts_Prof_SetExperience@@YAXPAUAccount_s@@H@Z 201dad00 f   Lmd_Prof_Core.obj
 0001:001d9d70       ?Accounts_Prof_SetLevel@@YAXPAUAccount_s@@H@Z 201dad70 f   Lmd_Prof_Core.obj
 0001:001d9de0       ?Accounts_Prof_SetModified@@YAXPAUAccount_s@@@Z 201dade0 f   Lmd_Prof_Core.obj
 0001:001d9e10       ?Accounts_Prof_SetNewGamePlus_Counter@@YAXPAUAccount_s@@H@Z 201dae10 f   Lmd_Prof_Core.obj
 0001:001d9e80       ?Accounts_Prof_SetProfession@@YAXPAUAccount_s@@H@Z 201dae80 f   Lmd_Prof_Core.obj
 0001:001d9f70       ?Accounts_SaveProfessionData@@YAXPAUAccount_s@@H@Z 201daf70 f   Lmd_Prof_Core.obj
 0001:001da080       ?Cmd_BuyLevel_Confirm@@YAXPAUgentity_s@@PAX@Z 201db080 f   Lmd_Prof_Core.obj
 0001:001da130       ?Cmd_SkillSelect@@YAXPAUgentity_s@@HPAUprofSkill_s@@H@Z 201db130 f   Lmd_Prof_Core.obj
 0001:001dabc0       ?Cmd_SkillSelect_Level@@YAXPAUgentity_s@@HPAUprofSkill_s@@H@Z 201dbbc0 f   Lmd_Prof_Core.obj
 0001:001db460       ?Cmd_SkillSelect_List@@YAXPAUgentity_s@@HPAUprofSkill_s@@@Z 201dc460 f   Lmd_Prof_Core.obj
 0001:001db8f0       ?Experience_Level_Up@@YAXPAUgentity_s@@@Z 201dc8f0 f   Lmd_Prof_Core.obj
 0001:001dc240       ?Lmd_Prof_SkillIsAchieveable@@YAHPAUAccount_s@@HPAUprofSkill_s@@PAPAU2@@Z 201dd240 f   Lmd_Prof_Core.obj
 0001:001dc380       ?Lmd_Prof_SkillIsLeveled@@YAHPAUAccount_s@@HPAUprofSkill_s@@@Z 201dd380 f   Lmd_Prof_Core.obj
 0001:001dc440       ?PlayerAcc_Prof_CanUseProfession@@YAHPAUgentity_s@@@Z 201dd440 f   Lmd_Prof_Core.obj
 0001:001dc580       ?Prof_Init@@YAXXZ          201dd580 f   Lmd_Prof_Core.obj
 0001:001dc600       ?Profession_DisplayProfs@@YAXPAUgentity_s@@@Z 201dd600 f   Lmd_Prof_Core.obj
 0001:001dc740       ?Profession_Reset@@YAXPAUgentity_s@@@Z 201dd740 f   Lmd_Prof_Core.obj
 0001:001dc8c0       ?Profession_UpdateSkillEffects@@YAXPAUgentity_s@@H@Z 201dd8c0 f   Lmd_Prof_Core.obj
 0001:001dc9b0       ?Professions_AddAmount_SkillPoints@@YAHH@Z 201dd9b0 f   Lmd_Prof_Core.obj
 0001:001dca50       ?Professions_AvailableSkillPoints@@YAHPAUAccount_s@@HPAUprofSkill_s@@PAPAU2@@Z 201dda50 f   Lmd_Prof_Core.obj
 0001:001dcb80       ?Professions_ChooseProf@@YAHPAUgentity_s@@H@Z 201ddb80 f   Lmd_Prof_Core.obj
 0001:001dcf80       ?Professions_GetName@@YAPADH@Z 201ddf80 f   Lmd_Prof_Core.obj
 0001:001dcfb0       ?Professions_LevelCost@@YAHHHH@Z 201ddfb0 f   Lmd_Prof_Core.obj
 0001:001dd080       ?Professions_LevelCost_EXP@@YAHHH@Z 201de080 f   Lmd_Prof_Core.obj
 0001:001dd150       ?Professions_PlayerSpawn@@YAXPAUgentity_s@@@Z 201de150 f   Lmd_Prof_Core.obj
 0001:001dd1d0       ?Professions_SetDefaultSkills@@YAXPAUAccount_s@@H@Z 201de1d0 f   Lmd_Prof_Core.obj
 0001:001dd210       ?Professions_SkillCost@@YAHPAUprofSkill_s@@H@Z 201de210 f   Lmd_Prof_Core.obj
 0001:001dd2e0       ?Professions_TotalSkillPoints@@YAHPAUAccount_s@@H@Z 201de2e0 f   Lmd_Prof_Core.obj
 0001:001dd380       ?Professions_TotalSkillPoints_Basic@@YAHH@Z 201de380 f   Lmd_Prof_Core.obj
 0001:001dd3b0       ?Professions_UsedSkillPoints@@YAHPAUAccount_s@@HPAUprofSkill_s@@@Z 201de3b0 f   Lmd_Prof_Core.obj
 0001:001dd4a0       ?SetDefaultSkills@@YAXPAUAccount_s@@HPAUprofSkill_s@@@Z 201de4a0 f   Lmd_Prof_Core.obj
 0001:001dd540       ?SetSkillParents@@YAXPAUprofSkill_s@@@Z 201de540 f   Lmd_Prof_Core.obj
 0001:001dd5b0       ?is_Gameplay_Proffesion@@YA_NH@Z 201de5b0 f   Lmd_Prof_Core.obj
 0001:001dd5f0       ?Jedi_Spawn@@YAXPAUgentity_s@@@Z 201de5f0 f   Lmd_Prof_Jedi.obj
 0001:001dd740       ?CalculateOverloadValue@@YAHHH@Z 201de740 f   Lmd_Prof_Jedi.obj
 0001:001dd8f0       ?Cmd_Ionlysaber_f@@YAXPAUgentity_s@@H@Z 201de8f0 f   Lmd_Prof_Jedi.obj
 0001:001ddb00       ?Get_Jedi_hp_maxs_value@@YAHPAUgentity_s@@@Z 201deb00 f   Lmd_Prof_Jedi.obj
 0001:001ddbf0       ?Get_Jedi_mp_maxs_value@@YAHPAUgentity_s@@@Z 201debf0 f   Lmd_Prof_Jedi.obj
 0001:001ddd10       ?Get_Jedi_overload_value_cap@@YAHPAUgentity_s@@H@Z 201ded10 f   Lmd_Prof_Jedi.obj
 0001:001ddda0       ?Get_Jedi_overload_value_reg@@YAHPAUgentity_s@@H@Z 201deda0 f   Lmd_Prof_Jedi.obj
 0001:001dde30       ?Jedi_Count@@YAIXZ         201dee30 f   Lmd_Prof_Jedi.obj
 0001:001ddee0       ?Jedi_GetAccSide@@YAHPAUAccount_s@@@Z 201deee0 f   Lmd_Prof_Jedi.obj
 0001:001ddf80       ?Jedi_GetForceRegenDebounce@@YAHPAUgentity_s@@@Z 201def80 f   Lmd_Prof_Jedi.obj
 0001:001de020       ?Jedi_GetSide@@YAHPAUgentity_s@@@Z 201df020 f   Lmd_Prof_Jedi.obj
 0001:001de070       ?Jedi_SetupForce@@YAXPAUgentity_s@@@Z 201df070 f   Lmd_Prof_Jedi.obj
 0001:001de1c0       ?Lmd_Prof_Jedi_CanSetLevel@@YAHPAUAccount_s@@PAUprofSkill_s@@H@Z 201df1c0 f   Lmd_Prof_Jedi.obj
 0001:001de220       ?Lmd_Prof_Jedi_CanSetSkill_Absorb@@YAHPAXPAUprofSkill_s@@H@Z 201df220 f   Lmd_Prof_Jedi.obj
 0001:001de2a0       ?Lmd_Prof_Jedi_CanSetSkill_Drain@@YAHPAXPAUprofSkill_s@@H@Z 201df2a0 f   Lmd_Prof_Jedi.obj
 0001:001de320       ?Lmd_Prof_Jedi_CanSetSkill_Energize@@YAHPAXPAUprofSkill_s@@H@Z 201df320 f   Lmd_Prof_Jedi.obj
 0001:001de3a0       ?Lmd_Prof_Jedi_CanSetSkill_Grip@@YAHPAXPAUprofSkill_s@@H@Z 201df3a0 f   Lmd_Prof_Jedi.obj
 0001:001de420       ?Lmd_Prof_Jedi_CanSetSkill_Heal@@YAHPAXPAUprofSkill_s@@H@Z 201df420 f   Lmd_Prof_Jedi.obj
 0001:001de4a0       ?Lmd_Prof_Jedi_CanSetSkill_Jump@@YAHPAXPAUprofSkill_s@@H@Z 201df4a0 f   Lmd_Prof_Jedi.obj
 0001:001de520       ?Lmd_Prof_Jedi_CanSetSkill_Lightning@@YAHPAXPAUprofSkill_s@@H@Z 201df520 f   Lmd_Prof_Jedi.obj
 0001:001de5a0       ?Lmd_Prof_Jedi_CanSetSkill_MindTrick@@YAHPAXPAUprofSkill_s@@H@Z 201df5a0 f   Lmd_Prof_Jedi.obj
 0001:001de620       ?Lmd_Prof_Jedi_CanSetSkill_Protect@@YAHPAXPAUprofSkill_s@@H@Z 201df620 f   Lmd_Prof_Jedi.obj
 0001:001de6a0       ?Lmd_Prof_Jedi_CanSetSkill_Pull@@YAHPAXPAUprofSkill_s@@H@Z 201df6a0 f   Lmd_Prof_Jedi.obj
 0001:001de720       ?Lmd_Prof_Jedi_CanSetSkill_Push@@YAHPAXPAUprofSkill_s@@H@Z 201df720 f   Lmd_Prof_Jedi.obj
 0001:001de7a0       ?Lmd_Prof_Jedi_CanSetSkill_Rage@@YAHPAXPAUprofSkill_s@@H@Z 201df7a0 f   Lmd_Prof_Jedi.obj
 0001:001de820       ?Lmd_Prof_Jedi_CanSetSkill_Saber_Attack@@YAHPAXPAUprofSkill_s@@H@Z 201df820 f   Lmd_Prof_Jedi.obj
 0001:001de8a0       ?Lmd_Prof_Jedi_CanSetSkill_Saber_Defend@@YAHPAXPAUprofSkill_s@@H@Z 201df8a0 f   Lmd_Prof_Jedi.obj
 0001:001de920       ?Lmd_Prof_Jedi_CanSetSkill_Saber_Throw@@YAHPAXPAUprofSkill_s@@H@Z 201df920 f   Lmd_Prof_Jedi.obj
 0001:001de9a0       ?Lmd_Prof_Jedi_CanSetSkill_Seeing@@YAHPAXPAUprofSkill_s@@H@Z 201df9a0 f   Lmd_Prof_Jedi.obj
 0001:001dea20       ?Lmd_Prof_Jedi_CanSetSkill_Speed@@YAHPAXPAUprofSkill_s@@H@Z 201dfa20 f   Lmd_Prof_Jedi.obj
 0001:001deaa0       ?Lmd_Prof_Jedi_CanSetSkill_TeamHeal@@YAHPAXPAUprofSkill_s@@H@Z 201dfaa0 f   Lmd_Prof_Jedi.obj
 0001:001deb20       ?Lmd_Prof_Jedi_CanSetSkill_hp_maxs@@YAHPAXPAUprofSkill_s@@H@Z 201dfb20 f   Lmd_Prof_Jedi.obj
 0001:001deba0       ?Lmd_Prof_Jedi_CanSetSkill_mp_maxs@@YAHPAXPAUprofSkill_s@@H@Z 201dfba0 f   Lmd_Prof_Jedi.obj
 0001:001dec20       ?Lmd_Prof_Jedi_CanSetSkill_overload@@YAHPAXPAUprofSkill_s@@H@Z 201dfc20 f   Lmd_Prof_Jedi.obj
 0001:001deca0       ?Lmd_Prof_Jedi_CanSetSkill_thousandcuts@@YAHPAXPAUprofSkill_s@@H@Z 201dfca0 f   Lmd_Prof_Jedi.obj
 0001:001ded20       ?Lmd_Prof_Jedi_GetDrain@@YAHPAUAccount_s@@@Z 201dfd20 f   Lmd_Prof_Jedi.obj
 0001:001ded60       ?Lmd_Prof_Jedi_GetLevel@@YAHPAUAccount_s@@PAUprofSkill_s@@@Z 201dfd60 f   Lmd_Prof_Jedi.obj
 0001:001deda0       ?Lmd_Prof_Jedi_GetRage@@YAHPAUAccount_s@@@Z 201dfda0 f   Lmd_Prof_Jedi.obj
 0001:001dede0       ?Lmd_Prof_Jedi_GetSkill_Absorb@@YAHPAXPAUprofSkill_s@@@Z 201dfde0 f   Lmd_Prof_Jedi.obj
 0001:001dee50       ?Lmd_Prof_Jedi_GetSkill_Drain@@YAHPAXPAUprofSkill_s@@@Z 201dfe50 f   Lmd_Prof_Jedi.obj
 0001:001deec0       ?Lmd_Prof_Jedi_GetSkill_Energize@@YAHPAXPAUprofSkill_s@@@Z 201dfec0 f   Lmd_Prof_Jedi.obj
 0001:001def30       ?Lmd_Prof_Jedi_GetSkill_Grip@@YAHPAXPAUprofSkill_s@@@Z 201dff30 f   Lmd_Prof_Jedi.obj
 0001:001defa0       ?Lmd_Prof_Jedi_GetSkill_Heal@@YAHPAXPAUprofSkill_s@@@Z 201dffa0 f   Lmd_Prof_Jedi.obj
 0001:001df010       ?Lmd_Prof_Jedi_GetSkill_Jump@@YAHPAXPAUprofSkill_s@@@Z 201e0010 f   Lmd_Prof_Jedi.obj
 0001:001df080       ?Lmd_Prof_Jedi_GetSkill_Lightning@@YAHPAXPAUprofSkill_s@@@Z 201e0080 f   Lmd_Prof_Jedi.obj
 0001:001df0f0       ?Lmd_Prof_Jedi_GetSkill_MindTrick@@YAHPAXPAUprofSkill_s@@@Z 201e00f0 f   Lmd_Prof_Jedi.obj
 0001:001df160       ?Lmd_Prof_Jedi_GetSkill_Protect@@YAHPAXPAUprofSkill_s@@@Z 201e0160 f   Lmd_Prof_Jedi.obj
 0001:001df1d0       ?Lmd_Prof_Jedi_GetSkill_Pull@@YAHPAXPAUprofSkill_s@@@Z 201e01d0 f   Lmd_Prof_Jedi.obj
 0001:001df240       ?Lmd_Prof_Jedi_GetSkill_Push@@YAHPAXPAUprofSkill_s@@@Z 201e0240 f   Lmd_Prof_Jedi.obj
 0001:001df2b0       ?Lmd_Prof_Jedi_GetSkill_Rage@@YAHPAXPAUprofSkill_s@@@Z 201e02b0 f   Lmd_Prof_Jedi.obj
 0001:001df320       ?Lmd_Prof_Jedi_GetSkill_Saber_Attack@@YAHPAXPAUprofSkill_s@@@Z 201e0320 f   Lmd_Prof_Jedi.obj
 0001:001df390       ?Lmd_Prof_Jedi_GetSkill_Saber_Defend@@YAHPAXPAUprofSkill_s@@@Z 201e0390 f   Lmd_Prof_Jedi.obj
 0001:001df400       ?Lmd_Prof_Jedi_GetSkill_Saber_Throw@@YAHPAXPAUprofSkill_s@@@Z 201e0400 f   Lmd_Prof_Jedi.obj
 0001:001df470       ?Lmd_Prof_Jedi_GetSkill_Seeing@@YAHPAXPAUprofSkill_s@@@Z 201e0470 f   Lmd_Prof_Jedi.obj
 0001:001df4e0       ?Lmd_Prof_Jedi_GetSkill_Speed@@YAHPAXPAUprofSkill_s@@@Z 201e04e0 f   Lmd_Prof_Jedi.obj
 0001:001df550       ?Lmd_Prof_Jedi_GetSkill_TeamHeal@@YAHPAXPAUprofSkill_s@@@Z 201e0550 f   Lmd_Prof_Jedi.obj
 0001:001df5c0       ?Lmd_Prof_Jedi_GetSkill_hp_maxs@@YAHPAXPAUprofSkill_s@@@Z 201e05c0 f   Lmd_Prof_Jedi.obj
 0001:001df630       ?Lmd_Prof_Jedi_GetSkill_mp_maxs@@YAHPAXPAUprofSkill_s@@@Z 201e0630 f   Lmd_Prof_Jedi.obj
 0001:001df6a0       ?Lmd_Prof_Jedi_GetSkill_overload@@YAHPAXPAUprofSkill_s@@@Z 201e06a0 f   Lmd_Prof_Jedi.obj
 0001:001df710       ?Lmd_Prof_Jedi_GetSkill_thousandcuts@@YAHPAXPAUprofSkill_s@@@Z 201e0710 f   Lmd_Prof_Jedi.obj
 0001:001df780       ?Lmd_Prof_Jedi_GetThousandCutsSkill@@YAHPAUAccount_s@@@Z 201e0780 f   Lmd_Prof_Jedi.obj
 0001:001df7c0       ?Lmd_Prof_Jedi_SetLevel@@YAHPAUAccount_s@@PAUprofSkill_s@@H@Z 201e07c0 f   Lmd_Prof_Jedi.obj
 0001:001df820       ?Lmd_Prof_Jedi_SetSkill_Absorb@@YAHPAXPAUprofSkill_s@@H@Z 201e0820 f   Lmd_Prof_Jedi.obj
 0001:001df8a0       ?Lmd_Prof_Jedi_SetSkill_Drain@@YAHPAXPAUprofSkill_s@@H@Z 201e08a0 f   Lmd_Prof_Jedi.obj
 0001:001df920       ?Lmd_Prof_Jedi_SetSkill_Energize@@YAHPAXPAUprofSkill_s@@H@Z 201e0920 f   Lmd_Prof_Jedi.obj
 0001:001df9a0       ?Lmd_Prof_Jedi_SetSkill_Grip@@YAHPAXPAUprofSkill_s@@H@Z 201e09a0 f   Lmd_Prof_Jedi.obj
 0001:001dfa20       ?Lmd_Prof_Jedi_SetSkill_Heal@@YAHPAXPAUprofSkill_s@@H@Z 201e0a20 f   Lmd_Prof_Jedi.obj
 0001:001dfaa0       ?Lmd_Prof_Jedi_SetSkill_Jump@@YAHPAXPAUprofSkill_s@@H@Z 201e0aa0 f   Lmd_Prof_Jedi.obj
 0001:001dfb20       ?Lmd_Prof_Jedi_SetSkill_Lightning@@YAHPAXPAUprofSkill_s@@H@Z 201e0b20 f   Lmd_Prof_Jedi.obj
 0001:001dfba0       ?Lmd_Prof_Jedi_SetSkill_MindTrick@@YAHPAXPAUprofSkill_s@@H@Z 201e0ba0 f   Lmd_Prof_Jedi.obj
 0001:001dfc20       ?Lmd_Prof_Jedi_SetSkill_Protect@@YAHPAXPAUprofSkill_s@@H@Z 201e0c20 f   Lmd_Prof_Jedi.obj
 0001:001dfca0       ?Lmd_Prof_Jedi_SetSkill_Pull@@YAHPAXPAUprofSkill_s@@H@Z 201e0ca0 f   Lmd_Prof_Jedi.obj
 0001:001dfd20       ?Lmd_Prof_Jedi_SetSkill_Push@@YAHPAXPAUprofSkill_s@@H@Z 201e0d20 f   Lmd_Prof_Jedi.obj
 0001:001dfda0       ?Lmd_Prof_Jedi_SetSkill_Rage@@YAHPAXPAUprofSkill_s@@H@Z 201e0da0 f   Lmd_Prof_Jedi.obj
 0001:001dfe20       ?Lmd_Prof_Jedi_SetSkill_Saber_Attack@@YAHPAXPAUprofSkill_s@@H@Z 201e0e20 f   Lmd_Prof_Jedi.obj
 0001:001dfea0       ?Lmd_Prof_Jedi_SetSkill_Saber_Defend@@YAHPAXPAUprofSkill_s@@H@Z 201e0ea0 f   Lmd_Prof_Jedi.obj
 0001:001dff20       ?Lmd_Prof_Jedi_SetSkill_Saber_Throw@@YAHPAXPAUprofSkill_s@@H@Z 201e0f20 f   Lmd_Prof_Jedi.obj
 0001:001dffa0       ?Lmd_Prof_Jedi_SetSkill_Seeing@@YAHPAXPAUprofSkill_s@@H@Z 201e0fa0 f   Lmd_Prof_Jedi.obj
 0001:001e0020       ?Lmd_Prof_Jedi_SetSkill_Speed@@YAHPAXPAUprofSkill_s@@H@Z 201e1020 f   Lmd_Prof_Jedi.obj
 0001:001e00a0       ?Lmd_Prof_Jedi_SetSkill_TeamHeal@@YAHPAXPAUprofSkill_s@@H@Z 201e10a0 f   Lmd_Prof_Jedi.obj
 0001:001e0120       ?Lmd_Prof_Jedi_SetSkill_hp_maxs@@YAHPAXPAUprofSkill_s@@H@Z 201e1120 f   Lmd_Prof_Jedi.obj
 0001:001e01a0       ?Lmd_Prof_Jedi_SetSkill_mp_maxs@@YAHPAXPAUprofSkill_s@@H@Z 201e11a0 f   Lmd_Prof_Jedi.obj
 0001:001e0220       ?Lmd_Prof_Jedi_SetSkill_overload@@YAHPAXPAUprofSkill_s@@H@Z 201e1220 f   Lmd_Prof_Jedi.obj
 0001:001e02a0       ?Lmd_Prof_Jedi_SetSkill_thousandcuts@@YAHPAXPAUprofSkill_s@@H@Z 201e12a0 f   Lmd_Prof_Jedi.obj
 0001:001e0320       ?Merc_Spawn@@YAXPAUgentity_s@@@Z 201e1320 f   Lmd_Prof_Merc.obj
 0001:001e05d0       ?Bot_Merc_Spawn_Weapons@@YAXPAUgentity_s@@@Z 201e15d0 f   Lmd_Prof_Merc.obj
 0001:001e1070       ?Cmd_Cortosis_f@@YAXPAUgentity_s@@H@Z 201e2070 f   Lmd_Prof_Merc.obj
 0001:001e11a0       ?Cmd_Flame_f@@YAXPAUgentity_s@@H@Z 201e21a0 f   Lmd_Prof_Merc.obj
 0001:001e1220       ?Cmd_MercWeapon_f@@YAXPAUgentity_s@@H@Z 201e2220 f   Lmd_Prof_Merc.obj
 0001:001e1310       ?Cmd_Ysalamiri_f@@YAXPAUgentity_s@@H@Z 201e2310 f   Lmd_Prof_Merc.obj
 0001:001e1650       ?Get_Merc_hp_maxs_value@@YAHPAUgentity_s@@@Z 201e2650 f   Lmd_Prof_Merc.obj
 0001:001e1720       ?Get_Merc_sd_maxs_value@@YAHPAUgentity_s@@@Z 201e2720 f   Lmd_Prof_Merc.obj
 0001:001e17a0       ?Lmd_Prof_Merc_CanSetSkill_ammo@@YAHPAXPAUprofSkill_s@@H@Z 201e27a0 f   Lmd_Prof_Merc.obj
 0001:001e1830       ?Lmd_Prof_Merc_CanSetSkill_armor@@YAHPAXPAUprofSkill_s@@H@Z 201e2830 f   Lmd_Prof_Merc.obj
 0001:001e18c0       ?Lmd_Prof_Merc_CanSetSkill_binoculars@@YAHPAXPAUprofSkill_s@@H@Z 201e28c0 f   Lmd_Prof_Merc.obj
 0001:001e1950       ?Lmd_Prof_Merc_CanSetSkill_flame@@YAHPAXPAUprofSkill_s@@H@Z 201e2950 f   Lmd_Prof_Merc.obj
 0001:001e19e0       ?Lmd_Prof_Merc_CanSetSkill_forceresist@@YAHPAXPAUprofSkill_s@@H@Z 201e29e0 f   Lmd_Prof_Merc.obj
 0001:001e1a70       ?Lmd_Prof_Merc_CanSetSkill_fuel@@YAHPAXPAUprofSkill_s@@H@Z 201e2a70 f   Lmd_Prof_Merc.obj
 0001:001e1b00       ?Lmd_Prof_Merc_CanSetSkill_hp_maxs@@YAHPAXPAUprofSkill_s@@H@Z 201e2b00 f   Lmd_Prof_Merc.obj
 0001:001e1b90       ?Lmd_Prof_Merc_CanSetSkill_lethality@@YAHPAXPAUprofSkill_s@@H@Z 201e2b90 f   Lmd_Prof_Merc.obj
 0001:001e1c20       ?Lmd_Prof_Merc_CanSetSkill_melee@@YAHPAXPAUprofSkill_s@@H@Z 201e2c20 f   Lmd_Prof_Merc.obj
 0001:001e1cb0       ?Lmd_Prof_Merc_CanSetSkill_perfect_aim@@YAHPAXPAUprofSkill_s@@H@Z 201e2cb0 f   Lmd_Prof_Merc.obj
 0001:001e1d40       ?Lmd_Prof_Merc_CanSetSkill_regeneration@@YAHPAXPAUprofSkill_s@@H@Z 201e2d40 f   Lmd_Prof_Merc.obj
 0001:001e1dd0       ?Lmd_Prof_Merc_CanSetSkill_rifle_master@@YAHPAXPAUprofSkill_s@@H@Z 201e2dd0 f   Lmd_Prof_Merc.obj
 0001:001e1e60       ?Lmd_Prof_Merc_CanSetSkill_sd_maxs@@YAHPAXPAUprofSkill_s@@H@Z 201e2e60 f   Lmd_Prof_Merc.obj
 0001:001e1ef0       ?Lmd_Prof_Merc_CanSetSkill_weapon@@YAHPAXPAUprofSkill_s@@H@Z 201e2ef0 f   Lmd_Prof_Merc.obj
 0001:001e1f80       ?Lmd_Prof_Merc_CanSetSkill_ysalamiri@@YAHPAXPAUprofSkill_s@@H@Z 201e2f80 f   Lmd_Prof_Merc.obj
 0001:001e2010       ?Lmd_Prof_Merc_GetAmmoSkill@@YAHPAUAccount_s@@@Z 201e3010 f   Lmd_Prof_Merc.obj
 0001:001e2050       ?Lmd_Prof_Merc_GetForceResistanceSkill@@YAHPAUAccount_s@@@Z 201e3050 f   Lmd_Prof_Merc.obj
 0001:001e2090       ?Lmd_Prof_Merc_GetLethalitySkill@@YAHPAUAccount_s@@@Z 201e3090 f   Lmd_Prof_Merc.obj
 0001:001e20d0       ?Lmd_Prof_Merc_GetMeleeSkill@@YAHPAUAccount_s@@@Z 201e30d0 f   Lmd_Prof_Merc.obj
 0001:001e2110       ?Lmd_Prof_Merc_GetSkill_ammo@@YAHPAXPAUprofSkill_s@@@Z 201e3110 f   Lmd_Prof_Merc.obj
 0001:001e2170       ?Lmd_Prof_Merc_GetSkill_armor@@YAHPAXPAUprofSkill_s@@@Z 201e3170 f   Lmd_Prof_Merc.obj
 0001:001e21d0       ?Lmd_Prof_Merc_GetSkill_binoculars@@YAHPAXPAUprofSkill_s@@@Z 201e31d0 f   Lmd_Prof_Merc.obj
 0001:001e2230       ?Lmd_Prof_Merc_GetSkill_flame@@YAHPAXPAUprofSkill_s@@@Z 201e3230 f   Lmd_Prof_Merc.obj
 0001:001e2290       ?Lmd_Prof_Merc_GetSkill_forceresist@@YAHPAXPAUprofSkill_s@@@Z 201e3290 f   Lmd_Prof_Merc.obj
 0001:001e22f0       ?Lmd_Prof_Merc_GetSkill_fuel@@YAHPAXPAUprofSkill_s@@@Z 201e32f0 f   Lmd_Prof_Merc.obj
 0001:001e2350       ?Lmd_Prof_Merc_GetSkill_hp_maxs@@YAHPAXPAUprofSkill_s@@@Z 201e3350 f   Lmd_Prof_Merc.obj
 0001:001e23b0       ?Lmd_Prof_Merc_GetSkill_lethality@@YAHPAXPAUprofSkill_s@@@Z 201e33b0 f   Lmd_Prof_Merc.obj
 0001:001e2410       ?Lmd_Prof_Merc_GetSkill_melee@@YAHPAXPAUprofSkill_s@@@Z 201e3410 f   Lmd_Prof_Merc.obj
 0001:001e2470       ?Lmd_Prof_Merc_GetSkill_perfect_aim@@YAHPAXPAUprofSkill_s@@@Z 201e3470 f   Lmd_Prof_Merc.obj
 0001:001e24d0       ?Lmd_Prof_Merc_GetSkill_regeneration@@YAHPAXPAUprofSkill_s@@@Z 201e34d0 f   Lmd_Prof_Merc.obj
 0001:001e2530       ?Lmd_Prof_Merc_GetSkill_rifle_master@@YAHPAXPAUprofSkill_s@@@Z 201e3530 f   Lmd_Prof_Merc.obj
 0001:001e2590       ?Lmd_Prof_Merc_GetSkill_sd_maxs@@YAHPAXPAUprofSkill_s@@@Z 201e3590 f   Lmd_Prof_Merc.obj
 0001:001e25f0       ?Lmd_Prof_Merc_GetSkill_weapon@@YAHPAXPAUprofSkill_s@@@Z 201e35f0 f   Lmd_Prof_Merc.obj
 0001:001e2650       ?Lmd_Prof_Merc_GetSkill_ysalamiri@@YAHPAXPAUprofSkill_s@@@Z 201e3650 f   Lmd_Prof_Merc.obj
 0001:001e26b0       ?Lmd_Prof_Merc_GetStashRangeSkill@@YAHPAUAccount_s@@@Z 201e36b0 f   Lmd_Prof_Merc.obj
 0001:001e26f0       ?Lmd_Prof_Merc_GetWeaponsSkill@@YAHPAUAccount_s@@@Z 201e36f0 f   Lmd_Prof_Merc.obj
 0001:001e2730       ?Lmd_Prof_Merc_GetYsalamiriSkill@@YAHPAUAccount_s@@@Z 201e3730 f   Lmd_Prof_Merc.obj
 0001:001e2770       ?Lmd_Prof_Merc_Getperfect_aimSkill@@YAHPAUAccount_s@@@Z 201e3770 f   Lmd_Prof_Merc.obj
 0001:001e27b0       ?Lmd_Prof_Merc_GetregenerationSkill@@YAHPAUAccount_s@@@Z 201e37b0 f   Lmd_Prof_Merc.obj
 0001:001e27f0       ?Lmd_Prof_Merc_Getrifle_masterSkill@@YAHPAUAccount_s@@@Z 201e37f0 f   Lmd_Prof_Merc.obj
 0001:001e2830       ?Lmd_Prof_Merc_SetSkill_ammo@@YAHPAXPAUprofSkill_s@@H@Z 201e3830 f   Lmd_Prof_Merc.obj
 0001:001e28b0       ?Lmd_Prof_Merc_SetSkill_armor@@YAHPAXPAUprofSkill_s@@H@Z 201e38b0 f   Lmd_Prof_Merc.obj
 0001:001e2930       ?Lmd_Prof_Merc_SetSkill_binoculars@@YAHPAXPAUprofSkill_s@@H@Z 201e3930 f   Lmd_Prof_Merc.obj
 0001:001e29b0       ?Lmd_Prof_Merc_SetSkill_flame@@YAHPAXPAUprofSkill_s@@H@Z 201e39b0 f   Lmd_Prof_Merc.obj
 0001:001e2a30       ?Lmd_Prof_Merc_SetSkill_forceresist@@YAHPAXPAUprofSkill_s@@H@Z 201e3a30 f   Lmd_Prof_Merc.obj
 0001:001e2ab0       ?Lmd_Prof_Merc_SetSkill_fuel@@YAHPAXPAUprofSkill_s@@H@Z 201e3ab0 f   Lmd_Prof_Merc.obj
 0001:001e2b30       ?Lmd_Prof_Merc_SetSkill_hp_maxs@@YAHPAXPAUprofSkill_s@@H@Z 201e3b30 f   Lmd_Prof_Merc.obj
 0001:001e2bb0       ?Lmd_Prof_Merc_SetSkill_lethality@@YAHPAXPAUprofSkill_s@@H@Z 201e3bb0 f   Lmd_Prof_Merc.obj
 0001:001e2c30       ?Lmd_Prof_Merc_SetSkill_melee@@YAHPAXPAUprofSkill_s@@H@Z 201e3c30 f   Lmd_Prof_Merc.obj
 0001:001e2ca0       ?Lmd_Prof_Merc_SetSkill_perfect_aim@@YAHPAXPAUprofSkill_s@@H@Z 201e3ca0 f   Lmd_Prof_Merc.obj
 0001:001e2d20       ?Lmd_Prof_Merc_SetSkill_regeneration@@YAHPAXPAUprofSkill_s@@H@Z 201e3d20 f   Lmd_Prof_Merc.obj
 0001:001e2da0       ?Lmd_Prof_Merc_SetSkill_rifle_master@@YAHPAXPAUprofSkill_s@@H@Z 201e3da0 f   Lmd_Prof_Merc.obj
 0001:001e2e20       ?Lmd_Prof_Merc_SetSkill_sd_maxs@@YAHPAXPAUprofSkill_s@@H@Z 201e3e20 f   Lmd_Prof_Merc.obj
 0001:001e2ea0       ?Lmd_Prof_Merc_SetSkill_weapon@@YAHPAXPAUprofSkill_s@@H@Z 201e3ea0 f   Lmd_Prof_Merc.obj
 0001:001e2f20       ?Lmd_Prof_Merc_SetSkill_ysalamiri@@YAHPAXPAUprofSkill_s@@H@Z 201e3f20 f   Lmd_Prof_Merc.obj
 0001:001e2fa0       ?Merc_CheckHook@@YAHPAUgentity_s@@@Z 201e3fa0 f   Lmd_Prof_Merc.obj
 0001:001e3810       ?Merc_ChooseWeapon@@YAXPAUgentity_s@@PAD@Z 201e4810 f   Lmd_Prof_Merc.obj
 0001:001e3aa0       ?Merc_CreateGrappleNode@@YAXPAUgentity_s@@QAM@Z 201e4aa0 f   Lmd_Prof_Merc.obj
 0001:001e3cf0       ?Merc_DisplayWeapons@@YAXPAUgentity_s@@@Z 201e4cf0 f   Lmd_Prof_Merc.obj
 0001:001e3f70       ?Merc_DrawHook@@YAXPAUgentity_s@@@Z 201e4f70 f   Lmd_Prof_Merc.obj
 0001:001e44d0       ?Merc_FireGrapplingHook@@YAXPAUgentity_s@@H@Z 201e54d0 f   Lmd_Prof_Merc.obj
 0001:001e4a90       ?Merc_GiveStartingWeapons@@YAXPAUgentity_s@@@Z 201e5a90 f   Lmd_Prof_Merc.obj
 0001:001e4d80       ?Merc_JetpackDefuel@@YAHPAUgentity_s@@@Z 201e5d80 f   Lmd_Prof_Merc.obj
 0001:001e4e50       ?Merc_JetpackRefuel@@YAHPAUgentity_s@@@Z 201e5e50 f   Lmd_Prof_Merc.obj
 0001:001e4ec0       ?Merc_SpeedFactor@@YAMPAUgentity_s@@@Z 201e5ec0 f   Lmd_Prof_Merc.obj
 0001:001e4f40       ?Merc_TotalWeaponPoints@@YAHPAUgentity_s@@@Z 201e5f40 f   Lmd_Prof_Merc.obj
 0001:001e4f90       ?Merc_Unhook@@YAXPAUgentity_s@@@Z 201e5f90 f   Lmd_Prof_Merc.obj
 0001:001e50a0       ?Merc_UsedWeaponPoints@@YAHPAUgentity_s@@@Z 201e60a0 f   Lmd_Prof_Merc.obj
 0001:001e5140       ?Prof_Merc_Flame@@YAXPAUgentity_s@@@Z 201e6140 f   Lmd_Prof_Merc.obj
 0001:001e5f30       ?YsalamiriBlast@@YAXQAMH@Z 201e6f30 f   Lmd_Prof_Merc.obj
 0001:001e6160       ?Spawn_NoProf@@YAXPAUgentity_s@@@Z 201e7160 f   Lmd_Prof_Other.obj
 0001:001e6230       ?Spawn_GodProf@@YAXPAUgentity_s@@@Z 201e7230 f   Lmd_Prof_Other.obj
 0001:001e6300       ?SP_random_spot@@YAXPAUgentity_s@@@Z 201e7300 f   Lmd_RandomSpot.obj
 0001:001e6500       ?count_random_spots@@YAHXZ 201e7500 f   Lmd_RandomSpot.obj
 0001:001e65c0       ?pick_random_spot@@YAPAUgentity_s@@XZ 201e75c0 f   Lmd_RandomSpot.obj
 0001:001e66d0       ?random_spot_think@@YAXPAUgentity_s@@@Z 201e76d0 f   Lmd_RandomSpot.obj
 0001:001e6730       ?countZoneStashes@@YAIPAD@Z 201e7730 f   Lmd_StashZone.obj
 0001:001e6800       ?dropMoneyStash@@YAXPAUgentity_s@@@Z 201e7800 f   Lmd_StashZone.obj
 0001:001e68e0       ?entityInStashZone@@YAPAUgentity_s@@PAU1@PAD@Z 201e78e0 f   Lmd_StashZone.obj
 0001:001e6d90       ?findLmdStashSpawnpoints@@YAIPADQAPAUgentity_s@@IH@Z 201e7d90 f   Lmd_StashZone.obj
 0001:001e6e90       ?lmd_stash@@YAXPAUgentity_s@@@Z 201e7e90 f   Lmd_StashZone.obj
 0001:001e6f70       ?lmd_stash_canPickup@@YAHPAUgentity_s@@0@Z 201e7f70 f   Lmd_StashZone.obj
 0001:001e72e0       ?lmd_stash_deposit@@YAXPAUgentity_s@@HHPAD@Z 201e82e0 f   Lmd_StashZone.obj
 0001:001e7720       ?lmd_stash_destroy@@YAXPAUgentity_s@@@Z 201e8720 f   Lmd_StashZone.obj
 0001:001e77d0       ?lmd_stash_drop@@YAXPAUgentity_s@@@Z 201e87d0 f   Lmd_StashZone.obj
 0001:001e7a90       ?lmd_stash_pickup@@YAXPAUgentity_s@@0@Z 201e8a90 f   Lmd_StashZone.obj
 0001:001e7ff0       ?lmd_stash_reset@@YAXPAUgentity_s@@0@Z 201e8ff0 f   Lmd_StashZone.obj
 0001:001e8240       ?lmd_stash_spawn@@YAXPAUgentity_s@@@Z 201e9240 f   Lmd_StashZone.obj
 0001:001e82d0       ?lmd_stash_startDeposit@@YAXPAUgentity_s@@PAD@Z 201e92d0 f   Lmd_StashZone.obj
 0001:001e85e0       ?lmd_stash_stopcarry@@YAXPAUgentity_s@@@Z 201e95e0 f   Lmd_StashZone.obj
 0001:001e8630       ?lmd_stash_think@@YAXPAUgentity_s@@@Z 201e9630 f   Lmd_StashZone.obj
 0001:001e8f80       ?lmd_stash_touch@@YAXPAUgentity_s@@0PAUtrace_t@@@Z 201e9f80 f   Lmd_StashZone.obj
 0001:001e8fb0       ?lmd_stash_tryPickup@@YAXPAUgentity_s@@0@Z 201e9fb0 f   Lmd_StashZone.obj
 0001:001e9000       ?lmd_stash_tryReset@@YAXPAUgentity_s@@@Z 201ea000 f   Lmd_StashZone.obj
 0001:001e90d0       ?lmd_stash_validParent@@YAHPAUgentity_s@@@Z 201ea0d0 f   Lmd_StashZone.obj
 0001:001e9140       ?lmd_stashdepo@@YAXPAUgentity_s@@@Z 201ea140 f   Lmd_StashZone.obj
 0001:001e94b0       ?lmd_stashdepo_deposit@@YAXPAUgentity_s@@0@Z 201ea4b0 f   Lmd_StashZone.obj
 0001:001e95e0       ?lmd_stashdepo_makezone@@YAHPAUgentity_s@@@Z 201ea5e0 f   Lmd_StashZone.obj
 0001:001e9800       ?lmd_stashdepo_use@@YAXPAUgentity_s@@00@Z 201ea800 f   Lmd_StashZone.obj
 0001:001e9d10       ?lmd_stashdepozone_think@@YAXPAUgentity_s@@@Z 201ead10 f   Lmd_StashZone.obj
 0001:001e9de0       ?lmd_stashspawnpoint@@YAXPAUgentity_s@@@Z 201eade0 f   Lmd_StashZone.obj
 0001:001ea940       ?lmd_stashspawnpoint_spawnstash@@YAXPAUgentity_s@@@Z 201eb940 f   Lmd_StashZone.obj
 0001:001eb410       ?lmd_stashspawnpoint_think@@YAXPAUgentity_s@@@Z 201ec410 f   Lmd_StashZone.obj
 0001:001eb490       ?lmd_stashspawnpoint_use@@YAXPAUgentity_s@@00@Z 201ec490 f   Lmd_StashZone.obj
 0001:001eb4d0       ?lmd_stashzone@@YAXPAUgentity_s@@@Z 201ec4d0 f   Lmd_StashZone.obj
 0001:001eb5a0       ?tryStashSpawnCheck@@YAHPAUgentity_s@@H@Z 201ec5a0 f   Lmd_StashZone.obj
 0001:001eb7b0       ?Time_Days@@YAII@Z         201ec7b0 f   Lmd_Time.obj
 0001:001eb7f0       ?Time_DaysToTime@@YAII@Z   201ec7f0 f   Lmd_Time.obj
 0001:001eb810       ?Time_DurationString@@YAXHPADH@Z 201ec810 f   Lmd_Time.obj
 0001:001eb9d0       ?Time_MonthFromDays@@YAIPAI0@Z 201ec9d0 f   Lmd_Time.obj
 0001:001eba60       ?Time_Now@@YAIXZ           201eca60 f   Lmd_Time.obj
 0001:001ebad0       ?Time_ParseDayValue@@YAII@Z 201ecad0 f   Lmd_Time.obj
 0001:001ebb90       ?Time_ParseString@@YAIPAD@Z 201ecb90 f   Lmd_Time.obj
 0001:001ec010       ?Time_ToHumanString@@YAXIPADI@Z 201ed010 f   Lmd_Time.obj
 0001:001ec250       ?Time_ToString@@YAXIPADI@Z 201ed250 f   Lmd_Time.obj
 0001:001ec530       ?daysformonth@@YAIII@Z     201ed530 f   Lmd_Time.obj
 0001:001ec600       ?Weapon_Bryar_AltFire@@YAXPAUgentity_s@@0PAUweaponFire_s@@@Z 201ed600 f   Lmd_Weapons_Core.obj
 0001:001ec870       ?Weapon_Disruptor_Fire@@YAXPAUgentity_s@@0PAUweaponFire_s@@@Z 201ed870 f   Lmd_Weapons_Core.obj
 0001:001ed3e0       ?Weapon_Disruptor_AltFire@@YAXPAUgentity_s@@0PAUweaponFire_s@@@Z 201ee3e0 f   Lmd_Weapons_Core.obj
 0001:001ee5d0       ?Weapon_Bowcaster_Fire@@YAXPAUgentity_s@@0PAUweaponFire_s@@@Z 201ef5d0 f   Lmd_Weapons_Core.obj
 0001:001eebe0       ?Weapon_Repeater_AltFire@@YAXPAUgentity_s@@0PAUweaponFire_s@@@Z 201efbe0 f   Lmd_Weapons_Core.obj
 0001:001eec70       ?Weapon_DEMP2_AltFire@@YAXPAUgentity_s@@0PAUweaponFire_s@@@Z 201efc70 f   Lmd_Weapons_Core.obj
 0001:001ef080       ?Weapon_Flechette_AltFire@@YAXPAUgentity_s@@0PAUweaponFire_s@@@Z 201f0080 f   Lmd_Weapons_Core.obj
 0001:001ef310       ?Weapon_RocketLauncher_Primary@@YAXPAUgentity_s@@0PAUweaponFire_s@@@Z 201f0310 f   Lmd_Weapons_Core.obj
 0001:001ef340       ?Weapon_RocketLauncher_Alt@@YAXPAUgentity_s@@0PAUweaponFire_s@@@Z 201f0340 f   Lmd_Weapons_Core.obj
 0001:001ef390       ?Weapon_Concussion_AltFire@@YAXPAUgentity_s@@0PAUweaponFire_s@@@Z 201f0390 f   Lmd_Weapons_Core.obj
 0001:001f08f0       ?G_CanDisruptify@@YAHPAUgentity_s@@@Z 201f18f0 f   Lmd_Weapons_Core.obj
 0001:001f0b20       ?Weapon_DEMP2_AltDetonate@@YAXPAUgentity_s@@@Z 201f1b20 f   Lmd_Weapons_Core.obj
 0001:001f0cc0       ?Weapon_DEMP2_AltRadiusDamage@@YAXPAUgentity_s@@@Z 201f1cc0 f   Lmd_Weapons_Core.obj
 0001:001f15d0       ?Weapon_Fire@@YAHPAUgentity_s@@HH@Z 201f25d0 f   Lmd_Weapons_Core.obj
 0001:001f16c0       ?Weapon_FireEnergy@@YAHPAUgentity_s@@HH@Z 201f26c0 f   Lmd_Weapons_Core.obj
 0001:001f1730       ?Weapon_FireProjectile@@YAXPAUgentity_s@@HHPAUweaponFire_s@@@Z 201f2730 f   Lmd_Weapons_Core.obj
 0001:001f1de0       ?Weapon_FireRate@@YAHPAUgentity_s@@HH@Z 201f2de0 f   Lmd_Weapons_Core.obj
 0001:001f1e70       ?Weapon_Flechette_AltFireDo@@YAXQAM0PAUgentity_s@@PAUweaponFire_s@@@Z 201f2e70 f   Lmd_Weapons_Core.obj
 0001:001f22e0       ?Weapon_Flechette_Alt_Explode@@YAXPAUgentity_s@@@Z 201f32e0 f   Lmd_Weapons_Core.obj
 0001:001f24d0       ?Weapon_Flechette_Alt_Think@@YAXPAUgentity_s@@@Z 201f34d0 f   Lmd_Weapons_Core.obj
 0001:001f2650       ?Weapon_Homing_Think@@YAXPAUgentity_s@@@Z 201f3650 f   Lmd_Weapons_Core.obj
 0001:001f34d0       ?Weapon_RocketLauncher_Fire@@YAXPAUgentity_s@@0PAUweaponFire_s@@H@Z 201f44d0 f   Lmd_Weapons_Core.obj
 0001:001f3820       ?Weapon_RocketLauncher_RocketDie@@YAXPAUgentity_s@@00HH@Z 201f4820 f   Lmd_Weapons_Core.obj
 0001:001f3890       ?BodyRemovalPadTime@@YAHPAUgentity_s@@@Z 201f4890 f   NPC.obj
 0001:001f3950       ?ClearNPCGlobals@@YAXXZ    201f4950 f   NPC.obj
 0001:001f3990       ?CorpsePhysics@@YAXPAUgentity_s@@@Z 201f4990 f   NPC.obj
 0001:001f4350       ?G_DroidSounds@@YAXPAUgentity_s@@@Z 201f5350 f   NPC.obj
 0001:001f4570       ?NPC_ApplyScriptFlags@@YAXXZ 201f5570 f   NPC.obj
 0001:001f4710       ?NPC_AvoidWallsAndCliffs@@YAXXZ 201f5710 f   NPC.obj
 0001:001f4730       ?NPC_BehaviorSet_ATST@@YAXH@Z 201f5730 f   NPC.obj
 0001:001f47a0       ?NPC_BehaviorSet_Charmed@@YAXH@Z 201f57a0 f   NPC.obj
 0001:001f4850       ?NPC_BehaviorSet_Default@@YAXH@Z 201f5850 f   NPC.obj
 0001:001f4940       ?NPC_BehaviorSet_Droid@@YAXH@Z 201f5940 f   NPC.obj
 0001:001f4990       ?NPC_BehaviorSet_Grenadier@@YAXH@Z 201f5990 f   NPC.obj
 0001:001f4a00       ?NPC_BehaviorSet_Howler@@YAXH@Z 201f5a00 f   NPC.obj
 0001:001f4a70       ?NPC_BehaviorSet_ImperialProbe@@YAXH@Z 201f5a70 f   NPC.obj
 0001:001f4ae0       ?NPC_BehaviorSet_Interrogator@@YAXH@Z 201f5ae0 f   NPC.obj
 0001:001f4b50       ?NPC_BehaviorSet_Jedi@@YAXH@Z 201f5b50 f   NPC.obj
 0001:001f4bd0       ?NPC_BehaviorSet_Mark1@@YAXH@Z 201f5bd0 f   NPC.obj
 0001:001f4c20       ?NPC_BehaviorSet_Mark2@@YAXH@Z 201f5c20 f   NPC.obj
 0001:001f4c90       ?NPC_BehaviorSet_MineMonster@@YAXH@Z 201f5c90 f   NPC.obj
 0001:001f4d00       ?NPC_BehaviorSet_Rancor@@YAXH@Z 201f5d00 f   NPC.obj
 0001:001f4d70       ?NPC_BehaviorSet_Remote@@YAXH@Z 201f5d70 f   NPC.obj
 0001:001f4d90       ?NPC_BehaviorSet_Seeker@@YAXH@Z 201f5d90 f   NPC.obj
 0001:001f4e00       ?NPC_BehaviorSet_Sentry@@YAXH@Z 201f5e00 f   NPC.obj
 0001:001f4e70       ?NPC_BehaviorSet_Sniper@@YAXH@Z 201f5e70 f   NPC.obj
 0001:001f4ee0       ?NPC_BehaviorSet_Stormtrooper@@YAXH@Z 201f5ee0 f   NPC.obj
 0001:001f4f70       ?NPC_CheckAttackHold@@YAXXZ 201f5f70 f   NPC.obj
 0001:001f5190       ?NPC_CheckAttackScript@@YAXXZ 201f6190 f   NPC.obj
 0001:001f51d0       ?NPC_CheckInSolid@@YAXXZ   201f61d0 f   NPC.obj
 0001:001f5430       ?NPC_ExecuteBState@@YAXPAUgentity_s@@@Z 201f6430 f   NPC.obj
 0001:001f5a20       ?NPC_HandleAIFlags@@YAXXZ  201f6a20 f   NPC.obj
 0001:001f5bb0       ?NPC_InitAI@@YAXXZ         201f6bb0 f   NPC.obj
 0001:001f5bd0       ?NPC_InitGame@@YAXXZ       201f6bd0 f   NPC.obj
 0001:001f5bf0       ?NPC_KeepCurrentFacing@@YAXXZ 201f6bf0 f   NPC.obj
 0001:001f5d00       ?NPC_RemoveBody@@YAXPAUgentity_s@@@Z 201f6d00 f   NPC.obj
 0001:001f6160       ?NPC_RunBehavior@@YAXHH@Z  201f7160 f   NPC.obj
 0001:001f67d0       ?NPC_SetAnim@@YAXPAUgentity_s@@HHH@Z 201f77d0 f   NPC.obj
 0001:001f6810       ?NPC_ShowDebugInfo@@YAXXZ  201f7810 f   NPC.obj
 0001:001f6a90       ?NPC_Think@@YAXPAUgentity_s@@@Z 201f7a90 f   NPC.obj
 0001:001f73b0       ?RestoreNPCGlobals@@YAXXZ  201f83b0 f   NPC.obj
 0001:001f7410       ?SaveNPCGlobals@@YAXXZ     201f8410 f   NPC.obj
 0001:001f7470       ?SetNPCGlobals@@YAXPAUgentity_s@@@Z 201f8470 f   NPC.obj
 0001:001f7620       ?pitch_roll_for_slope@@YAXPAUgentity_s@@QAM@Z 201f8620 f   NPC.obj
 0001:001f7d40       ?ATST_Attack@@YAXXZ        201f8d40 f   NPC_AI_Atst.obj
 0001:001f7fc0       ?ATST_Hunt@@YAXHH@Z        201f8fc0 f   NPC_AI_Atst.obj
 0001:001f8030       ?ATST_Idle@@YAXXZ          201f9030 f   NPC_AI_Atst.obj
 0001:001f8070       ?ATST_Patrol@@YAXXZ        201f9070 f   NPC_AI_Atst.obj
 0001:001f80f0       ?ATST_Ranged@@YAXHHH@Z     201f90f0 f   NPC_AI_Atst.obj
 0001:001f81b0       ?G_ATSTCheckPain@@YAXPAUgentity_s@@0H@Z 201f91b0 f   NPC_AI_Atst.obj
 0001:001f8210       ?NPC_ATST_Pain@@YAXPAUgentity_s@@0H@Z 201f9210 f   NPC_AI_Atst.obj
 0001:001f8260       ?NPC_ATST_Precache@@YAXXZ  201f9260 f   NPC_AI_Atst.obj
 0001:001f8300       ?NPC_BSATST_Default@@YAXXZ 201f9300 f   NPC_AI_Atst.obj
 0001:001f8390       ?NPC_BSDefault@@YAXXZ      201f9390 f   NPC_AI_Default.obj
 0001:001f89a0       ?NPC_BSFace@@YAXXZ         201f99a0 f   NPC_AI_Default.obj
 0001:001f8a40       ?NPC_BSHuntAndKill@@YAXXZ  201f9a40 f   NPC_AI_Default.obj
 0001:001f8f30       ?NPC_BSIdle@@YAXXZ         201f9f30 f   NPC_AI_Default.obj
 0001:001f8f80       ?NPC_BSMove@@YAXXZ         201f9f80 f   NPC_AI_Default.obj
 0001:001f9010       ?NPC_BSPatrol@@YAXXZ       201fa010 f   NPC_AI_Default.obj
 0001:001f9100       ?NPC_BSPointShoot@@YAXH@Z  201fa100 f   NPC_AI_Default.obj
 0001:001f9710       ?NPC_BSRun@@YAXXZ          201fa710 f   NPC_AI_Default.obj
 0001:001f9750       ?NPC_BSRunAndShoot@@YAXXZ  201fa750 f   NPC_AI_Default.obj
 0001:001f9ab0       ?NPC_BSShoot@@YAXXZ        201faab0 f   NPC_AI_Default.obj
 0001:001f9b20       ?NPC_BSStandAndShoot@@YAXXZ 201fab20 f   NPC_AI_Default.obj
 0001:001f9cb0       ?NPC_BSStandGuard@@YAXXZ   201facb0 f   NPC_AI_Default.obj
 0001:001f9e50       ?NPC_LostEnemyDecideChase@@YAXXZ 201fae50 f   NPC_AI_Default.obj
 0001:001f9ef0       ?NPC_StandIdle@@YAXXZ      201faef0 f   NPC_AI_Default.obj
 0001:001f9f10       ?NPC_StandTrackAndShoot@@YAHPAUgentity_s@@H@Z 201faf10 f   NPC_AI_Default.obj
 0001:001fa190       ?Droid_Idle@@YAXXZ         201fb190 f   NPC_AI_Droid.obj
 0001:001fa1b0       ?Droid_Pain@@YAXXZ         201fb1b0 f   NPC_AI_Droid.obj
 0001:001fa200       ?Droid_Patrol@@YAXXZ       201fb200 f   NPC_AI_Droid.obj
 0001:001fa620       ?Droid_Run@@YAXXZ          201fb620 f   NPC_AI_Droid.obj
 0001:001fa730       ?Droid_Spin@@YAXXZ         201fb730 f   NPC_AI_Droid.obj
 0001:001faa50       ?NPC_BSDroid_Default@@YAXXZ 201fba50 f   NPC_AI_Droid.obj
 0001:001fab30       ?NPC_Droid_Pain@@YAXPAUgentity_s@@0H@Z 201fbb30 f   NPC_AI_Droid.obj
 0001:001fb4f0       ?NPC_Gonk_Precache@@YAXXZ  201fc4f0 f   NPC_AI_Droid.obj
 0001:001fb570       ?NPC_Mouse_Precache@@YAXXZ 201fc570 f   NPC_AI_Droid.obj
 0001:001fb600       ?NPC_Protocol_Precache@@YAXXZ 201fc600 f   NPC_AI_Droid.obj
 0001:001fb640       ?NPC_R2D2_Precache@@YAXXZ  201fc640 f   NPC_AI_Droid.obj
 0001:001fb710       ?NPC_R5D2_Precache@@YAXXZ  201fc710 f   NPC_AI_Droid.obj
 0001:001fb7e0       ?R2D2_PartsMove@@YAXXZ     201fc7e0 f   NPC_AI_Droid.obj
 0001:001fb960       ?R2D2_TurnAnims@@YAXXZ     201fc960 f   NPC_AI_Droid.obj
 0001:001fc820       ?GM_Dying@@YAXPAUgentity_s@@@Z 201fd820 f   NPC_AI_GalakMech.obj
 0001:001fcf20       ?GM_StartGloat@@YAXXZ      201fdf20 f   NPC_AI_GalakMech.obj
 0001:001fd040       ?NPC_BSGM_Attack@@YAXXZ    201fe040 f   NPC_AI_GalakMech.obj
 0001:001ff750       ?NPC_BSGM_Default@@YAXXZ   20200750 f   NPC_AI_GalakMech.obj
 0001:001ffc20       ?NPC_BSGM_Patrol@@YAXXZ    20200c20 f   NPC_AI_GalakMech.obj
 0001:001ffc90       ?NPC_GM_Pain@@YAXPAUgentity_s@@0H@Z 20200c90 f   NPC_AI_GalakMech.obj
 0001:002000e0       ?NPC_GM_StartLaser@@YAXXZ  202010e0 f   NPC_AI_GalakMech.obj
 0001:002001d0       ?NPC_GalakMech_Init@@YAXPAUgentity_s@@@Z 202011d0 f   NPC_AI_GalakMech.obj
 0001:00200540       ?NPC_GalakMech_Precache@@YAXXZ 20201540 f   NPC_AI_GalakMech.obj
 0001:00200c30       ?Grenadier_ClearTimers@@YAXPAUgentity_s@@@Z 20201c30 f   NPC_AI_Grenadier.obj
 0001:00200d70       ?Grenadier_EvaluateShot@@YAHH@Z 20201d70 f   NPC_AI_Grenadier.obj
 0001:002010b0       ?NPC_BSGrenadier_Attack@@YAXXZ 202020b0 f   NPC_AI_Grenadier.obj
 0001:00201b10       ?NPC_BSGrenadier_Default@@YAXXZ 20202b10 f   NPC_AI_Grenadier.obj
 0001:00201b70       ?NPC_BSGrenadier_Patrol@@YAXXZ 20202b70 f   NPC_AI_Grenadier.obj
 0001:00202080       ?NPC_Grenadier_Pain@@YAXPAUgentity_s@@0H@Z 20203080 f   NPC_AI_Grenadier.obj
 0001:00202140       ?NPC_Grenadier_PlayConfusionSound@@YAXPAUgentity_s@@@Z 20203140 f   NPC_AI_Grenadier.obj
 0001:002023c0       ?Howler_Attack@@YAXXZ      202033c0 f   NPC_AI_Howler.obj
 0001:002024d0       ?Howler_Combat@@YAXXZ      202034d0 f   NPC_AI_Howler.obj
 0001:00202650       ?Howler_Idle@@YAXXZ        20203650 f   NPC_AI_Howler.obj
 0001:00202670       ?Howler_Move@@YAXH@Z       20203670 f   NPC_AI_Howler.obj
 0001:00202700       ?Howler_Patrol@@YAXXZ      20203700 f   NPC_AI_Howler.obj
 0001:002027e0       ?Howler_TryDamage@@YAXPAUgentity_s@@H@Z 202037e0 f   NPC_AI_Howler.obj
 0001:002029d0       ?NPC_BSHowler_Default@@YAXXZ 202039d0 f   NPC_AI_Howler.obj
 0001:00202b80       ?NPC_Howler_Pain@@YAXPAUgentity_s@@0H@Z 20203b80 f   NPC_AI_Howler.obj
 0001:00202ca0       ?NPC_Howler_Precache@@YAXXZ 20203ca0 f   NPC_AI_Howler.obj
 0001:00203220       ?ImperialProbe_AttackDecision@@YAXXZ 20204220 f   NPC_AI_ImperialProbe.obj
 0001:00203400       ?ImperialProbe_FireBlaster@@YAXXZ 20204400 f   NPC_AI_ImperialProbe.obj
 0001:00203790       ?ImperialProbe_Hunt@@YAXHH@Z 20204790 f   NPC_AI_ImperialProbe.obj
 0001:00203ab0       ?ImperialProbe_Idle@@YAXXZ 20204ab0 f   NPC_AI_ImperialProbe.obj
 0001:00203ad0       ?ImperialProbe_MaintainHeight@@YAXXZ 20204ad0 f   NPC_AI_ImperialProbe.obj
 0001:002040c0       ?ImperialProbe_Patrol@@YAXXZ 202050c0 f   NPC_AI_ImperialProbe.obj
 0001:00204260       ?ImperialProbe_Ranged@@YAXHH@Z 20205260 f   NPC_AI_ImperialProbe.obj
 0001:00204350       ?ImperialProbe_Strafe@@YAXXZ 20205350 f   NPC_AI_ImperialProbe.obj
 0001:00204710       ?ImperialProbe_Wait@@YAXXZ 20205710 f   NPC_AI_ImperialProbe.obj
 0001:002048d0       ?NPC_BSImperialProbe_Default@@YAXXZ 202058d0 f   NPC_AI_ImperialProbe.obj
 0001:00204960       ?NPC_Probe_Pain@@YAXPAUgentity_s@@0H@Z 20205960 f   NPC_AI_ImperialProbe.obj
 0001:00204e60       ?NPC_Probe_Precache@@YAXXZ 20205e60 f   NPC_AI_ImperialProbe.obj
 0001:00204f60       ?Interrogator_Attack@@YAXXZ 20205f60 f   NPC_AI_Interrogator.obj
 0001:00205130       ?Interrogator_Hunt@@YAXHH@Z 20206130 f   NPC_AI_Interrogator.obj
 0001:00205460       ?Interrogator_Idle@@YAXXZ  20206460 f   NPC_AI_Interrogator.obj
 0001:002054c0       ?Interrogator_MaintainHeight@@YAXXZ 202064c0 f   NPC_AI_Interrogator.obj
 0001:00205b00       ?Interrogator_Melee@@YAXHH@Z 20206b00 f   NPC_AI_Interrogator.obj
 0001:00205cf0       ?Interrogator_PartsMove@@YAXXZ 20206cf0 f   NPC_AI_Interrogator.obj
 0001:002061d0       ?Interrogator_Strafe@@YAXXZ 202071d0 f   NPC_AI_Interrogator.obj
 0001:00206660       ?Interrogator_die@@YAXPAUgentity_s@@00HHHH@Z 20207660 f   NPC_AI_Interrogator.obj
 0001:00206750       ?NPC_BSInterrogator_Default@@YAXXZ 20207750 f   NPC_AI_Interrogator.obj
 0001:00206790       ?NPC_Interrogator_Precache@@YAXPAUgentity_s@@@Z 20207790 f   NPC_AI_Interrogator.obj
 0001:00206cb0       ?Boba_ChangeWeapon@@YAXH@Z 20207cb0 f   NPC_AI_Jedi.obj
 0001:00206d10       ?Boba_DoFlameThrower@@YAXPAUgentity_s@@@Z 20207d10 f   NPC_AI_Jedi.obj
 0001:00206d90       ?Boba_FireDecide@@YAXXZ    20207d90 f   NPC_AI_Jedi.obj
 0001:00207ec0       ?Boba_FireFlameThrower@@YAXPAUgentity_s@@@Z 20208ec0 f   NPC_AI_Jedi.obj
 0001:002081b0       ?Boba_FlyStart@@YAXPAUgentity_s@@@Z 202091b0 f   NPC_AI_Jedi.obj
 0001:002082e0       ?Boba_FlyStop@@YAXPAUgentity_s@@@Z 202092e0 f   NPC_AI_Jedi.obj
 0001:00208410       ?Boba_Flying@@YAHPAUgentity_s@@@Z 20209410 f   NPC_AI_Jedi.obj
 0001:00208440       ?Boba_Precache@@YAXXZ      20209440 f   NPC_AI_Jedi.obj
 0001:002084b0       ?Boba_StartFlameThrower@@YAXPAUgentity_s@@@Z 202094b0 f   NPC_AI_Jedi.obj
 0001:00208640       ?Boba_StopKnockdown@@YAHPAUgentity_s@@0QAMH@Z 20209640 f   NPC_AI_Jedi.obj
 0001:00208c70       ?G_StartMatrixEffect@@YAXPAUgentity_s@@@Z 20209c70 f   NPC_AI_Jedi.obj
 0001:00209140       ?Jedi_Ambush@@YAXPAUgentity_s@@@Z 2020a140 f   NPC_AI_Jedi.obj
 0001:0020acb0       ?Jedi_CanPullBackSaber@@YAHPAUgentity_s@@@Z 2020bcb0 f   NPC_AI_Jedi.obj
 0001:0020adb0       ?Jedi_CheckAmbushPlayer@@YAHXZ 2020bdb0 f   NPC_AI_Jedi.obj
 0001:0020b080       ?Jedi_CheckCloak@@YAXXZ    2020c080 f   NPC_AI_Jedi.obj
 0001:0020b1a0       ?Jedi_CheckDanger@@YAHXZ   2020c1a0 f   NPC_AI_Jedi.obj
 0001:0020c0e0       ?Jedi_CheckFlipEvasions@@YA?AW4evasionType_t@@PAUgentity_s@@MM@Z 2020d0e0 f   NPC_AI_Jedi.obj
 0001:0020eac0       ?Jedi_ClearTimers@@YAXPAUgentity_s@@@Z 2020fac0 f   NPC_AI_Jedi.obj
 0001:0020ed00       ?Jedi_Cloak@@YAXPAUgentity_s@@@Z 2020fd00 f   NPC_AI_Jedi.obj
 0001:00212440       ?Jedi_Decloak@@YAXPAUgentity_s@@@Z 20213440 f   NPC_AI_Jedi.obj
 0001:00213ce0       ?Jedi_FindEnemyInCone@@YAPAUgentity_s@@PAU1@0M@Z 20214ce0 f   NPC_AI_Jedi.obj
 0001:00216320       ?Jedi_PlayBlockedPushSound@@YAXPAUgentity_s@@@Z 20217320 f   NPC_AI_Jedi.obj
 0001:002163e0       ?Jedi_PlayDeflectSound@@YAXPAUgentity_s@@@Z 202173e0 f   NPC_AI_Jedi.obj
 0001:002164c0       ?Jedi_QuickReactions@@YAHPAUgentity_s@@@Z 202174c0 f   NPC_AI_Jedi.obj
 0001:002166c0       ?Jedi_RageStop@@YAXPAUgentity_s@@@Z 202176c0 f   NPC_AI_Jedi.obj
 0001:00216720       ?Jedi_ReCalcParryTime@@YAHPAUgentity_s@@W4evasionType_t@@@Z 20217720 f   NPC_AI_Jedi.obj
 0001:00217fd0       ?Jedi_SaberBlockGo@@YA?AW4evasionType_t@@PAUgentity_s@@PAUusercmd_s@@QAM20M@Z 20218fd0 f   NPC_AI_Jedi.obj
 0001:00219d20       ?Jedi_SaberBusy@@YAHPAUgentity_s@@@Z 2021ad20 f   NPC_AI_Jedi.obj
 0001:0021b2f0       ?Jedi_WaitingAmbush@@YAHPAUgentity_s@@@Z 2021c2f0 f   NPC_AI_Jedi.obj
 0001:0021b340       ?NPC_BSJedi_Default@@YAXXZ 2021c340 f   NPC_AI_Jedi.obj
 0001:0021b620       ?NPC_BSJedi_FollowLeader@@YAXXZ 2021c620 f   NPC_AI_Jedi.obj
 0001:0021ba00       ?NPC_Jedi_Pain@@YAXPAUgentity_s@@0H@Z 2021ca00 f   NPC_AI_Jedi.obj
 0001:0021bfe0       ?NPC_Jedi_PlayConfusionSound@@YAXPAUgentity_s@@@Z 2021cfe0 f   NPC_AI_Jedi.obj
 0001:0021c0e0       ?NPC_Jedi_RateNewEnemy@@YAXPAUgentity_s@@0@Z 2021d0e0 f   NPC_AI_Jedi.obj
 0001:0021c300       ?NPC_MoveDirClear@@YAHHHH@Z 2021d300 f   NPC_AI_Jedi.obj
 0001:0021cb90       ?NPC_ShadowTrooper_Precache@@YAXXZ 2021db90 f   NPC_AI_Jedi.obj
 0001:0021cdf0       ?WP_ResistForcePush@@YAXPAUgentity_s@@0H@Z 2021ddf0 f   NPC_AI_Jedi.obj
 0001:0021d740       ?Mark1Dead_FireBlaster@@YAXXZ 2021e740 f   NPC_AI_Mark1.obj
 0001:0021d910       ?Mark1Dead_FireRocket@@YAXXZ 2021e910 f   NPC_AI_Mark1.obj
 0001:0021dc40       ?Mark1_AttackDecision@@YAXXZ 2021ec40 f   NPC_AI_Mark1.obj
 0001:0021df40       ?Mark1_BlasterAttack@@YAXH@Z 2021ef40 f   NPC_AI_Mark1.obj
 0001:0021e110       ?Mark1_FireBlaster@@YAXXZ  2021f110 f   NPC_AI_Mark1.obj
 0001:0021e520       ?Mark1_FireRocket@@YAXXZ   2021f520 f   NPC_AI_Mark1.obj
 0001:0021e920       ?Mark1_Hunt@@YAXXZ         2021f920 f   NPC_AI_Mark1.obj
 0001:0021e990       ?Mark1_Idle@@YAXXZ         2021f990 f   NPC_AI_Mark1.obj
 0001:0021e9d0       ?Mark1_Patrol@@YAXXZ       2021f9d0 f   NPC_AI_Mark1.obj
 0001:0021ea70       ?Mark1_RocketAttack@@YAXH@Z 2021fa70 f   NPC_AI_Mark1.obj
 0001:0021eb00       ?Mark1_die@@YAXPAUgentity_s@@00HHHH@Z 2021fb00 f   NPC_AI_Mark1.obj
 0001:0021eba0       ?Mark1_dying@@YAXPAUgentity_s@@@Z 2021fba0 f   NPC_AI_Mark1.obj
 0001:0021edd0       ?NPC_BSMark1_Default@@YAXXZ 2021fdd0 f   NPC_AI_Mark1.obj
 0001:0021ee50       ?NPC_Mark1_Pain@@YAXPAUgentity_s@@0H@Z 2021fe50 f   NPC_AI_Mark1.obj
 0001:0021f1a0       ?NPC_Mark1_Part_Explode@@YAXPAUgentity_s@@H@Z 202201a0 f   NPC_AI_Mark1.obj
 0001:0021f2b0       ?NPC_Mark1_Precache@@YAXXZ 202202b0 f   NPC_AI_Mark1.obj
 0001:0021f8c0       ?Mark2_AttackDecision@@YAXXZ 202208c0 f   NPC_AI_Mark2.obj
 0001:0021fce0       ?Mark2_BlasterAttack@@YAXH@Z 20220ce0 f   NPC_AI_Mark2.obj
 0001:0021fdb0       ?Mark2_FireBlaster@@YAXH@Z 20220db0 f   NPC_AI_Mark2.obj
 0001:002200b0       ?Mark2_Hunt@@YAXXZ         202210b0 f   NPC_AI_Mark2.obj
 0001:00220120       ?Mark2_Idle@@YAXXZ         20221120 f   NPC_AI_Mark2.obj
 0001:00220140       ?Mark2_Patrol@@YAXXZ       20221140 f   NPC_AI_Mark2.obj
 0001:00220210       ?NPC_BSMark2_Default@@YAXXZ 20221210 f   NPC_AI_Mark2.obj
 0001:00220290       ?NPC_Mark2_Pain@@YAXPAUgentity_s@@0H@Z 20221290 f   NPC_AI_Mark2.obj
 0001:00220410       ?NPC_Mark2_Part_Explode@@YAXPAUgentity_s@@H@Z 20221410 f   NPC_AI_Mark2.obj
 0001:00220530       ?NPC_Mark2_Precache@@YAXXZ 20221530 f   NPC_AI_Mark2.obj
 0001:00220630       ?MineMonster_Attack@@YAXXZ 20221630 f   NPC_AI_MineMonster.obj
 0001:00220990       ?MineMonster_Combat@@YAXXZ 20221990 f   NPC_AI_MineMonster.obj
 0001:00220b10       ?MineMonster_Idle@@YAXXZ   20221b10 f   NPC_AI_MineMonster.obj
 0001:00220b50       ?MineMonster_Move@@YAXH@Z  20221b50 f   NPC_AI_MineMonster.obj
 0001:00220bc0       ?MineMonster_Patrol@@YAXXZ 20221bc0 f   NPC_AI_MineMonster.obj
 0001:00220e10       ?MineMonster_TryDamage@@YAXPAUgentity_s@@H@Z 20221e10 f   NPC_AI_MineMonster.obj
 0001:00221090       ?NPC_BSMineMonster_Default@@YAXXZ 20222090 f   NPC_AI_MineMonster.obj
 0001:00221100       ?NPC_MineMonster_Pain@@YAXPAUgentity_s@@0H@Z 20222100 f   NPC_AI_MineMonster.obj
 0001:002212b0       ?NPC_MineMonster_Precache@@YAXXZ 202222b0 f   NPC_AI_MineMonster.obj
 0001:00221630       ?NPC_BSRancor_Default@@YAXXZ 20222630 f   NPC_AI_Rancor.obj
 0001:00221d00       ?NPC_Rancor_Pain@@YAXPAUgentity_s@@0H@Z 20222d00 f   NPC_AI_Rancor.obj
 0001:002221b0       ?NPC_Rancor_Precache@@YAXXZ 202231b0 f   NPC_AI_Rancor.obj
 0001:00222230       ?Rancor_Attack@@YAXMH@Z    20223230 f   NPC_AI_Rancor.obj
 0001:00223070       ?Rancor_Bite@@YAXXZ        20224070 f   NPC_AI_Rancor.obj
 0001:002233f0       ?Rancor_CheckDropVictim@@YAXXZ 202243f0 f   NPC_AI_Rancor.obj
 0001:00223710       ?Rancor_CheckRoar@@YAHPAUgentity_s@@@Z 20224710 f   NPC_AI_Rancor.obj
 0001:002237d0       ?Rancor_Combat@@YAXXZ      202247d0 f   NPC_AI_Rancor.obj
 0001:00223b80       ?Rancor_Crush@@YAXXZ       20224b80 f   NPC_AI_Rancor.obj
 0001:00223c60       ?Rancor_DropVictim@@YAXPAUgentity_s@@@Z 20224c60 f   NPC_AI_Rancor.obj
 0001:00223f70       ?Rancor_Idle@@YAXXZ        20224f70 f   NPC_AI_Rancor.obj
 0001:00223fc0       ?Rancor_Move@@YAXH@Z       20224fc0 f   NPC_AI_Rancor.obj
 0001:00224060       ?Rancor_Patrol@@YAXXZ      20225060 f   NPC_AI_Rancor.obj
 0001:002241a0       ?Rancor_SetBolts@@YAXPAUgentity_s@@@Z 202251a0 f   NPC_AI_Rancor.obj
 0001:002242a0       ?Rancor_Smash@@YAXXZ       202252a0 f   NPC_AI_Rancor.obj
 0001:002245d0       ?Rancor_Swing@@YAXH@Z      202255d0 f   NPC_AI_Rancor.obj
 0001:00224eb0       ?NPC_BSRemote_Default@@YAXXZ 20225eb0 f   NPC_AI_Remote.obj
 0001:00224f10       ?NPC_Remote_Pain@@YAXPAUgentity_s@@0H@Z 20225f10 f   NPC_AI_Remote.obj
 0001:00224f60       ?NPC_Remote_Precache@@YAXXZ 20225f60 f   NPC_AI_Remote.obj
 0001:00224fb0       ?Remote_Attack@@YAXXZ      20225fb0 f   NPC_AI_Remote.obj
 0001:002251f0       ?Remote_Fire@@YAXXZ        202261f0 f   NPC_AI_Remote.obj
 0001:00225470       ?Remote_Hunt@@YAXHHH@Z     20226470 f   NPC_AI_Remote.obj
 0001:002257a0       ?Remote_Idle@@YAXXZ        202267a0 f   NPC_AI_Remote.obj
 0001:002257c0       ?Remote_MaintainHeight@@YAXXZ 202267c0 f   NPC_AI_Remote.obj
 0001:00225de0       ?Remote_Patrol@@YAXXZ      20226de0 f   NPC_AI_Remote.obj
 0001:00225e50       ?Remote_Ranged@@YAXHHH@Z   20226e50 f   NPC_AI_Remote.obj
 0001:00225ef0       ?Remote_Strafe@@YAXXZ      20226ef0 f   NPC_AI_Remote.obj
 0001:00226530       ?NPC_BSSand_creature_Default@@YAXXZ 20227530 f   NPC_AI_Sand_creature.obj
 0001:00226c90       ?NPC_Sand_creature_Precache@@YAXXZ 20227c90 f   NPC_AI_Sand_creature.obj
 0001:00226cc0       ?Sand_creature_Attack@@YAXM@Z 20227cc0 f   NPC_AI_Sand_creature.obj
 0001:00226ef0       ?Sand_creature_Bite@@YAXXZ 20227ef0 f   NPC_AI_Sand_creature.obj
 0001:00227130       ?Sand_creature_CheckRoar@@YAHPAUgentity_s@@@Z 20228130 f   NPC_AI_Sand_creature.obj
 0001:002271e0       ?Sand_creature_Combat@@YAXXZ 202281e0 f   NPC_AI_Sand_creature.obj
 0001:002273e0       ?Sand_creature_Idle@@YAXXZ 202283e0 f   NPC_AI_Sand_creature.obj
 0001:00227430       ?Sand_creature_Move@@YAXH@Z 20228430 f   NPC_AI_Sand_creature.obj
 0001:00227800       ?Sand_creature_Patrol@@YAXXZ 20228800 f   NPC_AI_Sand_creature.obj
 0001:00227940       ?Sand_creature_SetBolts@@YAXPAUgentity_s@@@Z 20228940 f   NPC_AI_Sand_creature.obj
 0001:00227a70       ?NPC_BSSeeker_Default@@YAXXZ 20228a70 f   NPC_AI_Seeker.obj
 0001:00227c70       ?NPC_Seeker_Pain@@YAXPAUgentity_s@@0H@Z 20228c70 f   NPC_AI_Seeker.obj
 0001:00227d10       ?NPC_Seeker_Precache@@YAXXZ 20228d10 f   NPC_AI_Seeker.obj
 0001:00227d60       ?Seeker_Attack@@YAXXZ      20228d60 f   NPC_AI_Seeker.obj
 0001:00227e90       ?Seeker_FindEnemy@@YAXXZ   20228e90 f   NPC_AI_Seeker.obj
 0001:002281c0       ?Seeker_Fire@@YAXXZ        202291c0 f   NPC_AI_Seeker.obj
 0001:002284d0       ?Seeker_FollowOwner@@YAXXZ 202294d0 f   NPC_AI_Seeker.obj
 0001:00228c60       ?Seeker_Hunt@@YAXHH@Z      20229c60 f   NPC_AI_Seeker.obj
 0001:00228f70       ?Seeker_MaintainHeight@@YAXXZ 20229f70 f   NPC_AI_Seeker.obj
 0001:00229670       ?Seeker_Ranged@@YAXHH@Z    2022a670 f   NPC_AI_Seeker.obj
 0001:00229790       ?Seeker_Strafe@@YAXXZ      2022a790 f   NPC_AI_Seeker.obj
 0001:0022a820       ?NPC_BSSentry_Default@@YAXXZ 2022b820 f   NPC_AI_Sentry.obj
 0001:0022a8b0       ?NPC_Sentry_Pain@@YAXPAUgentity_s@@0H@Z 2022b8b0 f   NPC_AI_Sentry.obj
 0001:0022a9b0       ?NPC_Sentry_Patrol@@YAXXZ  2022b9b0 f   NPC_AI_Sentry.obj
 0001:0022aac0       ?NPC_Sentry_Precache@@YAXXZ 2022bac0 f   NPC_AI_Sentry.obj
 0001:0022abb0       ?Sentry_AttackDecision@@YAXXZ 2022bbb0 f   NPC_AI_Sentry.obj
 0001:0022add0       ?Sentry_Fire@@YAXXZ        2022bdd0 f   NPC_AI_Sentry.obj
 0001:0022b220       ?Sentry_Hunt@@YAXHH@Z      2022c220 f   NPC_AI_Sentry.obj
 0001:0022b530       ?Sentry_Idle@@YAXXZ        2022c530 f   NPC_AI_Sentry.obj
 0001:0022b5f0       ?Sentry_MaintainHeight@@YAXXZ 2022c5f0 f   NPC_AI_Sentry.obj
 0001:0022bc30       ?Sentry_RangedAttack@@YAXHH@Z 2022cc30 f   NPC_AI_Sentry.obj
 0001:0022be00       ?Sentry_Strafe@@YAXXZ      2022ce00 f   NPC_AI_Sentry.obj
 0001:0022c1c0       ?sentry_use@@YAXPAUgentity_s@@00@Z 2022d1c0 f   NPC_AI_Sentry.obj
 0001:0022c3a0       ?NPC_BSSniper_Attack@@YAXXZ 2022d3a0 f   NPC_AI_Sniper.obj
 0001:0022ccc0       ?NPC_BSSniper_Default@@YAXXZ 2022dcc0 f   NPC_AI_Sniper.obj
 0001:0022cd00       ?NPC_BSSniper_Patrol@@YAXXZ 2022dd00 f   NPC_AI_Sniper.obj
 0001:0022d260       ?NPC_Sniper_Pain@@YAXPAUgentity_s@@0H@Z 2022e260 f   NPC_AI_Sniper.obj
 0001:0022d320       ?NPC_Sniper_PlayConfusionSound@@YAXPAUgentity_s@@@Z 2022e320 f   NPC_AI_Sniper.obj
 0001:0022da50       ?Sniper_ClearTimers@@YAXPAUgentity_s@@@Z 2022ea50 f   NPC_AI_Sniper.obj
 0001:0022db90       ?Sniper_EvaluateShot@@YAHH@Z 2022eb90 f   NPC_AI_Sniper.obj
 0001:0022dcb0       ?Sniper_FaceEnemy@@YAXXZ   2022ecb0 f   NPC_AI_Sniper.obj
 0001:0022eec0       ?Sniper_StartHide@@YAXXZ   2022fec0 f   NPC_AI_Sniper.obj
 0001:0022ef60       ?Sniper_UpdateEnemyPos@@YAXXZ 2022ff60 f   NPC_AI_Sniper.obj
 0001:0022f470       ?NPC_BSST_Attack@@YAXXZ    20230470 f   NPC_AI_Stormtrooper.obj
 0001:00230230       ?NPC_BSST_Default@@YAXXZ   20231230 f   NPC_AI_Stormtrooper.obj
 0001:00230290       ?NPC_BSST_Investigate@@YAXXZ 20231290 f   NPC_AI_Stormtrooper.obj
 0001:002305c0       ?NPC_BSST_Patrol@@YAXXZ    202315c0 f   NPC_AI_Stormtrooper.obj
 0001:002309a0       ?NPC_BSST_Sleep@@YAXXZ     202319a0 f   NPC_AI_Stormtrooper.obj
 0001:00230a60       ?NPC_CheckEnemyStealth@@YAHPAUgentity_s@@@Z 20231a60 f   NPC_AI_Stormtrooper.obj
 0001:002315f0       ?NPC_CheckPlayerTeamStealth@@YAHXZ 202325f0 f   NPC_AI_Stormtrooper.obj
 0001:00232080       ?NPC_ST_Pain@@YAXPAUgentity_s@@0H@Z 20233080 f   NPC_AI_Stormtrooper.obj
 0001:00232150       ?NPC_ST_SayMovementSpeech@@YAXXZ 20233150 f   NPC_AI_Stormtrooper.obj
 0001:00232380       ?NPC_ST_StoreMovementSpeech@@YAXHM@Z 20233380 f   NPC_AI_Stormtrooper.obj
 0001:002323c0       ?ST_AggressionAdjust@@YAXPAUgentity_s@@H@Z 202333c0 f   NPC_AI_Stormtrooper.obj
 0001:002324a0       ?ST_ApproachEnemy@@YAHPAUgentity_s@@@Z 202334a0 f   NPC_AI_Stormtrooper.obj
 0001:00233210       ?ST_ClearTimers@@YAXPAUgentity_s@@@Z 20234210 f   NPC_AI_Stormtrooper.obj
 0001:00233370       ?ST_Commander@@YAXXZ       20234370 f   NPC_AI_Stormtrooper.obj
 0001:00234dd0       ?ST_GetCPFlags@@YAHXZ      20235dd0 f   NPC_AI_Stormtrooper.obj
 0001:002351a0       ?ST_HuntEnemy@@YAXPAUgentity_s@@@Z 202361a0 f   NPC_AI_Stormtrooper.obj
 0001:00235440       ?ST_MarkToCover@@YAXPAUgentity_s@@@Z 20236440 f   NPC_AI_Stormtrooper.obj
 0001:002358b0       ?ST_ResolveBlockedShot@@YAXH@Z 202368b0 f   NPC_AI_Stormtrooper.obj
 0001:00235f90       ?ST_StartFlee@@YAXPAUgentity_s@@0QAMHHH@Z 20236f90 f   NPC_AI_Stormtrooper.obj
 0001:00236040       ?ST_TrackEnemy@@YAXPAUgentity_s@@QAM@Z 20237040 f   NPC_AI_Stormtrooper.obj
 0001:00236160       ?ST_TransferMoveGoal@@YAXPAUgentity_s@@0@Z 20237160 f   NPC_AI_Stormtrooper.obj
 0001:00236380       ?ST_TransferTimers@@YAXPAUgentity_s@@0@Z 20237380 f   NPC_AI_Stormtrooper.obj
 0001:002366d0       ?AI_CheckEnemyCollision@@YAHPAUgentity_s@@H@Z 202376d0 f   NPC_AI_Utils.obj
 0001:002367a0       ?AI_ClosestGroupEntityNumToPoint@@YAHPAUAIGroupInfo_s@@QAM@Z 202377a0 f   NPC_AI_Utils.obj
 0001:002368b0       ?AI_DeleteGroupMember@@YAXPAUAIGroupInfo_s@@H@Z 202378b0 f   NPC_AI_Utils.obj
 0001:00236a10       ?AI_DeleteSelfFromGroup@@YAXPAUgentity_s@@@Z 20237a10 f   NPC_AI_Utils.obj
 0001:00236ab0       ?AI_DistributeAttack@@YAPAUgentity_s@@PAU1@0HH@Z 20237ab0 f   NPC_AI_Utils.obj
 0001:00236d70       ?AI_FindSelfInPreviousGroup@@YAHPAUgentity_s@@@Z 20237d70 f   NPC_AI_Utils.obj
 0001:00236e40       ?AI_GetGroup@@YAXPAUgentity_s@@@Z 20237e40 f   NPC_AI_Utils.obj
 0001:002372d0       ?AI_GetGroupSize2@@YAHPAUgentity_s@@H@Z 202382d0 f   NPC_AI_Utils.obj
 0001:00237340       ?AI_GetGroupSize@@YAHQAMHHPAUgentity_s@@@Z 20238340 f   NPC_AI_Utils.obj
 0001:00237520       ?AI_GetNextEmptyGroup@@YAHPAUgentity_s@@@Z 20238520 f   NPC_AI_Utils.obj
 0001:002375e0       ?AI_GroupContainsEntNum@@YAHPAUAIGroupInfo_s@@H@Z 202385e0 f   NPC_AI_Utils.obj
 0001:00237650       ?AI_GroupMemberKilled@@YAXPAUgentity_s@@@Z 20238650 f   NPC_AI_Utils.obj
 0001:00237a30       ?AI_GroupUpdateClearShotTime@@YAXPAUAIGroupInfo_s@@@Z 20238a30 f   NPC_AI_Utils.obj
 0001:00237a60       ?AI_GroupUpdateEnemyLastSeen@@YAXPAUAIGroupInfo_s@@QAM@Z 20238a60 f   NPC_AI_Utils.obj
 0001:00237b00       ?AI_GroupUpdateSquadstates@@YAXPAUAIGroupInfo_s@@PAUgentity_s@@H@Z 20238b00 f   NPC_AI_Utils.obj
 0001:00237c10       ?AI_InsertGroupMember@@YAXPAUAIGroupInfo_s@@PAUgentity_s@@@Z 20238c10 f   NPC_AI_Utils.obj
 0001:00237d30       ?AI_RefreshGroup@@YAHPAUAIGroupInfo_s@@@Z 20238d30 f   NPC_AI_Utils.obj
 0001:00238410       ?AI_SetClosestBuddy@@YAXPAUAIGroupInfo_s@@@Z 20239410 f   NPC_AI_Utils.obj
 0001:00238520       ?AI_SetNewGroupCommander@@YAXPAUAIGroupInfo_s@@@Z 20239520 f   NPC_AI_Utils.obj
 0001:00238600       ?AI_SortGroupByPathCostToEnemy@@YAXPAUAIGroupInfo_s@@@Z 20239600 f   NPC_AI_Utils.obj
 0001:00238a20       ?AI_TryJoinPreviousGroup@@YAHPAUgentity_s@@@Z 20239a20 f   NPC_AI_Utils.obj
 0001:00238af0       ?AI_UpdateGroups@@YAXXZ    20239af0 f   NPC_AI_Utils.obj
 0001:00238b90       ?AI_ValidateGroupMember@@YAHPAUAIGroupInfo_s@@PAUgentity_s@@@Z 20239b90 f   NPC_AI_Utils.obj
 0001:00238ee0       ?AI_ValidateNoEnemyGroupMember@@YAHPAUAIGroupInfo_s@@PAUgentity_s@@@Z 20239ee0 f   NPC_AI_Utils.obj
 0001:002394b0       ?NPC_BSWampa_Default@@YAXXZ 2023a4b0 f   NPC_AI_Wampa.obj
 0001:00239b40       ?NPC_Wampa_Pain@@YAXPAUgentity_s@@0H@Z 2023ab40 f   NPC_AI_Wampa.obj
 0001:00239ff0       ?NPC_Wampa_Precache@@YAXXZ 2023aff0 f   NPC_AI_Wampa.obj
 0001:0023a0e0       ?Wampa_Attack@@YAXMH@Z     2023b0e0 f   NPC_AI_Wampa.obj
 0001:0023a690       ?Wampa_CheckRoar@@YAHPAUgentity_s@@@Z 2023b690 f   NPC_AI_Wampa.obj
 0001:0023a750       ?Wampa_Combat@@YAXXZ       2023b750 f   NPC_AI_Wampa.obj
 0001:0023ab50       ?Wampa_Idle@@YAXXZ         2023bb50 f   NPC_AI_Wampa.obj
 0001:0023aba0       ?Wampa_Move@@YAXH@Z        2023bba0 f   NPC_AI_Wampa.obj
 0001:0023ae40       ?Wampa_Patrol@@YAXXZ       2023be40 f   NPC_AI_Wampa.obj
 0001:0023af80       ?Wampa_SetBolts@@YAXPAUgentity_s@@@Z 2023bf80 f   NPC_AI_Wampa.obj
 0001:0023b100       ?Wampa_Slash@@YAXHH@Z      2023c100 f   NPC_AI_Wampa.obj
 0001:0023b8e0       ?BeamOut@@YAXPAUgentity_s@@@Z 2023c8e0 f   NPC_behavior.obj
 0001:0023b960       ?Disappear@@YAXPAUgentity_s@@@Z 2023c960 f   NPC_behavior.obj
 0001:0023bb10       ?G_StartFlee@@YAXPAUgentity_s@@0QAMHHH@Z 2023cb10 f   NPC_behavior.obj
 0001:0023bb80       ?NPC_BSAdvanceFight@@YAXXZ 2023cb80 f   NPC_behavior.obj
 0001:0023c740       ?NPC_BSCinematic@@YAXXZ    2023d740 f   NPC_behavior.obj
 0001:0023c930       ?NPC_BSEmplaced@@YAXXZ     2023d930 f   NPC_behavior.obj
 0001:0023ccd0       ?NPC_BSFlee@@YAXXZ         2023dcd0 f   NPC_behavior.obj
 0001:0023d470       ?NPC_BSFollowLeader@@YAXXZ 2023e470 f   NPC_behavior.obj
 0001:0023e380       ?NPC_BSInvestigate@@YAXXZ  2023f380 f   NPC_behavior.obj
 0001:0023e3a0       ?NPC_BSJump@@YAXXZ         2023f3a0 f   NPC_behavior.obj
 0001:0023f530       ?NPC_BSNoClip@@YAXXZ       20240530 f   NPC_behavior.obj
 0001:0023f980       ?NPC_BSRemove@@YAXXZ       20240980 f   NPC_behavior.obj
 0001:0023faa0       ?NPC_BSSearch@@YAXXZ       20240aa0 f   NPC_behavior.obj
 0001:00240280       ?NPC_BSSearchStart@@YAXHW4bState_t@@@Z 20241280 f   NPC_behavior.obj
 0001:00240370       ?NPC_BSSleep@@YAXXZ        20241370 f   NPC_behavior.obj
 0001:002403c0       ?NPC_BSWait@@YAXXZ         202413c0 f   NPC_behavior.obj
 0001:002403f0       ?NPC_BSWander@@YAXXZ       202413f0 f   NPC_behavior.obj
 0001:002409f0       ?NPC_CheckInvestigate@@YAHH@Z 202419f0 f   NPC_behavior.obj
 0001:00240e00       ?NPC_CheckSurrender@@YAHXZ 20241e00 f   NPC_behavior.obj
 0001:00241130       ?NPC_StartFlee@@YAXPAUgentity_s@@QAMHHH@Z 20242130 f   NPC_behavior.obj
 0001:00241570       ?NPC_Surrender@@YAXXZ      20242570 f   NPC_behavior.obj
 0001:00241840       ?CP_FindCombatPointWaypoints@@YAXXZ 20242840 f   NPC_combat.obj
 0001:002418e0       ?CanShoot@@YAHPAUgentity_s@@0@Z 202428e0 f   NPC_combat.obj
 0001:00241c00       ?ChangeWeapon@@YAXPAUgentity_s@@H@Z 20242c00 f   NPC_combat.obj
 0001:00242700       ?EntIsGlass@@YAHPAUgentity_s@@@Z 20243700 f   NPC_combat.obj
 0001:00242770       ?G_AimSet@@YAXPAUgentity_s@@H@Z 20243770 f   NPC_combat.obj
 0001:00242800       ?G_AngerAlert@@YAXPAUgentity_s@@@Z 20243800 f   NPC_combat.obj
 0001:002428b0       ?G_AttackDelay@@YAXPAUgentity_s@@0@Z 202438b0 f   NPC_combat.obj
 0001:00242ff0       ?G_ClearEnemy@@YAXPAUgentity_s@@@Z 20243ff0 f   NPC_combat.obj
 0001:002430c0       ?G_ForceSaberOn@@YAXPAUgentity_s@@@Z 202440c0 f   NPC_combat.obj
 0001:002431f0       ?G_SetEnemy@@YAXPAUgentity_s@@0@Z 202441f0 f   NPC_combat.obj
 0001:00243740       ?G_TeamEnemy@@YAHPAUgentity_s@@@Z 20244740 f   NPC_combat.obj
 0001:002438c0       ?HaveWeapon@@YAHH@Z        202448c0 f   NPC_combat.obj
 0001:00243900       ?IdealDistance@@YAMPAUgentity_s@@@Z 20244900 f   NPC_combat.obj
 0001:00243990       ?NPC_AimAdjust@@YAXH@Z     20244990 f   NPC_combat.obj
 0001:00243b10       ?NPC_ApplyWeaponFireDelay@@YAXXZ 20244b10 f   NPC_combat.obj
 0001:00243bb0       ?NPC_AttackDebounceForWeapon@@YAHXZ 20244bb0 f   NPC_combat.obj
 0001:00243c00       ?NPC_ChangeWeapon@@YAXH@Z  20244c00 f   NPC_combat.obj
 0001:00243c20       ?NPC_CheckAttack@@YAHM@Z   20244c20 f   NPC_combat.obj
 0001:00243ce0       ?NPC_CheckCanAttack@@YAHMH@Z 20244ce0 f   NPC_combat.obj
 0001:002449d0       ?NPC_CheckDefend@@YAHM@Z   202459d0 f   NPC_combat.obj
 0001:00244a70       ?NPC_CheckEnemy@@YAPAUgentity_s@@HHH@Z 20245a70 f   NPC_combat.obj
 0001:00244f70       ?NPC_CheckGetNewWeapon@@YAXXZ 20245f70 f   NPC_combat.obj
 0001:00245080       ?NPC_CheckPossibleEnemy@@YAXPAUgentity_s@@W4visibility_t@@@Z 20246080 f   NPC_combat.obj
 0001:00245370       ?NPC_ClearShot@@YAHPAUgentity_s@@@Z 20246370 f   NPC_combat.obj
 0001:00245700       ?NPC_EnemyTooFar@@YAHPAUgentity_s@@MH@Z 20246700 f   NPC_combat.obj
 0001:00245890       ?NPC_EvaluateShot@@YAHHH@Z 20246890 f   NPC_combat.obj
 0001:00245910       ?NPC_FindCombatPoint@@YAHQBM0QAMHMH@Z 20246910 f   NPC_combat.obj
 0001:00246590       ?NPC_FindSquadPoint@@YAHQAM@Z 20247590 f   NPC_combat.obj
 0001:00246650       ?NPC_FreeCombatPoint@@YAHHH@Z 20247650 f   NPC_combat.obj
 0001:002466c0       ?NPC_MaxDistSquaredForWeapon@@YAMXZ 202476c0 f   NPC_combat.obj
 0001:00246920       ?NPC_PickAlly@@YAPAUgentity_s@@HMHH@Z 20247920 f   NPC_combat.obj
 0001:00246e30       ?NPC_PickEnemy@@YAPAUgentity_s@@PAU1@HHHH@Z 20247e30 f   NPC_combat.obj
 0001:00247db0       ?NPC_ReserveCombatPoint@@YAHH@Z 20248db0 f   NPC_combat.obj
 0001:00247e10       ?NPC_SearchForWeapons@@YAPAUgentity_s@@XZ 20248e10 f   NPC_combat.obj
 0001:00248040       ?NPC_SetCombatPoint@@YAHH@Z 20249040 f   NPC_combat.obj
 0001:002480c0       ?NPC_SetPickUpGoal@@YAXPAUgentity_s@@@Z 202490c0 f   NPC_combat.obj
 0001:00248240       ?NPC_ShotEntity@@YAHPAUgentity_s@@QAM@Z 20249240 f   NPC_combat.obj
 0001:00248640       ?SP_point_combat@@YAXPAUgentity_s@@@Z 20249640 f   NPC_combat.obj
 0001:00248830       ?ShootThink@@YAXXZ         20249830 f   NPC_combat.obj
 0001:00248ae0       ?ShotThroughGlass@@YAHPAUtrace_t@@PAUgentity_s@@QAMH@Z 20249ae0 f   NPC_combat.obj
 0001:00248bf0       ?ValidEnemy@@YAHPAUgentity_s@@@Z 20249bf0 f   NPC_combat.obj
 0001:00248f00       ?WeaponThink@@YAXH@Z       20249f00 f   NPC_combat.obj
 0001:00248fd0       ?G_BoundsOverlap@@YAHQBM000@Z 20249fd0 f   NPC_goal.obj
 0001:00249110       ?NPC_ClearGoal@@YAXXZ      2024a110 f   NPC_goal.obj
 0001:002491d0       ?NPC_ReachedGoal@@YAXXZ    2024a1d0 f   NPC_goal.obj
 0001:00249240       ?NPC_SetGoal@@YAXPAUgentity_s@@M@Z 2024a240 f   NPC_goal.obj
 0001:002492e0       ?ReachedGoal@@YAHPAUgentity_s@@@Z 2024a2e0 f   NPC_goal.obj
 0001:00249390       ?SetGoal@@YAXPAUgentity_s@@M@Z 2024a390 f   NPC_goal.obj
 0001:002493d0       ?UpdateGoal@@YAPAUgentity_s@@XZ 2024a3d0 f   NPC_goal.obj
 0001:00249460       ?Debug_NPCPrintf@@YAXPAUgentity_s@@PAUvmCvar_t@@HPADZZ 2024a460 f   NPC_misc.obj
 0001:00249560       ?Debug_Printf@@YAXPAUvmCvar_t@@HPADZZ 2024a560 f   NPC_misc.obj
 0001:00249750       ?G_UcmdMoveForDir@@YAXPAUgentity_s@@PAUusercmd_s@@QAM@Z 2024a750 f   NPC_move.obj
 0001:00249a30       ?NAV_GetLastMove@@YAXPAUnavInfo_s@@@Z 2024aa30 f   NPC_move.obj
 0001:00249a60       ?NPC_ApplyRoff@@YAXXZ      2024aa60 f   NPC_move.obj
 0001:00249ab0       ?NPC_CheckCombatMove@@YAHXZ 2024aab0 f i NPC_move.obj
 0001:00249b70       ?NPC_ClearPathToGoal@@YAHQAMPAUgentity_s@@@Z 2024ab70 f   NPC_move.obj
 0001:00249e00       ?NPC_GetMoveDirection@@YAHQAMPAM@Z 2024ae00 f   NPC_move.obj
 0001:0024a1f0       ?NPC_GetMoveDirectionAltRoute@@YAHQAMPAMH@Z 2024b1f0 f   NPC_move.obj
 0001:0024a680       ?NPC_GetMoveInformation@@YAHQAMPAM@Z 2024b680 f i NPC_move.obj
 0001:0024a940       ?NPC_MoveToGoal@@YAHH@Z    2024b940 f   NPC_move.obj
 0001:0024ac00       ?NPC_SlideMoveToGoal@@YAHXZ 2024bc00 f   NPC_move.obj
 0001:0024ad40       ?NPC_CheckAllClear@@YAXXZ  2024bd40 f   NPC_reactions.obj
 0001:0024af60       ?NPC_CheckPlayerAim@@YAXXZ 2024bf60 f   NPC_reactions.obj
 0001:0024af80       ?NPC_ChoosePainAnimation@@YAXPAUgentity_s@@0QAMHHHH@Z 2024bf80 f   NPC_reactions.obj
 0001:0024b530       ?NPC_GetPainChance@@YAMPAUgentity_s@@H@Z 2024c530 f   NPC_reactions.obj
 0001:0024b6b0       ?NPC_Pain@@YAXPAUgentity_s@@0H@Z 2024c6b0 f   NPC_reactions.obj
 0001:0024bd30       ?NPC_Respond@@YAXPAUgentity_s@@H@Z 2024cd30 f   NPC_reactions.obj
 0001:0024c600       ?NPC_SetPainEvent@@YAXPAUgentity_s@@@Z 2024d600 f   NPC_reactions.obj
 0001:0024c6d0       ?NPC_TempLookTarget@@YAXPAUgentity_s@@HHH@Z 2024d6d0 f   NPC_reactions.obj
 0001:0024c780       ?NPC_Touch@@YAXPAUgentity_s@@0PAUtrace_t@@@Z 2024d780 f   NPC_reactions.obj
 0001:0024c920       ?NPC_Use@@YAXPAUgentity_s@@00@Z 2024d920 f   NPC_reactions.obj
 0001:0024cb10       ?NPC_UseResponse@@YAXPAUgentity_s@@0H@Z 2024db10 f   NPC_reactions.obj
 0001:0024cc30       ?AddSightEvent@@YAXPAUgentity_s@@QAMMW4alertEventLevel_e@@M@Z 2024dc30 f   NPC_senses.obj
 0001:0024cdc0       ?AddSoundEvent@@YAXPAUgentity_s@@QAMMW4alertEventLevel_e@@H@Z 2024ddc0 f   NPC_senses.obj
 0001:0024cf70       ?CanSee@@YAHPAUgentity_s@@@Z 2024df70 f   NPC_senses.obj
 0001:0024d150       ?ClearPlayerAlertEvents@@YAXXZ 2024e150 f   NPC_senses.obj
 0001:0024d410       ?G_CheckAlertEvents@@YAHPAUgentity_s@@HHMMHHH@Z 2024e410 f   NPC_senses.obj
 0001:0024d6e0       ?G_CheckForDanger@@YAHPAUgentity_s@@H@Z 2024e6e0 f   NPC_senses.obj
 0001:0024dbf0       ?G_ClearLOS2@@YAHPAUgentity_s@@0QBM@Z 2024ebf0 f   NPC_senses.obj
 0001:0024dc50       ?G_ClearLOS3@@YAHPAUgentity_s@@QBM0@Z 2024ec50 f   NPC_senses.obj
 0001:0024dd00       ?G_ClearLOS4@@YAHPAUgentity_s@@0@Z 2024ed00 f   NPC_senses.obj
 0001:0024dd60       ?G_ClearLOS5@@YAHPAUgentity_s@@QBM@Z 2024ed60 f   NPC_senses.obj
 0001:0024ddc0       ?G_ClearLOS@@YAHPAUgentity_s@@QBM1@Z 2024edc0 f   NPC_senses.obj
 0001:0024def0       ?G_ClearLineOfSight@@YAHQBM0HH@Z 2024eef0 f   NPC_senses.obj
 0001:0024e050       ?G_FindLocalInterestPoint@@YAHPAUgentity_s@@@Z 2024f050 f   NPC_senses.obj
 0001:0024e400       ?G_GetLightLevel@@YAMQAM0@Z 2024f400 f   NPC_senses.obj
 0001:0024e430       ?InFOV2@@YAHQAMPAUgentity_s@@HH@Z 2024f430 f   NPC_senses.obj
 0001:0024e590       ?InFOV3@@YAHQAM00HH@Z      2024f590 f   NPC_senses.obj
 0001:0024e7a0       ?InFOV@@YAHPAUgentity_s@@0HH@Z 2024f7a0 f   NPC_senses.obj
 0001:0024ef90       ?InFront@@YAHQAM00M@Z      2024ff90 f   NPC_senses.obj
 0001:0024f1d0       ?InVisrange@@YAHPAUgentity_s@@@Z 202501d0 f   NPC_senses.obj
 0001:0024f330       ?NPC_CheckAlertEvents@@YAHHHHHH@Z 20250330 f   NPC_senses.obj
 0001:0024f3a0       ?NPC_CheckForDanger@@YAHH@Z 202503a0 f   NPC_senses.obj
 0001:0024f3d0       ?NPC_CheckVisibility@@YA?AW4visibility_t@@PAUgentity_s@@H@Z 202503d0 f   NPC_senses.obj
 0001:0024f550       ?NPC_GetHFOVPercentage@@YAMQAM00M@Z 20250550 f   NPC_senses.obj
 0001:0024f6d0       ?NPC_GetVFOVPercentage@@YAMQAM00M@Z 202506d0 f   NPC_senses.obj
 0001:0024f850       ?RemoveOldestAlert@@YAHXZ  20250850 f   NPC_senses.obj
 0001:0024f9b0       ?SP_target_interest@@YAXPAUgentity_s@@@Z 202509b0 f   NPC_senses.obj
 0001:0024fc60       ?G_AddVoiceEvent@@YAXPAUgentity_s@@HH@Z 20250c60 f   NPC_sounds.obj
 0001:0024fdc0       ?NPC_PlayConfusionSound@@YAXPAUgentity_s@@@Z 20250dc0 f   NPC_sounds.obj
 0001:0024ff30       ?Cmd_NPC_f@@YAXPAUgentity_s@@@Z 20250f30 f   NPC_spawn.obj
 0001:002503e0       ?NPC_Begin@@YAXPAUgentity_s@@@Z 202513e0 f   NPC_spawn.obj
 0001:00251940       ?NPC_DefaultScriptFlags@@YAXPAUgentity_s@@@Z 20252940 f   NPC_spawn.obj
 0001:00251990       ?NPC_Kill_f@@YAXXZ         20252990 f   NPC_spawn.obj
 0001:00252050       ?NPC_PainFunc@@YAP6AXPAUgentity_s@@0H@Z0@Z 20253050 f   NPC_spawn.obj
 0001:00252210       ?NPC_PrecacheType@@YAXPAD@Z 20253210 f   NPC_spawn.obj
 0001:00252270       ?NPC_PrintScore@@YAXPAUgentity_s@@@Z 20253270 f   NPC_spawn.obj
 0001:002522c0       ?NPC_SetFX_SpawnStates@@YAXPAUgentity_s@@@Z 202532c0 f   NPC_spawn.obj
 0001:00252310       ?NPC_SetMiscDefaultData@@YAXPAUgentity_s@@@Z 20253310 f   NPC_spawn.obj
 0001:00252d30       ?NPC_SetWeapons@@YAXPAUgentity_s@@@Z 20253d30 f   NPC_spawn.obj
 0001:00252ed0       ?NPC_ShySpawn@@YAXPAUgentity_s@@@Z 20253ed0 f   NPC_spawn.obj
 0001:00252fe0       ?NPC_Spawn@@YAXPAUgentity_s@@00@Z 20253fe0 f   NPC_spawn.obj
 0001:002530d0       ?NPC_SpawnEffect@@YAXPAUgentity_s@@@Z 202540d0 f   NPC_spawn.obj
 0001:00253200       ?NPC_SpawnType@@YAPAUgentity_s@@PAU1@PAD1H@Z 20254200 f   NPC_spawn.obj
 0001:00253a00       ?NPC_Spawn_Do@@YAPAUgentity_s@@PAU1@@Z 20254a00 f   NPC_spawn.obj
 0001:00254fc0       ?NPC_Spawn_Go@@YAXPAUgentity_s@@@Z 20255fc0 f   NPC_spawn.obj
 0001:00254ff0       ?NPC_Spawn_Tjo@@YAXPAUgentity_s@@@Z 20255ff0 f   NPC_spawn.obj
 0001:002567b0       ?NPC_Spawn_f@@YAXPAUgentity_s@@@Z 202577b0 f   NPC_spawn.obj
 0001:002568c0       ?NPC_SpotWouldTelefrag@@YAHPAUgentity_s@@@Z 202578c0 f   NPC_spawn.obj
 0001:00256d10       ?NPC_TouchFunc@@YAP6AXPAUgentity_s@@0PAUtrace_t@@@Z0@Z 20257d10 f   NPC_spawn.obj
 0001:00256d30       ?NPC_VehiclePrecache@@YAHPAUgentity_s@@@Z 20257d30 f   NPC_spawn.obj
 0001:002570a0       ?NPC_VehicleSpawnUse@@YAXPAUgentity_s@@00@Z 202580a0 f   NPC_spawn.obj
 0001:00257110       ?NPC_WeaponsForTeam@@YAHHHPBD@Z 20258110 f   NPC_spawn.obj
 0001:00257820       ?New_NPC_t@@YAPAUgNPC_t@@H@Z 20258820 f   NPC_spawn.obj
 0001:00257850       ?SP_LMD_spawner@@YAXPAUgentity_s@@@Z 20258850 f   NPC_spawn.obj
 0001:00257e40       ?SP_NPC_Alora@@YAXPAUgentity_s@@@Z 20258e40 f   NPC_spawn.obj
 0001:00257ea0       ?SP_NPC_Bartender@@YAXPAUgentity_s@@@Z 20258ea0 f   NPC_spawn.obj
 0001:00257ee0       ?SP_NPC_BespinCop@@YAXPAUgentity_s@@@Z 20258ee0 f   NPC_spawn.obj
 0001:00257f50       ?SP_NPC_Cultist@@YAXPAUgentity_s@@@Z 20258f50 f   NPC_spawn.obj
 0001:00258100       ?SP_NPC_Cultist_Commando@@YAXPAUgentity_s@@@Z 20259100 f   NPC_spawn.obj
 0001:00258150       ?SP_NPC_Cultist_Destroyer@@YAXPAUgentity_s@@@Z 20259150 f   NPC_spawn.obj
 0001:00258190       ?SP_NPC_Cultist_Saber@@YAXPAUgentity_s@@@Z 20259190 f   NPC_spawn.obj
 0001:002582e0       ?SP_NPC_Cultist_Saber_Powers@@YAXPAUgentity_s@@@Z 202592e0 f   NPC_spawn.obj
 0001:00258430       ?SP_NPC_Desann@@YAXPAUgentity_s@@@Z 20259430 f   NPC_spawn.obj
 0001:00258480       ?SP_NPC_Droid_ATST@@YAXPAUgentity_s@@@Z 20259480 f   NPC_spawn.obj
 0001:002584e0       ?SP_NPC_Droid_Gonk@@YAXPAUgentity_s@@@Z 202594e0 f   NPC_spawn.obj
 0001:00258520       ?SP_NPC_Droid_Interrogator@@YAXPAUgentity_s@@@Z 20259520 f   NPC_spawn.obj
 0001:00258570       ?SP_NPC_Droid_Mark1@@YAXPAUgentity_s@@@Z 20259570 f   NPC_spawn.obj
 0001:002585b0       ?SP_NPC_Droid_Mark2@@YAXPAUgentity_s@@@Z 202595b0 f   NPC_spawn.obj
 0001:002585f0       ?SP_NPC_Droid_Mouse@@YAXPAUgentity_s@@@Z 202595f0 f   NPC_spawn.obj
 0001:00258630       ?SP_NPC_Droid_Probe@@YAXPAUgentity_s@@@Z 20259630 f   NPC_spawn.obj
 0001:00258670       ?SP_NPC_Droid_Protocol@@YAXPAUgentity_s@@@Z 20259670 f   NPC_spawn.obj
 0001:002586d0       ?SP_NPC_Droid_R2D2@@YAXPAUgentity_s@@@Z 202596d0 f   NPC_spawn.obj
 0001:00258730       ?SP_NPC_Droid_R5D2@@YAXPAUgentity_s@@@Z 20259730 f   NPC_spawn.obj
 0001:00258790       ?SP_NPC_Droid_Remote@@YAXPAUgentity_s@@@Z 20259790 f   NPC_spawn.obj
 0001:002587d0       ?SP_NPC_Droid_Seeker@@YAXPAUgentity_s@@@Z 202597d0 f   NPC_spawn.obj
 0001:00258810       ?SP_NPC_Droid_Sentry@@YAXPAUgentity_s@@@Z 20259810 f   NPC_spawn.obj
 0001:00258850       ?SP_NPC_Galak@@YAXPAUgentity_s@@@Z 20259850 f   NPC_spawn.obj
 0001:002588b0       ?SP_NPC_Gran@@YAXPAUgentity_s@@@Z 202598b0 f   NPC_spawn.obj
 0001:00258970       ?SP_NPC_HazardTrooper@@YAXPAUgentity_s@@@Z 20259970 f   NPC_spawn.obj
 0001:002589b0       ?SP_NPC_ImpWorker@@YAXPAUgentity_s@@@Z 202599b0 f   NPC_spawn.obj
 0001:00258a40       ?SP_NPC_Imperial@@YAXPAUgentity_s@@@Z 20259a40 f   NPC_spawn.obj
 0001:00258ad0       ?SP_NPC_Jan@@YAXPAUgentity_s@@@Z 20259ad0 f   NPC_spawn.obj
 0001:00258b10       ?SP_NPC_Jawa@@YAXPAUgentity_s@@@Z 20259b10 f   NPC_spawn.obj
 0001:00258b80       ?SP_NPC_Jedi@@YAXPAUgentity_s@@@Z 20259b80 f   NPC_spawn.obj
 0001:00258c20       ?SP_NPC_Kyle@@YAXPAUgentity_s@@@Z 20259c20 f   NPC_spawn.obj
 0001:00258c70       ?SP_NPC_Lando@@YAXPAUgentity_s@@@Z 20259c70 f   NPC_spawn.obj
 0001:00258cb0       ?SP_NPC_Luke@@YAXPAUgentity_s@@@Z 20259cb0 f   NPC_spawn.obj
 0001:00258d00       ?SP_NPC_MineMonster@@YAXPAUgentity_s@@@Z 20259d00 f   NPC_spawn.obj
 0001:00258d40       ?SP_NPC_MonMothma@@YAXPAUgentity_s@@@Z 20259d40 f   NPC_spawn.obj
 0001:00258d80       ?SP_NPC_Monster_Claw@@YAXPAUgentity_s@@@Z 20259d80 f   NPC_spawn.obj
 0001:00258dc0       ?SP_NPC_Monster_Fish@@YAXPAUgentity_s@@@Z 20259dc0 f   NPC_spawn.obj
 0001:00258e00       ?SP_NPC_Monster_Flier2@@YAXPAUgentity_s@@@Z 20259e00 f   NPC_spawn.obj
 0001:00258e40       ?SP_NPC_Monster_Glider@@YAXPAUgentity_s@@@Z 20259e40 f   NPC_spawn.obj
 0001:00258e80       ?SP_NPC_Monster_Howler@@YAXPAUgentity_s@@@Z 20259e80 f   NPC_spawn.obj
 0001:00258ec0       ?SP_NPC_Monster_Lizard@@YAXPAUgentity_s@@@Z 20259ec0 f   NPC_spawn.obj
 0001:00258f00       ?SP_NPC_Monster_Murjj@@YAXPAUgentity_s@@@Z 20259f00 f   NPC_spawn.obj
 0001:00258f40       ?SP_NPC_Monster_Rancor@@YAXPAUgentity_s@@@Z 20259f40 f   NPC_spawn.obj
 0001:00258f80       ?SP_NPC_Monster_Swamp@@YAXPAUgentity_s@@@Z 20259f80 f   NPC_spawn.obj
 0001:00258fc0       ?SP_NPC_Monster_Wampa@@YAXPAUgentity_s@@@Z 20259fc0 f   NPC_spawn.obj
 0001:00259000       ?SP_NPC_MorganKatarn@@YAXPAUgentity_s@@@Z 2025a000 f   NPC_spawn.obj
 0001:00259040       ?SP_NPC_Noghri@@YAXPAUgentity_s@@@Z 2025a040 f   NPC_spawn.obj
 0001:00259090       ?SP_NPC_Prisoner@@YAXPAUgentity_s@@@Z 2025a090 f   NPC_spawn.obj
 0001:00259100       ?SP_NPC_Rebel@@YAXPAUgentity_s@@@Z 2025a100 f   NPC_spawn.obj
 0001:00259170       ?SP_NPC_Reborn@@YAXPAUgentity_s@@@Z 2025a170 f   NPC_spawn.obj
 0001:00259260       ?SP_NPC_Reborn_New@@YAXPAUgentity_s@@@Z 2025a260 f   NPC_spawn.obj
 0001:00259360       ?SP_NPC_Reelo@@YAXPAUgentity_s@@@Z 2025a360 f   NPC_spawn.obj
 0001:002593a0       ?SP_NPC_Rodian@@YAXPAUgentity_s@@@Z 2025a3a0 f   NPC_spawn.obj
 0001:00259410       ?SP_NPC_Saboteur@@YAXPAUgentity_s@@@Z 2025a410 f   NPC_spawn.obj
 0001:00259450       ?SP_NPC_ShadowTrooper@@YAXPAUgentity_s@@@Z 2025a450 f   NPC_spawn.obj
 0001:002594d0       ?SP_NPC_Snowtrooper@@YAXPAUgentity_s@@@Z 2025a4d0 f   NPC_spawn.obj
 0001:00259510       ?SP_NPC_Stormtrooper@@YAXPAUgentity_s@@@Z 2025a510 f   NPC_spawn.obj
 0001:00259600       ?SP_NPC_StormtrooperOfficer@@YAXPAUgentity_s@@@Z 2025a600 f   NPC_spawn.obj
 0001:00259640       ?SP_NPC_SwampTrooper@@YAXPAUgentity_s@@@Z 2025a640 f   NPC_spawn.obj
 0001:002596b0       ?SP_NPC_Tavion@@YAXPAUgentity_s@@@Z 2025a6b0 f   NPC_spawn.obj
 0001:00259700       ?SP_NPC_Tavion_New@@YAXPAUgentity_s@@@Z 2025a700 f   NPC_spawn.obj
 0001:00259780       ?SP_NPC_Tie_Pilot@@YAXPAUgentity_s@@@Z 2025a780 f   NPC_spawn.obj
 0001:002597c0       ?SP_NPC_Trandoshan@@YAXPAUgentity_s@@@Z 2025a7c0 f   NPC_spawn.obj
 0001:00259810       ?SP_NPC_Tusken@@YAXPAUgentity_s@@@Z 2025a810 f   NPC_spawn.obj
 0001:00259880       ?SP_NPC_Ugnaught@@YAXPAUgentity_s@@@Z 2025a880 f   NPC_spawn.obj
 0001:002598f0       ?SP_NPC_Vehicle@@YAXPAUgentity_s@@@Z 2025a8f0 f   NPC_spawn.obj
 0001:00259b50       ?SP_NPC_Weequay@@YAXPAUgentity_s@@@Z 2025ab50 f   NPC_spawn.obj
 0001:00259c10       ?SP_NPC_spawner@@YAXPAUgentity_s@@@Z 2025ac10 f   NPC_spawn.obj
 0001:00259e60       ?WP_SetSaberModel@@YAHPAUgclient_s@@W4class_t@@@Z 2025ae60 f   NPC_spawn.obj
 0001:00259e80       ?G_ParseAnimFileSet@@YAHPBD0PAH@Z 2025ae80 f   NPC_stats.obj
 0001:00259ed0       ?NPC_LoadParms@@YAXXZ      2025aed0 f   NPC_stats.obj
 0001:0025a1d0       ?NPC_ParseParms@@YAHPBDPAUgentity_s@@@Z 2025b1d0 f   NPC_stats.obj
 0001:0025f4a0       ?NPC_Precache@@YAXPAUgentity_s@@@Z 202604a0 f   NPC_stats.obj
 0001:0025fd30       ?NPC_PrecacheAnimationCFG@@YAXPBD@Z 20260d30 f   NPC_stats.obj
 0001:0025fd50       ?NPC_PrecacheWeapons@@YAXHHPAD@Z 20260d50 f   NPC_stats.obj
 0001:0025fdd0       ?NPC_ReactionTime@@YAHXZ   20260dd0 f   NPC_stats.obj
 0001:002603e0       ?CalcEntitySpot@@YAXPBUgentity_s@@W4spot_t@@QAM@Z 202613e0 f   NPC_utils.obj
 0001:002613c0       ?G_ActivateBehavior@@YAHPAUgentity_s@@H@Z 202623c0 f   NPC_utils.obj
 0001:00261510       ?G_GetBoltPosition@@YAXPAUgentity_s@@HQAMH@Z 20262510 f   NPC_utils.obj
 0001:00261700       ?NPC_AimWiggle@@YAXQAM@Z   20262700 f   NPC_utils.obj
 0001:002619d0       ?NPC_CheckCanAttackExt@@YAHXZ 202629d0 f   NPC_utils.obj
 0001:00261a40       ?NPC_CheckCharmed@@YAXXZ   20262a40 f   NPC_utils.obj
 0001:00261b90       ?NPC_CheckEnemyExt@@YAHH@Z 20262b90 f   NPC_utils.obj
 0001:00261bc0       ?NPC_CheckLookTarget@@YAHPAUgentity_s@@@Z 20262bc0 f   NPC_utils.obj
 0001:00261d60       ?NPC_ClearLOS2@@YAHPAUgentity_s@@QBM@Z 20262d60 f   NPC_utils.obj
 0001:00261d90       ?NPC_ClearLOS3@@YAHQBMPAUgentity_s@@@Z 20262d90 f   NPC_utils.obj
 0001:00261dc0       ?NPC_ClearLOS4@@YAHPAUgentity_s@@@Z 20262dc0 f   NPC_utils.obj
 0001:00261df0       ?NPC_ClearLOS5@@YAHQBM@Z   20262df0 f   NPC_utils.obj
 0001:00261e20       ?NPC_ClearLOS@@YAHQBM0@Z   20262e20 f   NPC_utils.obj
 0001:00261e50       ?NPC_ClearLookTarget@@YAXPAUgentity_s@@@Z 20262e50 f   NPC_utils.obj
 0001:00261ec0       ?NPC_EnemyRangeFromBolt@@YAMH@Z 20262ec0 f   NPC_utils.obj
 0001:00261f00       ?NPC_EntRangeFromBolt@@YAMPAUgentity_s@@H@Z 20262f00 f   NPC_utils.obj
 0001:00261f80       ?NPC_FaceEnemy@@YAHH@Z     20262f80 f   NPC_utils.obj
 0001:00261fe0       ?NPC_FaceEntity@@YAHPAUgentity_s@@H@Z 20262fe0 f   NPC_utils.obj
 0001:00262040       ?NPC_FacePosition@@YAHQAMH@Z 20263040 f   NPC_utils.obj
 0001:002624b0       ?NPC_FindEnemy@@YAHH@Z     202634b0 f   NPC_utils.obj
 0001:002625f0       ?NPC_FindNearestEnemy@@YAHPAUgentity_s@@@Z 202635f0 f   NPC_utils.obj
 0001:00262860       ?NPC_FindPlayer@@YAHXZ     20263860 f   NPC_utils.obj
 0001:00262890       ?NPC_GetEntsNearBolt@@YAHPAHMHQAM@Z 20263890 f   NPC_utils.obj
 0001:002629c0       ?NPC_PickEnemyExt@@YAPAUgentity_s@@H@Z 202639c0 f   NPC_utils.obj
 0001:00262af0       ?NPC_SetBoneAngles@@YAXPAUgentity_s@@PADQAM@Z 20263af0 f   NPC_utils.obj
 0001:00262d70       ?NPC_SetLookTarget@@YAXPAUgentity_s@@HH@Z 20263d70 f   NPC_utils.obj
 0001:00262de0       ?NPC_SetSurfaceOnOff@@YAXPAUgentity_s@@PBDH@Z 20263de0 f   NPC_utils.obj
 0001:00262f50       ?NPC_SomeoneLookingAtMe@@YAHPAUgentity_s@@@Z 20263f50 f   NPC_utils.obj
 0001:00263060       ?NPC_TargetVisible@@YAHPAUgentity_s@@@Z 20264060 f   NPC_utils.obj
 0001:00263130       ?NPC_UpdateAngles@@YAHHH@Z 20264130 f   NPC_utils.obj
 0001:00263720       ?NPC_UpdateFiringAngles@@YAHHH@Z 20264720 f   NPC_utils.obj
 0001:00263cd0       ?NPC_UpdateShootAngles@@YAXQAMHH@Z 20264cd0 f   NPC_utils.obj
 0001:00263fc0       ?NPC_ValidEnemy@@YAHPAUgentity_s@@@Z 20264fc0 f   NPC_utils.obj
 0001:00264370       ?SetTeamNumbers@@YAXXZ     20265370 f   NPC_utils.obj
 0001:00264720       ?AddPointToBounds@@YAXQBMQAM1@Z 20265720 f   q_math.obj
 0001:00264900       ?AngleDelta@@YAMMM@Z       20265900 f   q_math.obj
 0001:00264940       ?AngleMod@@YAMM@Z          20265940 f   q_math.obj
 0001:00264990       ?AngleNormalize180@@YAMM@Z 20265990 f   q_math.obj
 0001:00264a00       ?AngleNormalize360@@YAMM@Z 20265a00 f   q_math.obj
 0001:00264a50       ?AngleSubtract@@YAMMM@Z    20265a50 f   q_math.obj
 0001:00264b10       ?AngleVectors@@YAXQBMQAM11@Z 20265b10 f   q_math.obj
 0001:00264ed0       ?AnglesSubtract@@YAXQAM00@Z 20265ed0 f   q_math.obj
 0001:00264fe0       ?AnglesToAxis@@YAXQBMQAY02M@Z 20265fe0 f   q_math.obj
 0001:00265120       ?AxisClear@@YAXQAY02M@Z    20266120 f   q_math.obj
 0001:00265270       ?AxisCopy@@YAXQAY02M0@Z    20266270 f   q_math.obj
 0001:00265470       ?BoxOnPlaneSide@@YAHQAM0PAUcplane_s@@@Z 20266470 f   q_math.obj
 0001:00265740       ?ByteToDir@@YAXHQAM@Z      20266740 f   q_math.obj
 0001:00265850       ?ClampChar@@YACH@Z         20266850 f   q_math.obj
 0001:00265880       ?ClampShort@@YAFH@Z        20266880 f   q_math.obj
 0001:002658d0       ?ClearBounds@@YAXQAM0@Z    202668d0 f   q_math.obj
 0001:002659a0       ?ColorBytes3@@YAIMMM@Z     202669a0 f   q_math.obj
 0001:00265a30       ?ColorBytes4@@YAIMMMM@Z    20266a30 f   q_math.obj
 0001:00265c30       ?DirToByte@@YAHQAM@Z       20266c30 f   q_math.obj
 0001:00265e60       ?DistanceHorizontal@@YAMQBM0@Z 20266e60 f   q_math.obj
 0001:00265fb0       ?DistanceHorizontalSquared@@YAMQBM0@Z 20266fb0 f   q_math.obj
 0001:002660f0       ?DotProductNormalize@@YAMQBM0@Z 202670f0 f   q_math.obj
 0001:002661d0       ?G_FindClosestPointOnLineSegment@@YAHQBM00QAM@Z 202671d0 f   q_math.obj
 0001:00266a20       ?G_PointDistFromLineSegment@@YAMQBM00@Z 20267a20 f   q_math.obj
 0001:00266fe0       ?LerpAngle@@YAMMMM@Z       20267fe0 f   q_math.obj
 0001:00267080       ?MakeNormalVectors@@YAXQBMQAM1@Z 20268080 f   q_math.obj
 0001:002672b0       ?MatrixMultiply@@YAXQAY02M00@Z 202682b0 f   q_math.obj
 0001:00267a50       ?NormalToLatLong@@YAXQBMQAE@Z 20268a50 f   q_math.obj
 0001:00267c40       ?NormalizeColor@@YAMQBMQAM@Z 20268c40 f   q_math.obj
 0001:00267dd0       ?PerpendicularVector@@YAXQAMQBM@Z 20268dd0 f   q_math.obj
 0001:00267f20       ?PlaneFromPoints@@YAHQAMQBM11@Z 20268f20 f   q_math.obj
 0001:002681a0       ?ProjectPointOnPlane@@YAXQAMQBM1@Z 202691a0 f   q_math.obj
 0001:002684a0       ?Q_crandom@@YAMPAH@Z       202694a0 f   q_math.obj
 0001:002684f0       ?Q_fabs@@YAMM@Z            202694f0 f   q_math.obj
 0001:00268520       ?Q_flrand@@YAMMM@Z         20269520 f   q_math.obj
 0001:00268560       ?Q_irand@@YAHHH@Z          20269560 f   q_math.obj
 0001:00268590       ?Q_log2@@YAHH@Z            20269590 f   q_math.obj
 0001:002685d0       ?Q_powf@@YAMMH@Z           202695d0 f   q_math.obj
 0001:00268630       ?Q_rand@@YAHPAH@Z          20269630 f   q_math.obj
 0001:00268660       ?Q_random@@YAMPAH@Z        20269660 f   q_math.obj
 0001:002686b0       ?Q_round@@YAMM@Z           202696b0 f   q_math.obj
 0001:00268700       ?Q_rsqrt@@YAMM@Z           20269700 f   q_math.obj
 0001:002687a0       ?RadiusFromBounds@@YAMQBM0@Z 202697a0 f   q_math.obj
 0001:00268890       ?Rand_Init@@YAXH@Z         20269890 f   q_math.obj
 0001:002688b0       ?RotateAroundDirection@@YAXQAY02MM@Z 202698b0 f   q_math.obj
 0001:00268a10       ?RotatePointAroundVector@@YAXQAMQBM1M@Z 20269a10 f   q_math.obj
 0001:00269110       ?SetPlaneSignbits@@YAXPAUcplane_s@@@Z 2026a110 f   q_math.obj
 0001:00269180       ?Vector4Scale@@YAXQBMMQAM@Z 2026a180 f   q_math.obj
 0001:002693b0       ?VectorNormalize2@@YAMQBMQAM@Z 2026a3b0 f   q_math.obj
 0001:00269570       ?VectorNormalize@@YAMQAM@Z 2026a570 f   q_math.obj
 0001:002696e0       ?VectorRotate@@YAXQAMQAY02M0@Z 2026a6e0 f   q_math.obj
 0001:00269910       ?_DotProduct@@YAMQBM0@Z    2026a910 f   q_math.obj
 0001:002699b0       ?_VectorAdd@@YAXQBM0QAM@Z  2026a9b0 f   q_math.obj
 0001:00269a80       ?_VectorCopy@@YAXQBMQAM@Z  2026aa80 f   q_math.obj
 0001:00269b00       ?_VectorMA@@YAXQBMM0QAM@Z  2026ab00 f   q_math.obj
 0001:00269be0       ?_VectorScale@@YAXQBMMQAM@Z 2026abe0 f   q_math.obj
 0001:00269c80       ?_VectorSubtract@@YAXQBM0QAM@Z 2026ac80 f   q_math.obj
 0001:00269d50       ?flrand@@YAMMM@Z           2026ad50 f   q_math.obj
 0001:00269df0       ?irand@@YAHHH@Z            2026adf0 f   q_math.obj
 0001:00269e60       ?vectoangles@@YAXQBMQAM@Z  2026ae60 f   q_math.obj
 0001:0026a150       ?COM_BeginParseSession@@YAXPBD@Z 2026b150 f   q_shared.obj
 0001:0026a1a0       ?COM_Compress@@YAHPAD@Z    2026b1a0 f   q_shared.obj
 0001:0026a440       ?COM_DefaultExtension@@YAXPADHPBD@Z 2026b440 f   q_shared.obj
 0001:0026a500       ?COM_GetCurrentParseLine@@YAHXZ 2026b500 f   q_shared.obj
 0001:0026a520       ?COM_MatchToken@@YAXPAPBDPAD@Z 2026b520 f   q_shared.obj
 0001:0026a580       ?COM_Parse@@YAPADPAPBD@Z   2026b580 f   q_shared.obj
 0001:0026a5b0       ?COM_ParseDatastring@@YAPADPAPBD@Z 2026b5b0 f   q_shared.obj
 0001:0026a9c0       ?COM_ParseError@@YAXPADZZ  2026b9c0 f   q_shared.obj
 0001:0026aa30       ?COM_ParseExt@@YAPADPAPBDH@Z 2026ba30 f   q_shared.obj
 0001:0026ad70       ?COM_ParseFloat@@YAHPAPBDPAM@Z 2026bd70 f   q_shared.obj
 0001:0026adf0       ?COM_ParseInt@@YAHPAPBDPAH@Z 2026bdf0 f   q_shared.obj
 0001:0026ae70       ?COM_ParseLine@@YAPADPAPBD@Z 2026be70 f   q_shared.obj
 0001:0026b250       ?COM_ParseString@@YAHPAPBD0@Z 2026c250 f   q_shared.obj
 0001:0026b2b0       ?COM_ParseVec4@@YAHPAPBDPAY03M@Z 2026c2b0 f   q_shared.obj
 0001:0026b320       ?COM_ParseWarning@@YAXPADZZ 2026c320 f   q_shared.obj
 0001:0026b390       ?COM_SkipPath@@YAPADPAD@Z  2026c390 f   q_shared.obj
 0001:0026b3f0       ?COM_StripExtension@@YAXPBDPAD@Z 2026c3f0 f   q_shared.obj
 0001:0026b450       ?Com_Clamp@@YAMMMM@Z       2026c450 f   q_shared.obj
 0001:0026b490       ?Com_Clampi@@YAHHHH@Z      2026c490 f   q_shared.obj
 0001:0026b4d0       ?Com_sprintf@@YAXPADHPBDZZ 2026c4d0 f   q_shared.obj
 0001:0026b540       ?FloatNoSwap@@YAMPBM@Z     2026c540 f   q_shared.obj
 0001:0026b560       ?FloatSwap@@YAMPBM@Z       2026c560 f   q_shared.obj
 0001:0026b5a0       ?GetIDForString@@YAHPAUstringID_table_s@@PBD@Z 2026c5a0 f   q_shared.obj
 0001:0026b630       ?GetStringForID@@YAPBDPAUstringID_table_s@@H@Z 2026c630 f   q_shared.obj
 0001:0026b6b0       ?Info_NextPair@@YAXPAPBDPAD1@Z 2026c6b0 f   q_shared.obj
 0001:0026b7e0       ?Info_RemoveKey@@YAXPADPBD@Z 2026c7e0 f   q_shared.obj
 0001:0026b9c0       ?Info_RemoveKey_Big@@YAXPADPBD@Z 2026c9c0 f   q_shared.obj
 0001:0026bbb0       ?Info_SetValueForKey@@YAXPADPBD1@Z 2026cbb0 f   q_shared.obj
 0001:0026bdb0       ?Info_SetValueForKey_Big@@YAXPADPBD1@Z 2026cdb0 f   q_shared.obj
 0001:0026bfa0       ?Info_Validate@@YAHPBD@Z   2026cfa0 f   q_shared.obj
 0001:0026c000       ?Info_ValueForKey@@YAPADPBD0@Z 2026d000 f   q_shared.obj
 0001:0026c200       ?Long64NoSwap@@YA?AUqint64@@U1@@Z 2026d200 f   q_shared.obj
 0001:0026c220       ?Long64Swap@@YA?AUqint64@@U1@@Z 2026d220 f   q_shared.obj
 0001:0026c280       ?LongNoSwap@@YAHH@Z        2026d280 f   q_shared.obj
 0001:0026c2a0       ?LongSwap@@YAHH@Z          2026d2a0 f   q_shared.obj
 0001:0026c320       ?Parse1DMatrix@@YAXPAPBDHPAM@Z 2026d320 f   q_shared.obj
 0001:0026c3b0       ?Parse2DMatrix@@YAXPAPBDHHPAM@Z 2026d3b0 f   q_shared.obj
 0001:0026c440       ?Parse3DMatrix@@YAXPAPBDHHHPAM@Z 2026d440 f   q_shared.obj
 0001:0026c4e0       ?Q_CleanStr2@@YAPADPAD@Z   2026d4e0 f   q_shared.obj
 0001:0026c600       ?Q_CleanStr@@YAPADPAD@Z    2026d600 f   q_shared.obj
 0001:0026c6e0       ?Q_CleanStrC@@YAPADPAD@Z   2026d6e0 f   q_shared.obj
 0001:0026c7b0       ?Q_MorphColorCodes@@YAPADPAD@Z 2026d7b0 f   q_shared.obj
 0001:0026c8c0       ?Q_PrintStrlen@@YAHPBD@Z   2026d8c0 f   q_shared.obj
 0001:0026c980       ?Q_SkipTag@@YAPADPAD@Z     2026d980 f   q_shared.obj
 0001:0026cb30       ?Q_StripTags@@YAPADPAD@Z   2026db30 f   q_shared.obj
 0001:0026cc70       ?Q_isalpha@@YAHH@Z         2026dc70 f   q_shared.obj
 0001:0026ccb0       ?Q_islower@@YAHH@Z         2026dcb0 f   q_shared.obj
 0001:0026cce0       ?Q_isnumeric@@YAHH@Z       2026dce0 f   q_shared.obj
 0001:0026cd10       ?Q_isprint@@YAHH@Z         2026dd10 f   q_shared.obj
 0001:0026cd40       ?Q_isupper@@YAHH@Z         2026dd40 f   q_shared.obj
 0001:0026cd70       ?Q_strcat@@YAXPADHPBD@Z    2026dd70 f   q_shared.obj
 0001:0026cde0       ?Q_stricmp@@YAHPBD0@Z      2026dde0 f   q_shared.obj
 0001:0026ce30       ?Q_stricmpn@@YAHPBD0H@Z    2026de30 f   q_shared.obj
 0001:0026cf50       ?Q_stricmpname@@YAHPBD0@Z  2026df50 f   q_shared.obj
 0001:0026d100       ?Q_stricmpword@@YAHPBD0@Z  2026e100 f   q_shared.obj
 0001:0026d270       ?Q_strlwr@@YAPADPAD@Z      2026e270 f   q_shared.obj
 0001:0026d2d0       ?Q_strncmp@@YAHPBD0H@Z     2026e2d0 f   q_shared.obj
 0001:0026d370       ?Q_strncpyz@@YAXPADPBDH@Z  2026e370 f   q_shared.obj
 0001:0026d400       ?Q_strrchr@@YAPADPBDH@Z    2026e400 f   q_shared.obj
 0001:0026d480       ?Q_strupr@@YAPADPAD@Z      2026e480 f   q_shared.obj
 0001:0026d4e0       ?Q_vsnprintf@@YAHPADHPBD0@Z 2026e4e0 f   q_shared.obj
 0001:0026d550       ?Q_wordInLine@@YAHPBD0@Z   2026e550 f   q_shared.obj
 0001:0026d620       ?Q_wordsInLine@@YAHPBD0PAPAD@Z 2026e620 f   q_shared.obj
 0001:0026d780       ?ShortNoSwap@@YAFF@Z       2026e780 f   q_shared.obj
 0001:0026d7a0       ?ShortSwap@@YAFF@Z         2026e7a0 f   q_shared.obj
 0001:0026d7f0       ?SkipBracedSection@@YAXPAPBD@Z 2026e7f0 f   q_shared.obj
 0001:0026d8a0       ?SkipRestOfLine@@YAXPAPBD@Z 2026e8a0 f   q_shared.obj
 0001:0026d910       ?SkipWhitespace@@YAPBDPBDPAH@Z 2026e910 f   q_shared.obj
 0001:0026d980       ?skipline@@YAPADPBD@Z      2026e980 f   q_shared.obj
 0001:0026da00       ?va@@YAPADPADZZ            2026ea00 f   q_shared.obj
 0001:0026dae0       __vsnprintf                2026eae0 f i q_shared.obj
 0001:0026db20       ?AnimateRiders@@YAXPAUVehicle_s@@@Z 2026eb20 f   SpeederNPC.obj
 0001:0026e730       ?AnimateVehicle@@YAXPAUVehicle_s@@@Z 2026f730 f   SpeederNPC.obj
 0001:0026ebf0       ?G_CreateSpeederNPC@@YAXPAPAUVehicle_s@@PBD@Z 2026fbf0 f   SpeederNPC.obj
 0001:0026ec60       ?G_SetSpeederVehicleFunctions@@YAXPAUvehicleInfo_t@@@Z 2026fc60 f   SpeederNPC.obj
 0001:0026f530       ?ProcessOrientCommands@@YAXPAUVehicle_s@@@Z 20270530 f   SpeederNPC.obj
 0001:0026f7e0       ?Update@@YAHPAUVehicle_s@@PBUusercmd_s@@@Z 202707e0 f   SpeederNPC.obj
 0001:0026f860       ?VEH_StartStrafeRam@@YAHPAUVehicle_s@@HH@Z 20270860 f   SpeederNPC.obj
 0001:0026f880       ?coplanar_tri_tri@@YAHQAM000000@Z 20270880 f   tri_coll_test.obj
 0001:00271170       ?tri_tri_intersect@@YAHQAM00000@Z 20272170 f   tri_coll_test.obj
 0001:002727f0       ?FindGenericEnemyIndex@@YAXPAUgentity_s@@@Z 202737f0 f   w_force.obj
 0001:00272ae0       ?ForceAbsorb@@YAXPAUgentity_s@@@Z 20273ae0 f   w_force.obj
 0001:00272b10       ?ForceDrain@@YAXPAUgentity_s@@@Z 20273b10 f   w_force.obj
 0001:00272b40       ?ForceGrip@@YAXPAUgentity_s@@@Z 20273b40 f   w_force.obj
 0001:00272b70       ?ForceHeal@@YAXPAUgentity_s@@@Z 20273b70 f   w_force.obj
 0001:00272ba0       ?ForceJump@@YAXPAUgentity_s@@PAUusercmd_s@@@Z 20273ba0 f   w_force.obj
 0001:00272bd0       ?ForceJumpCharge@@YAXPAUgentity_s@@PAUusercmd_s@@@Z 20273bd0 f   w_force.obj
 0001:00272f80       ?ForceLightning@@YAXPAUgentity_s@@@Z 20273f80 f   w_force.obj
 0001:00272fb0       ?ForcePowerUsableOn@@YAHPAUgentity_s@@0H@Z 20273fb0 f   w_force.obj
 0001:00273500       ?ForceProtect@@YAXPAUgentity_s@@@Z 20274500 f   w_force.obj
 0001:00273530       ?ForceRage@@YAXPAUgentity_s@@@Z 20274530 f   w_force.obj
 0001:00273560       ?ForceSeeing@@YAXPAUgentity_s@@@Z 20274560 f   w_force.obj
 0001:00273590       ?ForceSpeed@@YAXPAUgentity_s@@H@Z 20274590 f   w_force.obj
 0001:002735c0       ?ForceTeamForceReplenish@@YAXPAUgentity_s@@@Z 202745c0 f   w_force.obj
 0001:002735f0       ?ForceTeamHeal@@YAXPAUgentity_s@@@Z 202745f0 f   w_force.obj
 0001:00273620       ?ForceTelepathy@@YAXPAUgentity_s@@@Z 20274620 f   w_force.obj
 0001:00273650       ?ForceThrow@@YAXPAUgentity_s@@H@Z 20274650 f   w_force.obj
 0001:002736a0       ?G_InGetUpAnim@@YAHPAUplayerState_s@@@Z 202746a0 f   w_force.obj
 0001:00273810       ?G_IsMindTricked@@YAHPAUforcedata_s@@H@Z 20274810 f   w_force.obj
 0001:00273900       ?G_LetGoOfWall@@YAXPAUgentity_s@@@Z 20274900 f   w_force.obj
 0001:00273a00       ?G_PreDefSound@@YAPAUgentity_s@@QAMH@Z 20274a00 f   w_force.obj
 0001:00273ab0       ?G_SpecialRollGetup@@YAHPAUgentity_s@@@Z 20274ab0 f   w_force.obj
 0001:00273ce0       ?HolocronUpdate@@YAXPAUgentity_s@@@Z 20274ce0 f   w_force.obj
 0001:002740a0       ?JediMasterUpdate@@YAXPAUgentity_s@@@Z 202750a0 f   w_force.obj
 0001:00274320       ?Jedi_DodgeEvasion@@YAHPAUgentity_s@@0PAUtrace_t@@H@Z 20275320 f   w_force.obj
 0001:002747c0       ?SeekerDroneUpdate@@YAXPAUgentity_s@@@Z 202757c0 f   w_force.obj
 0001:00275810       ?WP_AbsorbConversion@@YAHPAUgentity_s@@H0HHH@Z 20276810 f   w_force.obj
 0001:002759f0       ?WP_AddToClientBitflags@@YAXPAUgentity_s@@H@Z 202769f0 f   w_force.obj
 0001:00275ad0       ?WP_DoSpecificPower@@YAHPAUgentity_s@@PAUusercmd_s@@H@Z 20276ad0 f   w_force.obj
 0001:002760e0       ?WP_ForceLimiterForceSet@@YAXPAUgentity_s@@@Z 202770e0 f   w_force.obj
 0001:00276270       ?WP_ForcePowerAvailable@@YAHPAUgentity_s@@HH@Z 20277270 f   w_force.obj
 0001:00276460       ?WP_ForcePowerInUse@@YAHPAUgentity_s@@H@Z 20277460 f   w_force.obj
 0001:002764b0       ?WP_ForcePowerRegenerate@@YAXPAUgentity_s@@H@Z 202774b0 f   w_force.obj
 0001:00276b50       ?WP_ForcePowerStart@@YAXPAUgentity_s@@HH@Z 20277b50 f   w_force.obj
 0001:00276cc0       ?WP_ForcePowerStop@@YAXPAUgentity_s@@H@Z 20277cc0 f   w_force.obj
 0001:00276d40       ?WP_ForcePowerUsable@@YAHPAUgentity_s@@H@Z 20277d40 f   w_force.obj
 0001:00277230       ?WP_ForcePowersUpdate@@YAXPAUgentity_s@@PAUusercmd_s@@@Z 20278230 f   w_force.obj
 0001:00278de0       ?WP_HasForcePowers@@YAHPBUplayerState_s@@@Z 20279de0 f   w_force.obj
 0001:00278e70       ?WP_InitForcePowers@@YAXPAUgentity_s@@@Z 20279e70 f   w_force.obj
 0001:0027a520       ?WP_SpawnInitForcePowers@@YAXPAUgentity_s@@@Z 2027b520 f   w_force.obj
 0001:002825a0       ?DeadSaberThink@@YAXPAUgentity_s@@@Z 202835a0 f   w_saber.obj
 0001:00282870       ?DownedSaberThink@@YAXPAUgentity_s@@@Z 20283870 f   w_saber.obj
 0001:00285890       ?G_CanBeEnemy@@YAHPAUgentity_s@@0@Z 20286890 f   w_saber.obj
 0001:002861c0       ?G_DebugBoxLines@@YAXQAM0H@Z 202871c0 f   w_saber.obj
 0001:0028b900       ?G_KnockawayForParry@@YAHH@Z 2028c900 f   w_saber.obj
 0001:0028c870       ?G_SPSaberDamageTraceLerped@@YAXPAUgentity_s@@HHQAM1H@Z 2028d870 f   w_saber.obj
 0001:0028f9d0       ?G_SaberLockAnim@@YAHHHHHH@Z 202909d0 f   w_saber.obj
 0001:0028fdf0       ?HasSetSaberOnly@@YAHXZ    20290df0 f   w_saber.obj
 0001:0028fea0       ?MakeDeadSaber@@YAXPAUgentity_s@@@Z 20290ea0 f   w_saber.obj
 0001:00290680       ?RandFloat@@YAMMM@Z        20291680 f   w_saber.obj
 0001:00290850       ?SaberBounceSound@@YAXPAUgentity_s@@0PAUtrace_t@@@Z 20291850 f   w_saber.obj
 0001:00290900       ?SaberGotHit@@YAXPAUgentity_s@@0PAUtrace_t@@@Z 20291900 f   w_saber.obj
 0001:00290930       ?SaberUpdateSelf@@YAXPAUgentity_s@@@Z 20291930 f   w_saber.obj
 0001:00291f70       ?UpdateClientRenderBolts@@YAXPAUgentity_s@@QAM1@Z 20292f70 f   w_saber.obj
 0001:002929f0       ?UpdateClientRenderinfo@@YAXPAUgentity_s@@QAM1@Z 202939f0 f   w_saber.obj
 0001:00293b50       ?VectorCompare2@@YAHQBM0@Z 20294b50 f i w_saber.obj
 0001:00293ee0       ?WPDEBUG_SaberColor@@YAHH@Z 20294ee0 f   w_saber.obj
 0001:00293f80       ?WP_ActivateSaber@@YAXPAUgentity_s@@@Z 20294f80 f   w_saber.obj
 0001:00294130       ?WP_DeactivateSaber@@YAXPAUgentity_s@@H@Z 20295130 f   w_saber.obj
 0001:00295040       ?WP_MissileBlockForBlock@@YAHH@Z 20296040 f   w_saber.obj
 0001:002950e0       ?WP_SaberAddG2Model@@YAXPAUgentity_s@@PBDH@Z 202960e0 f   w_saber.obj
 0001:00295190       ?WP_SaberApplyDamage@@YAXPAUgentity_s@@@Z 20296190 f   w_saber.obj
 0001:002952e0       ?WP_SaberBladeLength@@YAMPAUsaberInfo_t@@@Z 202962e0 f   w_saber.obj
 0001:00295370       ?WP_SaberBlock@@YAXPAUgentity_s@@QAMH@Z 20296370 f   w_saber.obj
 0001:002957d0       ?WP_SaberBlockForceCost@@YAHPAUgentity_s@@@Z 202967d0 f   w_saber.obj
 0001:00295870       ?WP_SaberBlockNonRandom@@YAXPAUgentity_s@@QAMH@Z 20296870 f   w_saber.obj
 0001:00295cc0       ?WP_SaberBounceSound@@YAXPAUgentity_s@@HH@Z 20296cc0 f   w_saber.obj
 0001:00296010       ?WP_SaberCanBlock@@YAHPAUgentity_s@@QAMHHHH@Z 20297010 f   w_saber.obj
 0001:002964c0       ?WP_SaberClearDamage@@YAXXZ 202974c0 f   w_saber.obj
 0001:002965a0       ?WP_SaberDamageAdd@@YAXHQAM0HHH@Z 202975a0 f   w_saber.obj
 0001:00296810       ?WP_SaberDoClash@@YAXPAUgentity_s@@HH@Z 20297810 f   w_saber.obj
 0001:00296970       ?WP_SaberDoHit@@YAXPAUgentity_s@@HH@Z 20297970 f   w_saber.obj
 0001:00296f00       ?WP_SaberInitBladeData@@YAXPAUgentity_s@@@Z 20297f00 f   w_saber.obj
 0001:002971f0       ?WP_SaberLength@@YAMPAUgentity_s@@@Z 202981f0 f   w_saber.obj
 0001:002972a0       ?WP_SaberPositionUpdate@@YAXPAUgentity_s@@PAUusercmd_s@@@Z 202982a0 f   w_saber.obj
 0001:0029d320       ?WP_SaberRadiusDamage@@YAXPAUgentity_s@@QAMMHM@Z 2029e320 f   w_saber.obj
 0001:0029d880       ?WP_SaberRemoveG2Model@@YAXPAUgentity_s@@@Z 2029e880 f   w_saber.obj
 0001:0029d8c0       ?WP_SaberStartMissileBlockCheck@@YAXPAUgentity_s@@PAUusercmd_s@@@Z 2029e8c0 f   w_saber.obj
 0001:002a09f0       ?WP_SabersCheckLock@@YAHPAUgentity_s@@0@Z 202a19f0 f   w_saber.obj
 0001:002a2300       ?WP_SabersIntersect@@YAHPAUgentity_s@@HH0H@Z 202a3300 f   w_saber.obj
 0001:002a3f10       ?saberBackToOwner@@YAXPAUgentity_s@@@Z 202a4f10 f   w_saber.obj
 0001:002a4980       ?saberCheckKnockdown_BrokenParry@@YAHPAUgentity_s@@00@Z 202a5980 f   w_saber.obj
 0001:002a4f20       ?saberCheckKnockdown_DuelLoss@@YAHPAUgentity_s@@00@Z 202a5f20 f   w_saber.obj
 0001:002a5600       ?saberCheckKnockdown_Smashed@@YAHPAUgentity_s@@00H@Z 202a6600 f   w_saber.obj
 0001:002a5770       ?saberCheckKnockdown_Thrown@@YAHPAUgentity_s@@00@Z 202a6770 f   w_saber.obj
 0001:002a59e0       ?saberFirstThrown@@YAXPAUgentity_s@@@Z 202a69e0 f   w_saber.obj
 0001:002a6480       ?saberKnockDown@@YAXPAUgentity_s@@00@Z 202a7480 f   w_saber.obj
 0001:002a69f0       ?saberKnockOutOfHand@@YAHPAUgentity_s@@0QAM@Z 202a79f0 f   w_saber.obj
 0001:002a7330       ?saberReactivate@@YAXPAUgentity_s@@0@Z 202a8330 f   w_saber.obj
 0001:002a7450       ?thrownSaberTouch@@YAXPAUgentity_s@@0PAUtrace_t@@@Z 202a8450 f   w_saber.obj
 0001:002a78b0       ?G_CreateWalkerNPC@@YAXPAPAUVehicle_s@@PBD@Z 202a88b0 f   WalkerNPC.obj
 0001:002a7920       ?G_SetWalkerVehicleFunctions@@YAXPAUvehicleInfo_t@@@Z 202a8920 f   WalkerNPC.obj
 0001:002a83d0       ?WalkerYawAdjust@@YAXPAUVehicle_s@@PAUplayerState_s@@1@Z 202a93d0 f   WalkerNPC.obj
 0001:002a85e0       ?B_Alloc@@YAPAXH@Z         202a95e0 f   ai_util.obj
 0001:002a8610       ?B_CleanupAlloc@@YAXXZ     202a9610 f   ai_util.obj
 0001:002a8630       ?B_Free@@YAXPAX@Z          202a9630 f   ai_util.obj
 0001:002a8650       ?B_InitAlloc@@YAXXZ        202a9650 f   ai_util.obj
 0001:002a8680       ?B_TempAlloc@@YAPAXH@Z     202a9680 f   ai_util.obj
 0001:002a86b0       ?B_TempFree@@YAXH@Z        202a96b0 f   ai_util.obj
 0001:002a86e0       ?BotChatBack@@YAHPBDPAUgentity_s@@1@Z 202a96e0 f   ai_util.obj
 0001:002a90e0       ?BotDoChat@@YAHPAUbot_state_s@@PADH@Z 202aa0e0 f   ai_util.obj
 0001:002a97a0       ?BotDoCmd@@YAXPAUbot_state_s@@PAUgentity_s@@PAD@Z 202aa7a0 f   ai_util.obj
 0001:002aa4e0       ?BotDoSpawn@@YAPAUgentity_s@@PAUbot_state_s@@PAD@Z 202ab4e0 f   ai_util.obj
 0001:002aa5e0       ?BotUtilizePersonality@@YAXPAUbot_state_s@@@Z 202ab5e0 f   ai_util.obj
 0001:002aafe0       ?Cmd_BotCallVote@@YAXPAUbot_state_s@@PAD@Z 202abfe0 f   ai_util.obj
 0001:002ab060       ?Cmd_BotThrow@@YAXPAUbot_state_s@@PAD@Z 202ac060 f   ai_util.obj
 0001:002ab0a0       ?Cmd_BotVote@@YAXPAUbot_state_s@@H@Z 202ac0a0 f   ai_util.obj
 0001:002ab1b0       ?Cmd_Surrender_f@@YAXPAUgentity_s@@H@Z 202ac1b0 f   ai_util.obj
 0001:002ab350       ?Cmd_talkingBot_f@@YAXXZ   202ac350 f   ai_util.obj
 0001:002ab5e0       ?GetPairedValue@@YAHPAD00@Z 202ac5e0 f   ai_util.obj
 0001:002ab930       ?GetValueGroup@@YAHPAD00@Z 202ac930 f   ai_util.obj
 0001:002abb40       ?ParseEmotionalAttachments@@YAXPAUbot_state_s@@PAD@Z 202acb40 f   ai_util.obj
 0001:002abe60       ?ReadChatGroups@@YAHPAUbot_state_s@@PAD@Z 202ace60 f   ai_util.obj
 0001:002abf80       ?botsVoteNotification@@YAXPAD@Z 202acf80 f   ai_util.obj
 0001:002ac07f       _StackWalk@36              202ad07f f   dbghelp:dbghelp.dll
 0001:002ac085       _SymCleanup@4              202ad085 f   dbghelp:dbghelp.dll
 0001:002ac08b       _SymEnumerateModules@12    202ad08b f   dbghelp:dbghelp.dll
 0001:002ac091       _SymFunctionTableAccess@8  202ad091 f   dbghelp:dbghelp.dll
 0001:002ac097       _SymGetModuleBase@8        202ad097 f   dbghelp:dbghelp.dll
 0001:002ac09d       _SymGetLineFromAddr@16     202ad09d f   dbghelp:dbghelp.dll
 0001:002ac0a3       _SymInitialize@12          202ad0a3 f   dbghelp:dbghelp.dll
 0001:002ac0a9       _SymGetSymFromAddr@16      202ad0a9 f   dbghelp:dbghelp.dll
 0001:002ac0af       _GetEnvironmentVariableA@12 202ad0af f   kernel32:KERNEL32.dll
 0001:002ac0b5       _CloseHandle@4             202ad0b5 f   kernel32:KERNEL32.dll
 0001:002ac0bb       _SetUnhandledExceptionFilter@4 202ad0bb f   kernel32:KERNEL32.dll
 0001:002ac0c1       _GetCurrentProcess@0       202ad0c1 f   kernel32:KERNEL32.dll
 0001:002ac0c7       _GetCurrentThread@0        202ad0c7 f   kernel32:KERNEL32.dll
 0001:002ac0cd       _VirtualQuery@12           202ad0cd f   kernel32:KERNEL32.dll
 0001:002ac0d3       _GetModuleFileNameA@12     202ad0d3 f   kernel32:KERNEL32.dll
 0001:002ac0d9       _IsBadReadPtr@8            202ad0d9 f   kernel32:KERNEL32.dll
 0001:002ac0df       _CreateToolhelp32Snapshot@8 202ad0df f   kernel32:KERNEL32.dll
 0001:002ac0e5       _Module32First@8           202ad0e5 f   kernel32:KERNEL32.dll
 0001:002ac0eb       _Module32Next@8            202ad0eb f   kernel32:KERNEL32.dll
 0001:002ac0f1       _K32GetModuleBaseNameA@16  202ad0f1 f   kernel32:KERNEL32.dll
 0001:002ac0f7       _FreeLibrary@4             202ad0f7 f   kernel32:KERNEL32.dll
 0001:002ac0fd       _GetProcAddress@8          202ad0fd f   kernel32:KERNEL32.dll
 0001:002ac103       _LoadLibraryA@4            202ad103 f   kernel32:KERNEL32.dll
 0001:002ac109       _GlobalAlloc@8             202ad109 f   kernel32:KERNEL32.dll
 0001:002ac10f       _GlobalFree@4              202ad10f f   kernel32:KERNEL32.dll
 0001:002ac115       _wsprintfA                 202ad115 f   user32:USER32.dll
 0001:002ac120       ??0_Init_locks@std@@QAE@XZ 202ad120 f   libcpmtd:xlock.obj
 0001:002ac1a0       ??0_Lockit@std@@QAE@H@Z    202ad1a0 f   libcpmtd:xlock.obj
 0001:002ac200       ??0_Lockit@std@@QAE@XZ     202ad200 f   libcpmtd:xlock.obj
 0001:002ac250       ??1_Init_locks@std@@QAE@XZ 202ad250 f   libcpmtd:xlock.obj
 0001:002ac2d0       ??1_Lockit@std@@QAE@XZ     202ad2d0 f   libcpmtd:xlock.obj
 0001:002ac320       ?_Init_locks_ctor@_Init_locks@std@@CAXPAV12@@Z 202ad320 f   libcpmtd:xlock.obj
 0001:002ac390       ?_Init_locks_dtor@_Init_locks@std@@CAXPAV12@@Z 202ad390 f   libcpmtd:xlock.obj
 0001:002ac400       ?_Lockit_ctor@_Lockit@std@@CAXPAV12@@Z 202ad400 f   libcpmtd:xlock.obj
 0001:002ac430       ?_Lockit_ctor@_Lockit@std@@CAXPAV12@H@Z 202ad430 f   libcpmtd:xlock.obj
 0001:002ac470       ?_Lockit_ctor@_Lockit@std@@SAXH@Z 202ad470 f   libcpmtd:xlock.obj
 0001:002ac4b0       ?_Lockit_dtor@_Lockit@std@@CAXPAV12@@Z 202ad4b0 f   libcpmtd:xlock.obj
 0001:002ac4d0       ?_Lockit_dtor@_Lockit@std@@SAXH@Z 202ad4d0 f   libcpmtd:xlock.obj
 0001:002ac510       __Lock_at_thread_exit_mutex 202ad510 f   libcpmtd:xlock.obj
 0001:002ac540       __Unlock_at_thread_exit_mutex 202ad540 f   libcpmtd:xlock.obj
 0001:002ac570       ??0bad_alloc@std@@QAE@XZ   202ad570 f i libcpmtd:xthrow.obj
 0001:002ac5a0       ??0bad_function_call@std@@QAE@ABV01@@Z 202ad5a0 f i libcpmtd:xthrow.obj
 0001:002ac5d0       ??0bad_function_call@std@@QAE@XZ 202ad5d0 f i libcpmtd:xthrow.obj
 0001:002ac600       ??0exception@std@@QAE@QBD@Z 202ad600 f i libcpmtd:xthrow.obj
 0001:002ac660       ??0exception@std@@QAE@XZ   202ad660 f i libcpmtd:xthrow.obj
 0001:002ac690       ??0invalid_argument@std@@QAE@ABV01@@Z 202ad690 f i libcpmtd:xthrow.obj
 0001:002ac6c0       ??0invalid_argument@std@@QAE@PBD@Z 202ad6c0 f i libcpmtd:xthrow.obj
 0001:002ac6f0       ??0length_error@std@@QAE@ABV01@@Z 202ad6f0 f i libcpmtd:xthrow.obj
 0001:002ac720       ??0length_error@std@@QAE@PBD@Z 202ad720 f i libcpmtd:xthrow.obj
 0001:002ac750       ??0logic_error@std@@QAE@ABV01@@Z 202ad750 f i libcpmtd:xthrow.obj
 0001:002ac780       ??0logic_error@std@@QAE@PBD@Z 202ad780 f i libcpmtd:xthrow.obj
 0001:002ac7b0       ??0out_of_range@std@@QAE@ABV01@@Z 202ad7b0 f i libcpmtd:xthrow.obj
 0001:002ac7e0       ??0out_of_range@std@@QAE@PBD@Z 202ad7e0 f i libcpmtd:xthrow.obj
 0001:002ac810       ??0overflow_error@std@@QAE@ABV01@@Z 202ad810 f i libcpmtd:xthrow.obj
 0001:002ac840       ??0overflow_error@std@@QAE@PBD@Z 202ad840 f i libcpmtd:xthrow.obj
 0001:002ac870       ??0regex_error@std@@QAE@ABV01@@Z 202ad870 f i libcpmtd:xthrow.obj
 0001:002ac8b0       ??0regex_error@std@@QAE@W4error_type@regex_constants@1@@Z 202ad8b0 f i libcpmtd:xthrow.obj
 0001:002ac900       ??0runtime_error@std@@QAE@ABV01@@Z 202ad900 f i libcpmtd:xthrow.obj
 0001:002ac930       ??0runtime_error@std@@QAE@PBD@Z 202ad930 f i libcpmtd:xthrow.obj
 0001:002ac960       ??1bad_function_call@std@@UAE@XZ 202ad960 f i libcpmtd:xthrow.obj
 0001:002ac980       ??1invalid_argument@std@@UAE@XZ 202ad980 f i libcpmtd:xthrow.obj
 0001:002ac9a0       ??1length_error@std@@UAE@XZ 202ad9a0 f i libcpmtd:xthrow.obj
 0001:002ac9c0       ??1logic_error@std@@UAE@XZ 202ad9c0 f i libcpmtd:xthrow.obj
 0001:002ac9e0       ??1out_of_range@std@@UAE@XZ 202ad9e0 f i libcpmtd:xthrow.obj
 0001:002aca00       ??1overflow_error@std@@UAE@XZ 202ada00 f i libcpmtd:xthrow.obj
 0001:002aca20       ??1regex_error@std@@UAE@XZ 202ada20 f i libcpmtd:xthrow.obj
 0001:002aca40       ??1runtime_error@std@@UAE@XZ 202ada40 f i libcpmtd:xthrow.obj
 0001:002aca60       ??_Ebad_function_call@std@@UAEPAXI@Z 202ada60 f i libcpmtd:xthrow.obj
 0001:002aca60       ??_Gbad_function_call@std@@UAEPAXI@Z 202ada60 f i libcpmtd:xthrow.obj
 0001:002acaa0       ??_Einvalid_argument@std@@UAEPAXI@Z 202adaa0 f i libcpmtd:xthrow.obj
 0001:002acaa0       ??_Ginvalid_argument@std@@UAEPAXI@Z 202adaa0 f i libcpmtd:xthrow.obj
 0001:002acae0       ??_Elength_error@std@@UAEPAXI@Z 202adae0 f i libcpmtd:xthrow.obj
 0001:002acae0       ??_Glength_error@std@@UAEPAXI@Z 202adae0 f i libcpmtd:xthrow.obj
 0001:002acb20       ??_Elogic_error@std@@UAEPAXI@Z 202adb20 f i libcpmtd:xthrow.obj
 0001:002acb20       ??_Glogic_error@std@@UAEPAXI@Z 202adb20 f i libcpmtd:xthrow.obj
 0001:002acb60       ??_Eout_of_range@std@@UAEPAXI@Z 202adb60 f i libcpmtd:xthrow.obj
 0001:002acb60       ??_Gout_of_range@std@@UAEPAXI@Z 202adb60 f i libcpmtd:xthrow.obj
 0001:002acba0       ??_Eoverflow_error@std@@UAEPAXI@Z 202adba0 f i libcpmtd:xthrow.obj
 0001:002acba0       ??_Goverflow_error@std@@UAEPAXI@Z 202adba0 f i libcpmtd:xthrow.obj
 0001:002acbe0       ??_Eregex_error@std@@UAEPAXI@Z 202adbe0 f i libcpmtd:xthrow.obj
 0001:002acbe0       ??_Gregex_error@std@@UAEPAXI@Z 202adbe0 f i libcpmtd:xthrow.obj
 0001:002acc20       ??_Eruntime_error@std@@UAEPAXI@Z 202adc20 f i libcpmtd:xthrow.obj
 0001:002acc20       ??_Gruntime_error@std@@UAEPAXI@Z 202adc20 f i libcpmtd:xthrow.obj
 0001:002acc60       ?_Stringify@regex_error@std@@CAPBDW4error_type@regex_constants@2@@Z 202adc60 f i libcpmtd:xthrow.obj
 0001:002acd60       ?_Xbad_alloc@std@@YAXXZ    202add60 f   libcpmtd:xthrow.obj
 0001:002acd90       ?_Xbad_function_call@std@@YAXXZ 202add90 f   libcpmtd:xthrow.obj
 0001:002acdc0       ?_Xinvalid_argument@std@@YAXPBD@Z 202addc0 f   libcpmtd:xthrow.obj
 0001:002acdf0       ?_Xlength_error@std@@YAXPBD@Z 202addf0 f   libcpmtd:xthrow.obj
 0001:002ace20       ?_Xout_of_range@std@@YAXPBD@Z 202ade20 f   libcpmtd:xthrow.obj
 0001:002ace50       ?_Xoverflow_error@std@@YAXPBD@Z 202ade50 f   libcpmtd:xthrow.obj
 0001:002ace80       ?_Xregex_error@std@@YAXW4error_type@regex_constants@1@@Z 202ade80 f   libcpmtd:xthrow.obj
 0001:002aceb0       ?_Xruntime_error@std@@YAXPBD@Z 202adeb0 f   libcpmtd:xthrow.obj
 0001:002acee0       ?__empty_global_delete@@YAXPAXIW4align_val_t@std@@@Z 202adee0 f i libcpmtd:xthrow.obj
 0001:002acef0       ?__empty_global_delete@@YAXPAXW4align_val_t@std@@@Z 202adef0 f i libcpmtd:xthrow.obj
 0001:002acf00       ?what@bad_function_call@std@@UBEPBDXZ 202adf00 f i libcpmtd:xthrow.obj
 0001:002acf20       ?_Random_device@std@@YAIXZ 202adf20 f   libcpmtd:xrngdev.obj
 0001:002acf50       __Mtxdst                   202adf50 f   libcpmtd:xmtx.obj
 0001:002acf70       __Mtxinit                  202adf70 f   libcpmtd:xmtx.obj
 0001:002acf90       __Mtxlock                  202adf90 f   libcpmtd:xmtx.obj
 0001:002acfb0       __Mtxunlock                202adfb0 f   libcpmtd:xmtx.obj
 0001:002acfd0       @__security_check_cookie@4 202adfd0 f   LIBCMTD:secchk.obj
 0001:002acff0       __ftol2_sse_excpt          202adff0 f   LIBCMTD:ftol2.obj
 0001:002ad000       __ftol2_sse                202ae000 f   LIBCMTD:ftol2.obj
 0001:002ad010       __ftoi2                    202ae010 f   LIBCMTD:ftol2.obj
 0001:002ad0b0       __ftoui2                   202ae0b0 f   LIBCMTD:ftol2.obj
 0001:002ad180       __ftol2                    202ae180 f   LIBCMTD:ftol2.obj
 0001:002ad260       __ftoul2                   202ae260 f   LIBCMTD:ftol2.obj
 0001:002ad350       __ftoul2_legacy            202ae350 f   LIBCMTD:ftol2.obj
 0001:002ad370       ___raise_securityfailure   202ae370 f   LIBCMTD:gs_report.obj
 0001:002ad3b0       ___report_gsfailure        202ae3b0 f   LIBCMTD:gs_report.obj
 0001:002ad500       ___report_rangecheckfailure 202ae500 f   LIBCMTD:gs_report.obj
 0001:002ad510       ___report_securityfailure  202ae510 f   LIBCMTD:gs_report.obj
 0001:002ad620       ___report_securityfailureEx 202ae620 f   LIBCMTD:gs_report.obj
 0001:002ad790       __alloca_probe             202ae790 f   LIBCMTD:chkstk.obj
 0001:002ad790       __chkstk                   202ae790 f   LIBCMTD:chkstk.obj
 0001:002ad7d0       ??3@YAXPAXI@Z              202ae7d0 f   LIBCMTD:delete_scalar_size.obj
 0001:002ad7f0       __ftoui3                   202ae7f0 f   LIBCMTD:ftol3.obj
 0001:002ad850       __ftoul3                   202ae850 f   LIBCMTD:ftol3.obj
 0001:002ad8e0       __ftoul3_legacy            202ae8e0 f   LIBCMTD:ftol3.obj
 0001:002ad910       __ftol3                    202ae910 f   LIBCMTD:ftol3.obj
 0001:002ad9a0       __dtoui3                   202ae9a0 f   LIBCMTD:ftol3.obj
 0001:002ada40       __dtoul3                   202aea40 f   LIBCMTD:ftol3.obj
 0001:002adb10       __dtoul3_legacy            202aeb10 f   LIBCMTD:ftol3.obj
 0001:002adb50       __dtol3                    202aeb50 f   LIBCMTD:ftol3.obj
 0001:002adc30       __ultod3                   202aec30 f   LIBCMTD:ftol3.obj
 0001:002adc90       __ltod3                    202aec90 f   LIBCMTD:ftol3.obj
 0001:002adcf0       __ultof3                   202aecf0 f   LIBCMTD:ftol3.obj
 0001:002add90       __ltof3                    202aed90 f   LIBCMTD:ftol3.obj
 0001:002addf0       ??2@YAPAXI@Z               202aedf0 f   LIBCMTD:new_scalar.obj
 0001:002ade50       __aullshr                  202aee50 f   LIBCMTD:ullshr.obj
 0001:002ade80       ??1type_info@@UAE@XZ       202aee80 f   LIBCMTD:std_type_info_static.obj
 0001:002adea0       ??_Etype_info@@UAEPAXI@Z   202aeea0 f i LIBCMTD:std_type_info_static.obj
 0001:002adea0       ??_Gtype_info@@UAEPAXI@Z   202aeea0 f i LIBCMTD:std_type_info_static.obj
 0001:002ae4e0       __CRT_INIT@12              202af4e0 f   LIBCMTD:dll_dllmain.obj
 0001:002ae500       __DllMainCRTStartup@12     202af500 f   LIBCMTD:dll_dllmain.obj
 0001:002ae530       ?configure_argv@__scrt_narrow_argv_policy@@SAHXZ 202af530 f i LIBCMTD:utility.obj
 0001:002ae600       ?initialize_environment@__scrt_narrow_environment_policy@@SAHXZ 202af600 f i LIBCMTD:utility.obj
 0001:002ae6a0       _NtCurrentTeb              202af6a0 f i LIBCMTD:utility.obj
 0001:002ae6b0       ___scrt_acquire_startup_lock 202af6b0 f   LIBCMTD:utility.obj
 0001:002ae710       ___scrt_dllmain_after_initialize_c 202af710 f   LIBCMTD:utility.obj
 0001:002ae750       ___scrt_dllmain_before_initialize_c 202af750 f   LIBCMTD:utility.obj
 0001:002ae780       ___scrt_dllmain_crt_thread_attach 202af780 f   LIBCMTD:utility.obj
 0001:002ae7c0       ___scrt_dllmain_crt_thread_detach 202af7c0 f   LIBCMTD:utility.obj
 0001:002ae7e0       ___scrt_dllmain_exception_filter 202af7e0 f   LIBCMTD:utility.obj
 0001:002ae840       ___scrt_dllmain_uninitialize_c 202af840 f   LIBCMTD:utility.obj
 0001:002ae880       ___scrt_dllmain_uninitialize_critical 202af880 f   LIBCMTD:utility.obj
 0001:002ae8a0       ___scrt_initialize_crt     202af8a0 f   LIBCMTD:utility.obj
 0001:002ae900       ___scrt_initialize_onexit_tables 202af900 f   LIBCMTD:utility.obj
 0001:002aea10       ___scrt_is_nonwritable_in_current_image 202afa10 f   LIBCMTD:utility.obj
 0001:002aeb90       ___scrt_release_startup_lock 202afb90 f   LIBCMTD:utility.obj
 0001:002aebc0       ___scrt_uninitialize_crt   202afbc0 f   LIBCMTD:utility.obj
 0001:002aec10       __onexit                   202afc10 f   LIBCMTD:utility.obj
 0001:002aec90       _at_quick_exit             202afc90 f   LIBCMTD:utility.obj
 0001:002aece0       _atexit                    202afce0 f   LIBCMTD:utility.obj
 0001:002aed20       ___isa_available_init      202afd20 f   LIBCMTD:cpu_disp.obj
 0001:002af120       ??3@YAXPAX@Z               202b0120 f   LIBCMTD:delete_scalar.obj
 0001:002af140       ?__scrt_throw_std_bad_alloc@@YAXXZ 202b0140 f   LIBCMTD:throw_bad_alloc.obj
 0001:002af170       ?__scrt_throw_std_bad_array_new_length@@YAXXZ 202b0170 f   LIBCMTD:throw_bad_alloc.obj
 0001:002af230       ___security_init_cookie    202b0230 f   LIBCMTD:gs_support.obj
 0001:002af2d0       _DllMain@12                202b02d0 f   LIBCMTD:dll_dllmain_stub.obj
 0001:002af2e0       ?__scrt_initialize_type_info@@YAXXZ 202b02e0 f   LIBCMTD:tncleanup.obj
 0001:002af300       ?__scrt_uninitialize_type_info@@YAXXZ 202b0300 f   LIBCMTD:tncleanup.obj
 0001:002af320       ___scrt_initialize_default_local_stdio_options 202b0320 f   LIBCMTD:default_local_stdio_options.obj
 0001:002af370       ___scrt_get_dyn_tls_init_callback 202b0370 f   LIBCMTD:dyn_tls_init.obj
 0001:002af380       ___scrt_fastfail           202b0380 f   LIBCMTD:utility_desktop.obj
 0001:002af510       ___scrt_get_show_window_mode 202b0510 f   LIBCMTD:utility_desktop.obj
 0001:002af560       ___scrt_initialize_mta     202b0560 f   LIBCMTD:utility_desktop.obj
 0001:002af570       ___scrt_initialize_winrt   202b0570 f   LIBCMTD:utility_desktop.obj
 0001:002af580       ___scrt_is_managed_app     202b0580 f   LIBCMTD:utility_desktop.obj
 0001:002af630       ___scrt_set_unhandled_exception_filter 202b0630 f   LIBCMTD:utility_desktop.obj
 0001:002af650       ___scrt_exe_initialize_mta 202b0650 f   LIBCMTD:utility_desktop.obj
 0001:002af650       ___scrt_stub_for_initialize_mta 202b0650 f   LIBCMTD:utility_desktop.obj
 0001:002af660       ___scrt_unhandled_exception_filter@4 202b0660 f   LIBCMTD:utility_desktop.obj
 0001:002af700       __crt_debugger_hook        202b0700 f   LIBCMTD:utility_desktop.obj
 0001:002af720       __RTC_Initialize           202b0720 f   LIBCMTD:initsect.obj
 0001:002af760       __RTC_Terminate            202b0760 f   LIBCMTD:initsect.obj
 0001:002af7a0       @_guard_check_icall_nop@4  202b07a0 f i LIBCMTD:guard_support.obj
 0001:002af7b0       _ReadNoFence               202b07b0 f i LIBCMTD:guard_support.obj
 0001:002af7d0       _ReadPointerNoFence        202b07d0 f i LIBCMTD:guard_support.obj
 0001:002af7f0       __InlineInterlockedExchangePointer 202b07f0 f i LIBCMTD:guard_support.obj
 0001:002af800       ___castguard_check_failure_debugbreak 202b0800 f i LIBCMTD:guard_support.obj
 0001:002af820       ___castguard_check_failure_fastfail 202b0820 f i LIBCMTD:guard_support.obj
 0001:002af850       ___castguard_check_failure_nop 202b0850 f i LIBCMTD:guard_support.obj
 0001:002af860       ___castguard_check_failure_os_handled 202b0860 f i LIBCMTD:guard_support.obj
 0001:002af8d0       ___castguard_check_failure_user_handled 202b08d0 f i LIBCMTD:guard_support.obj
 0001:002af9a0       ___castguard_set_user_handler 202b09a0 f i LIBCMTD:guard_support.obj
 0001:002af9d0       ___castguard_slow_path_check_debugbreak 202b09d0 f i LIBCMTD:guard_support.obj
 0001:002afa10       ___castguard_slow_path_check_fastfail 202b0a10 f i LIBCMTD:guard_support.obj
 0001:002afa60       ___castguard_slow_path_check_nop 202b0a60 f i LIBCMTD:guard_support.obj
 0001:002afa70       ___castguard_slow_path_check_os_handled 202b0a70 f i LIBCMTD:guard_support.obj
 0001:002afac0       ___castguard_slow_path_check_user_handled 202b0ac0 f i LIBCMTD:guard_support.obj
 0001:002afb60       __guard_icall_checks_enforced 202b0b60 f i LIBCMTD:guard_support.obj
 0001:002afba0       __get_startup_argv_mode    202b0ba0 f   LIBCMTD:argv_mode.obj
 0001:002afbb0       ___scrt_is_ucrt_dll_in_use 202b0bb0 f   LIBCMTD:ucrt_detection.obj
 0001:002afbdd       _inet_addr@4               202b0bdd f   ws2_32:WS2_32.dll
 0001:002afbe3       _gethostbyaddr@12          202b0be3 f   ws2_32:WS2_32.dll
 0001:002afbe9       _WSAStartup@8              202b0be9 f   ws2_32:WS2_32.dll
 0001:002afbf0       _memcpy                    202b0bf0 f   libvcruntimed:memcpy.obj
 0001:002b02d0       _memset                    202b12d0 f   libvcruntimed:memset.obj
 0001:002b0480       _strchr                    202b1480 f   libvcruntimed:strchr.obj
 0001:002b04ee       ___from_strstr_to_strchr   202b14ee     libvcruntimed:strchr.obj
 0001:002b0600       _strstr                    202b1600 f   libvcruntimed:strstr.obj
 0001:002b0910       ??$?0AAViterator@TryBlockMap@__FrameHandler3@@AAV012@$0A@@?$pair@Viterator@TryBlockMap@__FrameHandler3@@V123@@std@@QAE@AAViterator@TryBlockMap@__FrameHandler3@@0@Z 202b1910 f i libvcruntimed:trnsctrl.obj
 0001:002b0950       ??0iterator@TryBlockMap@__FrameHandler3@@QAE@AAV12@I@Z 202b1950 f i libvcruntimed:trnsctrl.obj
 0001:002b0980       ?GetRangeOfTrysToCheck@__FrameHandler3@@SA?AU?$pair@Viterator@TryBlockMap@__FrameHandler3@@V123@@std@@AAVTryBlockMap@1@HPAXPBU_s_FuncInfo@@H@Z 202b1980 f   libvcruntimed:trnsctrl.obj
 0001:002b0aa0       ?_CallCatchBlock2@@YAPAXPAUEHRegistrationNode@@PBU_s_FuncInfo@@PAXHK@Z 202b1aa0 f   libvcruntimed:trnsctrl.obj
 0001:002b0b30       ?_CallSETranslator@@YAHPAUEHExceptionRecord@@PAUEHRegistrationNode@@PAX2PBU_s_FuncInfo@@H1@Z 202b1b30 f   libvcruntimed:trnsctrl.obj
 0001:002b0c80       ?_JumpToContinuation@@YGXPAXPAUEHRegistrationNode@@@Z 202b1c80 f   libvcruntimed:trnsctrl.obj
 0001:002b0cc0       ?_UnwindNestedFrames@@YGXPAUEHRegistrationNode@@PAUEHExceptionRecord@@@Z 202b1cc0 f   libvcruntimed:trnsctrl.obj
 0001:002b0d30       __CatchGuardHandler        202b1d30 f   libvcruntimed:trnsctrl.obj
 0001:002b0d90       __CreateFrameInfo          202b1d90 f   libvcruntimed:trnsctrl.obj
 0001:002b0dd0       __FindAndUnlinkFrame       202b1dd0 f   libvcruntimed:trnsctrl.obj
 0001:002b0e60       __TranslatorGuardHandler   202b1e60 f   libvcruntimed:trnsctrl.obj
 0001:002b0f40       ___CxxFrameHandler         202b1f40 f   libvcruntimed:trnsctrl.obj
 0001:002b0f90       ___CxxFrameHandler2        202b1f90 f   libvcruntimed:trnsctrl.obj
 0001:002b0fe0       ___CxxFrameHandler3        202b1fe0 f   libvcruntimed:trnsctrl.obj
 0001:002b1030       ___CxxLongjmpUnwind@4      202b2030 f   libvcruntimed:trnsctrl.obj
 0001:002b1080       _strrchr                   202b2080 f   libvcruntimed:strrchr.obj
 0001:002b1210       ??$?RD@__crt_public_free_policy@@QBEXQBD@Z 202b2210 f i libvcruntimed:std_exception.obj
 0001:002b1230       ??0?$__crt_unique_heap_ptr@DU__crt_public_free_policy@@@@QAE@QAD@Z 202b2230 f i libvcruntimed:std_exception.obj
 0001:002b1250       ??1?$__crt_unique_heap_ptr@DU__crt_public_free_policy@@@@QAE@XZ 202b2250 f i libvcruntimed:std_exception.obj
 0001:002b1270       ??B?$__crt_unique_heap_ptr@DU__crt_public_free_policy@@@@QBE_NXZ 202b2270 f i libvcruntimed:std_exception.obj
 0001:002b1290       ?detach@?$__crt_unique_heap_ptr@DU__crt_public_free_policy@@@@QAEPADXZ 202b2290 f i libvcruntimed:std_exception.obj
 0001:002b12c0       ?get@?$__crt_unique_heap_ptr@DU__crt_public_free_policy@@@@QBEPADXZ 202b22c0 f i libvcruntimed:std_exception.obj
 0001:002b12e0       ?is_valid@?$__crt_unique_heap_ptr@DU__crt_public_free_policy@@@@QBE_NXZ 202b22e0 f i libvcruntimed:std_exception.obj
 0001:002b1320       ?release@?$__crt_unique_heap_ptr@DU__crt_public_free_policy@@@@QAEXXZ 202b2320 f i libvcruntimed:std_exception.obj
 0001:002b1350       ___std_exception_copy      202b2350 f   libvcruntimed:std_exception.obj
 0001:002b1480       ___std_exception_destroy   202b2480 f   libvcruntimed:std_exception.obj
 0001:002b14c0       __CxxThrowException@8      202b24c0 f   libvcruntimed:throw.obj
 0001:002b1590       _memmove                   202b2590 f   libvcruntimed:memmove.obj
 0001:002b1cf0       __except_handler4          202b2cf0 f   libvcruntimed:chandler4.obj
 0001:002b1f50       ___vcrt_initialize         202b2f50 f   libvcruntimed:initialization.obj
 0001:002b1f90       ___vcrt_thread_attach      202b2f90 f   libvcruntimed:initialization.obj
 0001:002b1fb0       ___vcrt_thread_detach      202b2fb0 f   libvcruntimed:initialization.obj
 0001:002b1fc0       ___vcrt_uninitialize       202b2fc0 f   libvcruntimed:initialization.obj
 0001:002b1fe0       ___vcrt_uninitialize_critical 202b2fe0 f   libvcruntimed:initialization.obj
 0001:002b2040       ??$?RD@__crt_internal_free_policy@@QBEXQBD@Z 202b3040 f i libvcruntimed:std_type_info.obj
 0001:002b2070       ??$?RX@__crt_internal_free_policy@@QBEXQBX@Z 202b3070 f i libvcruntimed:std_type_info.obj
 0001:002b20a0       ??$__crt_interlocked_compare_exchange_pointer@$$CBDPAD$$T@@YAPBDPDSBDQAD$$T@Z 202b30a0 f i libvcruntimed:std_type_info.obj
 0001:002b20c0       ??$__crt_interlocked_read_pointer@$$CBD@@YAPBDPDSBD@Z 202b30c0 f i libvcruntimed:std_type_info.obj
 0001:002b20e0       ??0?$__crt_unique_heap_ptr@DU__crt_internal_free_policy@@@@QAE@QAD@Z 202b30e0 f i libvcruntimed:std_type_info.obj
 0001:002b2100       ??0?$__crt_unique_heap_ptr@XU__crt_internal_free_policy@@@@QAE@QAX@Z 202b3100 f i libvcruntimed:std_type_info.obj
 0001:002b2120       ??1?$__crt_unique_heap_ptr@DU__crt_internal_free_policy@@@@QAE@XZ 202b3120 f i libvcruntimed:std_type_info.obj
 0001:002b2140       ??1?$__crt_unique_heap_ptr@XU__crt_internal_free_policy@@@@QAE@XZ 202b3140 f i libvcruntimed:std_type_info.obj
 0001:002b2160       ??B?$__crt_unique_heap_ptr@DU__crt_internal_free_policy@@@@QBE_NXZ 202b3160 f i libvcruntimed:std_type_info.obj
 0001:002b2180       ??B?$__crt_unique_heap_ptr@XU__crt_internal_free_policy@@@@QBE_NXZ 202b3180 f i libvcruntimed:std_type_info.obj
 0001:002b2200       ?__crt_interlocked_read_32@@YAHPDH@Z 202b3200 f i libvcruntimed:std_type_info.obj
 0001:002b2220       ?detach@?$__crt_unique_heap_ptr@XU__crt_internal_free_policy@@@@QAEPAXXZ 202b3220 f i libvcruntimed:std_type_info.obj
 0001:002b2250       ?get@?$__crt_unique_heap_ptr@DU__crt_internal_free_policy@@@@QBEPADXZ 202b3250 f i libvcruntimed:std_type_info.obj
 0001:002b2270       ?get@?$__crt_unique_heap_ptr@XU__crt_internal_free_policy@@@@QBEPAXXZ 202b3270 f i libvcruntimed:std_type_info.obj
 0001:002b2290       ?is_valid@?$__crt_unique_heap_ptr@DU__crt_internal_free_policy@@@@QBE_NXZ 202b3290 f i libvcruntimed:std_type_info.obj
 0001:002b22d0       ?is_valid@?$__crt_unique_heap_ptr@XU__crt_internal_free_policy@@@@QBE_NXZ 202b32d0 f i libvcruntimed:std_type_info.obj
 0001:002b2310       ?release@?$__crt_unique_heap_ptr@DU__crt_internal_free_policy@@@@QAEXXZ 202b3310 f i libvcruntimed:std_type_info.obj
 0001:002b2340       ?release@?$__crt_unique_heap_ptr@XU__crt_internal_free_policy@@@@QAEXXZ 202b3340 f i libvcruntimed:std_type_info.obj
 0001:002b2370       ___std_type_info_compare   202b3370 f   libvcruntimed:std_type_info.obj
 0001:002b23a0       ___std_type_info_destroy_list 202b33a0 f   libvcruntimed:std_type_info.obj
 0001:002b23f0       ___std_type_info_hash      202b33f0 f   libvcruntimed:std_type_info.obj
 0001:002b2460       ___std_type_info_name      202b3460 f   libvcruntimed:std_type_info.obj
 0001:002b2690       ___DestructExceptionObject 202b3690 f   libvcruntimed:ehhelpers.obj
 0001:002b2800       ?_CallMemberFunction0@@YGXQAX0@Z 202b3800 f i libvcruntimed:ehhelpers.obj
 0001:002b28d0       ?raw_name@type_info@@QBEPBDXZ 202b38d0 f i libvcruntimed:ehhelpers.obj
 0001:002b28f0       __IsExceptionObjectToBeDestroyed 202b38f0 f   libvcruntimed:ehhelpers.obj
 0001:002b2940       __SetWinRTOutOfMemoryExceptionCallback 202b3940 f   libvcruntimed:ehhelpers.obj
 0001:002b2950       ___AdjustPointer           202b3950 f   libvcruntimed:ehhelpers.obj
 0001:002b29b0       ___FrameUnwindFilter       202b39b0 f   libvcruntimed:ehhelpers.obj
 0001:002b2a60       ___GetPlatformExceptionInfo 202b3a60 f   libvcruntimed:ehhelpers.obj
 0001:002b2b00       ___current_exception       202b3b00 f   libvcruntimed:ehhelpers.obj
 0001:002b2b10       ___current_exception_context 202b3b10 f   libvcruntimed:ehhelpers.obj
 0001:002b2b20       ___processing_throw        202b3b20 f   libvcruntimed:ehhelpers.obj
 0001:002b2b30       ___std_terminate           202b3b30 f   libvcruntimed:ehhelpers.obj
 0001:002b2b40       __is_exception_typeof      202b3b40 f   libvcruntimed:ehhelpers.obj
 0001:002b2c50       ??$?RU__vcrt_ptd@@@__crt_internal_free_policy@@QBEXQBU__vcrt_ptd@@@Z 202b3c50 f i libvcruntimed:per_thread_data.obj
 0001:002b2c80       ??0?$__crt_unique_heap_ptr@U__vcrt_ptd@@U__crt_internal_free_policy@@@@QAE@QAU__vcrt_ptd@@@Z 202b3c80 f i libvcruntimed:per_thread_data.obj
 0001:002b2cc0       ??1?$__crt_unique_heap_ptr@U__vcrt_ptd@@U__crt_internal_free_policy@@@@QAE@XZ 202b3cc0 f i libvcruntimed:per_thread_data.obj
 0001:002b2d00       ??B?$__crt_unique_heap_ptr@U__vcrt_ptd@@U__crt_internal_free_policy@@@@QBE_NXZ 202b3d00 f i libvcruntimed:per_thread_data.obj
 0001:002b2d20       ?detach@?$__crt_unique_heap_ptr@U__vcrt_ptd@@U__crt_internal_free_policy@@@@QAEPAU__vcrt_ptd@@XZ 202b3d20 f i libvcruntimed:per_thread_data.obj
 0001:002b2d50       ?get@?$__crt_unique_heap_ptr@U__vcrt_ptd@@U__crt_internal_free_policy@@@@QBEPAU__vcrt_ptd@@XZ 202b3d50 f i libvcruntimed:per_thread_data.obj
 0001:002b2d70       ?is_valid@?$__crt_unique_heap_ptr@U__vcrt_ptd@@U__crt_internal_free_policy@@@@QBE_NXZ 202b3d70 f i libvcruntimed:per_thread_data.obj
 0001:002b2db0       ?release@?$__crt_unique_heap_ptr@U__vcrt_ptd@@U__crt_internal_free_policy@@@@QAEXXZ 202b3db0 f i libvcruntimed:per_thread_data.obj
 0001:002b2e10       ___vcrt_freefls@4          202b3e10 f   libvcruntimed:per_thread_data.obj
 0001:002b2e40       ___vcrt_freeptd_for_this_thread 202b3e40 f   libvcruntimed:per_thread_data.obj
 0001:002b2e90       ___vcrt_getptd             202b3e90 f   libvcruntimed:per_thread_data.obj
 0001:002b2ec0       ___vcrt_getptd_noexit      202b3ec0 f   libvcruntimed:per_thread_data.obj
 0001:002b3070       ___vcrt_getptd_noinit      202b4070 f   libvcruntimed:per_thread_data.obj
 0001:002b30e0       ___vcrt_initialize_ptd     202b40e0 f   libvcruntimed:per_thread_data.obj
 0001:002b3140       ___vcrt_uninitialize_ptd   202b4140 f   libvcruntimed:per_thread_data.obj
 0001:002b3fa0       ??$TypeMatchHelper@V__FrameHandler3@@@@YAHPBU_s_HandlerType@@PBU_s_CatchableType@@PBU_s_ThrowInfo@@@Z 202b4fa0 f i libvcruntimed:frame.obj
 0001:002b40b0       ??$__InternalCxxFrameHandler@V__FrameHandler3@@@@YA?AW4_EXCEPTION_DISPOSITION@@PAUEHExceptionRecord@@PAUEHRegistrationNode@@PAU_CONTEXT@@PAXPBU_s_FuncInfo@@H1E@Z 202b50b0 f i libvcruntimed:frame.obj
 0001:002b42e0       ??$__InternalCxxFrameHandlerWrapper@V__FrameHandler3@@@@YA?AW4_EXCEPTION_DISPOSITION@@PAUEHExceptionRecord@@PAUEHRegistrationNode@@PAU_CONTEXT@@PAXPBU_s_FuncInfo@@H1E@Z 202b52e0 f i libvcruntimed:frame.obj
 0001:002b4320       ??0HandlerMap@__FrameHandler3@@QAE@PBU_s_TryBlockMapEntry@@II@Z 202b5320 f i libvcruntimed:frame.obj
 0001:002b4350       ??0TryBlockMap@__FrameHandler3@@QAE@PBU_s_FuncInfo@@I@Z 202b5350 f i libvcruntimed:frame.obj
 0001:002b4380       ??0bad_exception@std@@QAE@ABV01@@Z 202b5380 f i libvcruntimed:frame.obj
 0001:002b43b0       ??0bad_exception@std@@QAE@XZ 202b53b0 f i libvcruntimed:frame.obj
 0001:002b43e0       ??0iterator@HandlerMap@__FrameHandler3@@QAE@AAV12@I@Z 202b53e0 f i libvcruntimed:frame.obj
 0001:002b4410       ??1bad_exception@std@@UAE@XZ 202b5410 f i libvcruntimed:frame.obj
 0001:002b4430       ??8iterator@HandlerMap@__FrameHandler3@@QBE_NABV012@@Z 202b5430 f i libvcruntimed:frame.obj
 0001:002b4470       ??8type_info@@QBE_NABV0@@Z 202b5470 f i libvcruntimed:frame.obj
 0001:002b44f0       ??9iterator@HandlerMap@__FrameHandler3@@QBE_NABV012@@Z 202b54f0 f i libvcruntimed:frame.obj
 0001:002b4540       ??Diterator@HandlerMap@__FrameHandler3@@QAE?BU_s_HandlerType@@XZ 202b5540 f i libvcruntimed:frame.obj
 0001:002b4590       ??Diterator@TryBlockMap@__FrameHandler3@@QAE?BU_s_TryBlockMapEntry@@XZ 202b5590 f i libvcruntimed:frame.obj
 0001:002b45f0       ??Eiterator@HandlerMap@__FrameHandler3@@QAEAAV012@XZ 202b55f0 f i libvcruntimed:frame.obj
 0001:002b4620       ??Eiterator@TryBlockMap@__FrameHandler3@@QAEAAV012@XZ 202b5620 f i libvcruntimed:frame.obj
 0001:002b4650       ??Miterator@TryBlockMap@__FrameHandler3@@QBE_NABV012@@Z 202b5650 f i libvcruntimed:frame.obj
 0001:002b4690       ??_Ebad_exception@std@@UAEPAXI@Z 202b5690 f i libvcruntimed:frame.obj
 0001:002b4690       ??_Gbad_exception@std@@UAEPAXI@Z 202b5690 f i libvcruntimed:frame.obj
 0001:002b46d0       ?BuildCatchObject@__FrameHandler3@@SAXPAUEHExceptionRecord@@PAXPBU_s_HandlerType@@PBU_s_CatchableType@@@Z 202b56d0 f   libvcruntimed:frame.obj
 0001:002b4700       ?BuildCatchObjectHelper@__FrameHandler3@@SAHPAUEHExceptionRecord@@PAXPBU_s_HandlerType@@PBU_s_CatchableType@@@Z 202b5700 f   libvcruntimed:frame.obj
 0001:002b4b80       ?FrameUnwindToEmptyState@__FrameHandler3@@SAXPAUEHRegistrationNode@@PAXPBU_s_FuncInfo@@@Z 202b5b80 f   libvcruntimed:frame.obj
 0001:002b4bb0       ?FrameUnwindToState@__FrameHandler3@@SAXPAUEHRegistrationNode@@PAXPBU_s_FuncInfo@@H@Z 202b5bb0 f   libvcruntimed:frame.obj
 0001:002b4d90       ?GetMaxState@__FrameHandler3@@SAHPAXPBU_s_FuncInfo@@@Z 202b5d90 f i libvcruntimed:frame.obj
 0001:002b4ee0       ?TypeMatch@__FrameHandler3@@SAHPBU_s_HandlerType@@PBU_s_CatchableType@@PBU_s_ThrowInfo@@@Z 202b5ee0 f   libvcruntimed:frame.obj
 0001:002b4f00       ?_CallMemberFunction1@@YGXQAX00@Z 202b5f00 f i libvcruntimed:frame.obj
 0001:002b4f30       ?_CallMemberFunction2@@YGXQAX00H@Z 202b5f30 f i libvcruntimed:frame.obj
 0001:002b4f60       ?begin@HandlerMap@__FrameHandler3@@QAE?AViterator@12@XZ 202b5f60 f i libvcruntimed:frame.obj
 0001:002b4f90       ?end@HandlerMap@__FrameHandler3@@QAE?AViterator@12@XZ 202b5f90 f i libvcruntimed:frame.obj
 0001:002b4fc0       ?getESTypes@__FrameHandler3@@SAPBU_s_ESTypeList@@PBU_s_FuncInfo@@@Z 202b5fc0 f i libvcruntimed:frame.obj
 0001:002b4fd0       ?getLastEntry@HandlerMap@__FrameHandler3@@QAEPBU_s_HandlerType@@XZ 202b5fd0 f i libvcruntimed:frame.obj
 0001:002b5000       ?getMagicNum@__FrameHandler3@@SAIPBU_s_FuncInfo@@@Z 202b6000 f i libvcruntimed:frame.obj
 0001:002b5020       ?getNumTryBlocks@TryBlockMap@__FrameHandler3@@QAEIXZ 202b6020 f i libvcruntimed:frame.obj
 0001:002b5040       ?isEHs@__FrameHandler3@@SA_NPBU_s_FuncInfo@@@Z 202b6040 f i libvcruntimed:frame.obj
 0001:002b5070       ?isNoExcept@__FrameHandler3@@SA_NPBU_s_FuncInfo@@@Z 202b6070 f i libvcruntimed:frame.obj
 0001:002b50a0       ___BuildCatchObject        202b60a0 f   libvcruntimed:frame.obj
 0001:002b50d0       ___BuildCatchObjectHelper  202b60d0 f   libvcruntimed:frame.obj
 0001:002b5100       ___TypeMatch               202b6100 f   libvcruntimed:frame.obj
 0001:002b5120       ___vcrt_EncodePointer      202b6120 f i libvcruntimed:frame.obj
 0001:002b5140       __CallSettingFrame@12      202b6140 f   libvcruntimed:lowhelpr.obj
 0001:002b5167       __NLG_Return               202b6167     libvcruntimed:lowhelpr.obj
 0001:002b51b0       ___except_validate_context_record 202b61b0 f   libvcruntimed:jbcxrval.obj
 0001:002b5210       ___except_validate_jump_buffer 202b6210 f   libvcruntimed:jbcxrval.obj
 0001:002b5230       ___except_validate_jump_buffer_common 202b6230 f i libvcruntimed:jbcxrval.obj
 0001:002b52a0       __local_unwind4            202b62a0 f   libvcruntimed:exsup4.obj
 0001:002b53d0       __seh_longjmp_unwind4@4    202b63d0 f   libvcruntimed:exsup4.obj
 0001:002b5410       @_EH4_CallFilterFunc@8     202b6410 f   libvcruntimed:exsup4.obj
 0001:002b5430       @_EH4_TransferToHandler@8  202b6430 f   libvcruntimed:exsup4.obj
 0001:002b5450       @_EH4_GlobalUnwind2@8      202b6450 f   libvcruntimed:exsup4.obj
 0001:002b5470       @_EH4_LocalUnwind@16       202b6470 f   libvcruntimed:exsup4.obj
 0001:002b5490       ___vcrt_initialize_locks   202b6490 f   libvcruntimed:locks.obj
 0001:002b5500       ___vcrt_lock               202b6500 f   libvcruntimed:locks.obj
 0001:002b5520       ___vcrt_uninitialize_locks 202b6520 f   libvcruntimed:locks.obj
 0001:002b5580       ___vcrt_unlock             202b6580 f   libvcruntimed:locks.obj
 0001:002b55a0       ??$?0$00@DName@@QAE@PBDU?$StringLifeSelector@$00@@@Z 202b65a0 f i libvcruntimed:undname.obj
 0001:002b5610       ??$?0$00@pcharNode@@QAE@PBDHU?$StringLifeSelector@$00@@@Z 202b6610 f i libvcruntimed:undname.obj
 0001:002b5650       ??$?0$01@DName@@QAE@PBDU?$StringLifeSelector@$01@@@Z 202b6650 f i libvcruntimed:undname.obj
 0001:002b56c0       ??$?0$01@pcharNode@@QAE@PBDHU?$StringLifeSelector@$01@@@Z 202b66c0 f i libvcruntimed:undname.obj
 0001:002b5760       ??$?0$0A@@DName@@QAE@PBDU?$StringLifeSelector@$0A@@@@Z 202b6760 f i libvcruntimed:undname.obj
 0001:002b57d0       ??$?0$0A@@pcharNode@@QAE@PBDHU?$StringLifeSelector@$0A@@@@Z 202b67d0 f i libvcruntimed:undname.obj
 0001:002b5870       ??$?0_K$0A@@?$optional@_K@std@@QAE@$$QA_K@Z 202b6870 f i libvcruntimed:undname.obj
 0001:002b58a0       ??$?0_K@?$_Optional_construct_base@_K@std@@QAE@Uin_place_t@1@$$QA_K@Z 202b68a0 f i libvcruntimed:undname.obj
 0001:002b58d0       ??$?0_K@?$_Optional_destruct_base@_K$00@std@@QAE@Uin_place_t@1@$$QA_K@Z 202b68d0 f i libvcruntimed:undname.obj
 0001:002b5900       ??$append@VDNameNode@@@DName@@AAEXPBVDNameNode@@@Z 202b6900 f i libvcruntimed:undname.obj
 0001:002b59b0       ??$append@VDNameStatusNode@@@DName@@AAEXPBVDNameStatusNode@@@Z 202b69b0 f i libvcruntimed:undname.obj
 0001:002b5a60       ??$append@VcharNode@@@DName@@AAEXPBVcharNode@@@Z 202b6a60 f i libvcruntimed:undname.obj
 0001:002b5b10       ??$append@VpDNameNode@@@DName@@AAEXPBVpDNameNode@@@Z 202b6b10 f i libvcruntimed:undname.obj
 0001:002b5bc0       ??$append@VpcharNode@@@DName@@AAEXPBVpcharNode@@@Z 202b6bc0 f i libvcruntimed:undname.obj
 0001:002b5c70       ??$doPchar@$00@DName@@AAEXPBDH@Z 202b6c70 f i libvcruntimed:undname.obj
 0001:002b5dc0       ??$doPchar@$01@DName@@AAEXPBDH@Z 202b6dc0 f i libvcruntimed:undname.obj
 0001:002b5f10       ??$doPchar@$0A@@DName@@AAEXPBDH@Z 202b6f10 f i libvcruntimed:undname.obj
 0001:002b61c0       ??$size@D$04@std@@YAIAAY04$$CBD@Z 202b71c0 f i libvcruntimed:undname.obj
 0001:002b61d0       ??0?$_Optional_construct_base@_K@std@@QAE@XZ 202b71d0 f i libvcruntimed:undname.obj
 0001:002b61f0       ??0?$_Optional_destruct_base@_K$00@std@@QAE@XZ 202b71f0 f i libvcruntimed:undname.obj
 0001:002b6220       ??0?$optional@_K@std@@QAE@XZ 202b7220 f i libvcruntimed:undname.obj
 0001:002b6240       ??0Block@_HeapManager@@QAE@XZ 202b7240 f i libvcruntimed:undname.obj
 0001:002b6260       ??0DName@@QAE@AAPBDD@Z     202b7260 f   libvcruntimed:undname.obj
 0001:002b6430       ??0DName@@QAE@ABUStringLiteral@@@Z 202b7430 f   libvcruntimed:undname.obj
 0001:002b6490       ??0DName@@QAE@ABV0@@Z      202b7490 f i libvcruntimed:undname.obj
 0001:002b64c0       ??0DName@@QAE@D@Z          202b74c0 f   libvcruntimed:undname.obj
 0001:002b6500       ??0DName@@QAE@PAV0@@Z      202b7500 f   libvcruntimed:undname.obj
 0001:002b65e0       ??0DName@@QAE@W4DNameStatus@@@Z 202b75e0 f   libvcruntimed:undname.obj
 0001:002b66a0       ??0DName@@QAE@XZ           202b76a0 f i libvcruntimed:undname.obj
 0001:002b66d0       ??0DName@@QAE@_J@Z         202b76d0 f   libvcruntimed:undname.obj
 0001:002b67f0       ??0DName@@QAE@_K@Z         202b77f0 f   libvcruntimed:undname.obj
 0001:002b68c0       ??0DNameNode@@IAE@XZ       202b78c0 f i libvcruntimed:undname.obj
 0001:002b68e0       ??0Replicator@@QAE@XZ      202b78e0 f i libvcruntimed:undname.obj
 0001:002b6960       ??0UnDecorator@@QAE@PBDP6APADJ@ZK@Z 202b7960 f i libvcruntimed:undname.obj
 0001:002b6a00       ??0_Nontrivial_dummy_type@std@@QAE@XZ 202b7a00 f i libvcruntimed:undname.obj
 0001:002b6a20       ??0charNode@@QAE@D@Z       202b7a20 f i libvcruntimed:undname.obj
 0001:002b6a60       ??0pDNameNode@@QAE@PAVDName@@@Z 202b7a60 f   libvcruntimed:undname.obj
 0001:002b6ae0       ??0pairNode@@QAE@PBVDNameNode@@0@Z 202b7ae0 f i libvcruntimed:undname.obj
 0001:002b6b50       ??2@YAPAXIAAV_HeapManager@@H@Z 202b7b50 f   libvcruntimed:undname.obj
 0001:002b6ba0       ??4DName@@QAEAAV0@ABUStringLiteral@@@Z 202b7ba0 f   libvcruntimed:undname.obj
 0001:002b6bf0       ??4DName@@QAEAAV0@ABV0@@Z  202b7bf0 f   libvcruntimed:undname.obj
 0001:002b6c20       ??4DName@@QAEAAV0@D@Z      202b7c20 f i libvcruntimed:undname.obj
 0001:002b6c60       ??4DName@@QAEAAV0@PAV0@@Z  202b7c60 f   libvcruntimed:undname.obj
 0001:002b6d20       ??4DName@@QAEAAV0@W4DNameStatus@@@Z 202b7d20 f   libvcruntimed:undname.obj
 0001:002b6dc0       ??AReplicator@@QBE?AVDName@@H@Z 202b7dc0 f   libvcruntimed:undname.obj
 0001:002b6e40       ??B?$optional@_K@std@@QBE_NXZ 202b7e40 f i libvcruntimed:undname.obj
 0001:002b6e60       ??D?$_Optional_construct_base@_K@std@@QGAEAA_KXZ 202b7e60 f i libvcruntimed:undname.obj
 0001:002b6ee0       ??H@YA?AVDName@@ABUStringLiteral@@ABV0@@Z 202b7ee0 f i libvcruntimed:undname.obj
 0001:002b6f20       ??H@YA?AVDName@@DABV0@@Z   202b7f20 f i libvcruntimed:undname.obj
 0001:002b6f60       ??H@YA?AVDName@@W4DNameStatus@@ABV0@@Z 202b7f60 f i libvcruntimed:undname.obj
 0001:002b6fa0       ??HDName@@QBE?AV0@ABUStringLiteral@@@Z 202b7fa0 f   libvcruntimed:undname.obj
 0001:002b6fe0       ??HDName@@QBE?AV0@ABV0@@Z  202b7fe0 f   libvcruntimed:undname.obj
 0001:002b7020       ??HDName@@QBE?AV0@D@Z      202b8020 f   libvcruntimed:undname.obj
 0001:002b7060       ??HDName@@QBE?AV0@PAV0@@Z  202b8060 f   libvcruntimed:undname.obj
 0001:002b70a0       ??HDName@@QBE?AV0@W4DNameStatus@@@Z 202b80a0 f   libvcruntimed:undname.obj
 0001:002b70e0       ??HStringLiteral@@QBE?AU0@H@Z 202b80e0 f i libvcruntimed:undname.obj
 0001:002b7120       ??YDName@@QAEAAV0@ABUStringLiteral@@@Z 202b8120 f   libvcruntimed:undname.obj
 0001:002b71e0       ??YDName@@QAEAAV0@ABV0@@Z  202b81e0 f   libvcruntimed:undname.obj
 0001:002b72a0       ??YDName@@QAEAAV0@D@Z      202b82a0 f   libvcruntimed:undname.obj
 0001:002b7340       ??YDName@@QAEAAV0@PAV0@@Z  202b8340 f   libvcruntimed:undname.obj
 0001:002b7420       ??YDName@@QAEAAV0@W4DNameStatus@@@Z 202b8420 f   libvcruntimed:undname.obj
 0001:002b74a0       ??YReplicator@@QAEAAV0@ABVDName@@@Z 202b84a0 f   libvcruntimed:undname.obj
 0001:002b7550       ??_5DName@@QAEAAV0@ABV0@@Z 202b8550 f   libvcruntimed:undname.obj
 0001:002b75d0       ??__K_l@@YA?AUStringLiteral@@PBDI@Z 202b85d0 f i libvcruntimed:undname.obj
 0001:002b7600       ?Constructor@_HeapManager@@QAEXP6APAXI@ZP6AXPAX@Z@Z 202b8600 f i libvcruntimed:undname.obj
 0001:002b7650       ?Destructor@_HeapManager@@QAEXXZ 202b8650 f i libvcruntimed:undname.obj
 0001:002b76f0       ?UScore@UnDecorator@@SA?AUStringLiteral@@W4Tokens@@@Z 202b86f0 f   libvcruntimed:undname.obj
 0001:002b7750       ?composeDeclaration@UnDecorator@@CA?AVDName@@ABV2@@Z 202b8750 f i libvcruntimed:undname.obj
 0001:002b9ee0       ?doAccessSpecifiers@UnDecorator@@SAHXZ 202baee0 f i libvcruntimed:undname.obj
 0001:002b9f10       ?doAllocationLanguage@UnDecorator@@SAHXZ 202baf10 f i libvcruntimed:undname.obj
 0001:002b9f40       ?doAllocationModel@UnDecorator@@SAHXZ 202baf40 f i libvcruntimed:undname.obj
 0001:002b9f70       ?doEcsu@UnDecorator@@SAHXZ 202baf70 f i libvcruntimed:undname.obj
 0001:002b9fa0       ?doEllipsis@UnDecorator@@SAHXZ 202bafa0 f i libvcruntimed:undname.obj
 0001:002b9fd0       ?doFunctionReturns@UnDecorator@@SAHXZ 202bafd0 f i libvcruntimed:undname.obj
 0001:002ba000       ?doMSKeywords@UnDecorator@@SAHXZ 202bb000 f i libvcruntimed:undname.obj
 0001:002ba030       ?doMemberTypes@UnDecorator@@SAHXZ 202bb030 f i libvcruntimed:undname.obj
 0001:002ba060       ?doNameOnly@UnDecorator@@SAHXZ 202bb060 f i libvcruntimed:undname.obj
 0001:002ba080       ?doNoIdentCharCheck@UnDecorator@@SAHXZ 202bb080 f i libvcruntimed:undname.obj
 0001:002ba0a0       ?doPchar@DName@@AAEXD@Z    202bb0a0 f   libvcruntimed:undname.obj
 0001:002ba130       ?doPtr64@UnDecorator@@SAHXZ 202bb130 f i libvcruntimed:undname.obj
 0001:002ba160       ?doRestrictionSpec@UnDecorator@@SAHXZ 202bb160 f i libvcruntimed:undname.obj
 0001:002ba190       ?doThisTypes@UnDecorator@@SAHXZ 202bb190 f i libvcruntimed:undname.obj
 0001:002ba1d0       ?doThrowTypes@UnDecorator@@SAHXZ 202bb1d0 f i libvcruntimed:undname.obj
 0001:002ba200       ?doTypeOnly@UnDecorator@@SAHXZ 202bb200 f i libvcruntimed:undname.obj
 0001:002ba220       ?doUnderScore@UnDecorator@@SAHXZ 202bb220 f i libvcruntimed:undname.obj
 0001:002ba250       ?getAddressOf@UnDecorator@@CA?AVDName@@XZ 202bb250 f   libvcruntimed:undname.obj
 0001:002ba2f0       ?getArgumentList@UnDecorator@@CA?AVDName@@XZ 202bb2f0 f   libvcruntimed:undname.obj
 0001:002ba470       ?getArgumentTypes@UnDecorator@@CA?AVDName@@XZ 202bb470 f   libvcruntimed:undname.obj
 0001:002ba680       ?getArrayAccess@UnDecorator@@CA?AVDName@@XZ 202bb680 f   libvcruntimed:undname.obj
 0001:002ba730       ?getArrayObject@UnDecorator@@CA?AVDName@@XZ 202bb730 f   libvcruntimed:undname.obj
 0001:002ba860       ?getArrayType@UnDecorator@@CA?AVDName@@ABV2@@Z 202bb860 f i libvcruntimed:undname.obj
 0001:002baba0       ?getBasedType@UnDecorator@@CA?AVDName@@XZ 202bbba0 f   libvcruntimed:undname.obj
 0001:002bad00       ?getBasicDataType@UnDecorator@@CA?AVDName@@ABV2@@Z 202bbd00 f   libvcruntimed:undname.obj
 0001:002bb920       ?getCHPEName@UnDecorator@@QAEPADPADH@Z 202bc920 f i libvcruntimed:undname.obj
 0001:002bbae0       ?getCallIndex@UnDecorator@@CA?AVDName@@XZ 202bcae0 f i libvcruntimed:undname.obj
 0001:002bbb00       ?getCallingConvention@UnDecorator@@CA?AVDName@@XZ 202bcb00 f   libvcruntimed:undname.obj
 0001:002bbdd0       ?getDataIndirectType@UnDecorator@@CA?AVDName@@ABV2@W4IndirectionKind@@0H@Z 202bcdd0 f   libvcruntimed:undname.obj
 0001:002bc930       ?getDataIndirectType@UnDecorator@@CA?AVDName@@XZ 202bd930 f i libvcruntimed:undname.obj
 0001:002bc980       ?getDataType@UnDecorator@@CA?AVDName@@PAV2@@Z 202bd980 f   libvcruntimed:undname.obj
 0001:002bcae0       ?getDecoratedName@UnDecorator@@CA?AVDName@@XZ 202bdae0 f   libvcruntimed:undname.obj
 0001:002bd000       ?getDimension@UnDecorator@@CA?AVDName@@_N@Z 202be000 f   libvcruntimed:undname.obj
 0001:002bd2c0       ?getDispatchTarget@UnDecorator@@CA?AVDName@@XZ 202be2c0 f   libvcruntimed:undname.obj
 0001:002bd360       ?getDisplacement@UnDecorator@@CA?AVDName@@XZ 202be360 f i libvcruntimed:undname.obj
 0001:002bd380       ?getECSUDataType@UnDecorator@@CA?AVDName@@XZ 202be380 f   libvcruntimed:undname.obj
 0001:002bd700       ?getECSUName@UnDecorator@@CA?AVDName@@XZ 202be700 f i libvcruntimed:undname.obj
 0001:002bd720       ?getEnumType@UnDecorator@@CA?AVDName@@XZ 202be720 f i libvcruntimed:undname.obj
 0001:002bd930       ?getExtendedDataIndirectType@UnDecorator@@CA?AVDName@@AAW4IndirectionKind@@AA_NH@Z 202be930 f   libvcruntimed:undname.obj
 0001:002bdc20       ?getExternalDataType@UnDecorator@@CA?AVDName@@ABV2@@Z 202bec20 f i libvcruntimed:undname.obj
 0001:002bdcd0       ?getFloatingPoint@UnDecorator@@CA?AVDName@@H@Z 202becd0 f   libvcruntimed:undname.obj
 0001:002bde60       ?getFunctionIndirectType@UnDecorator@@CA?AVDName@@ABV2@@Z 202bee60 f   libvcruntimed:undname.obj
 0001:002be440       ?getGuardNumber@UnDecorator@@CA?AVDName@@XZ 202bf440 f i libvcruntimed:undname.obj
 0001:002be460       ?getLastChar@DName@@QBEDXZ 202bf460 f i libvcruntimed:undname.obj
 0001:002be4b0       ?getLastChar@DNameStatusNode@@UBEDXZ 202bf4b0 f i libvcruntimed:undname.obj
 0001:002be4f0       ?getLastChar@charNode@@UBEDXZ 202bf4f0 f i libvcruntimed:undname.obj
 0001:002be510       ?getLastChar@pDNameNode@@UBEDXZ 202bf510 f i libvcruntimed:undname.obj
 0001:002be550       ?getLastChar@pairNode@@UBEDXZ 202bf550 f i libvcruntimed:undname.obj
 0001:002be5d0       ?getLastChar@pcharNode@@UBEDXZ 202bf5d0 f i libvcruntimed:undname.obj
 0001:002be610       ?getLexicalFrame@UnDecorator@@CA?AVDName@@XZ 202bf610 f i libvcruntimed:undname.obj
 0001:002be660       ?getMemberAccess@UnDecorator@@CA?AVDName@@XZ 202bf660 f   libvcruntimed:undname.obj
 0001:002be710       ?getMemoryWithBuffer@_HeapManager@@QAEPAXI@Z 202bf710 f   libvcruntimed:undname.obj
 0001:002be830       ?getMemoryWithoutBuffer@_HeapManager@@QAEPAXI@Z 202bf830 f   libvcruntimed:undname.obj
 0001:002be880       ?getNoexcept@UnDecorator@@CA?AVDName@@XZ 202bf880 f   libvcruntimed:undname.obj
 0001:002be900       ?getNumberOfDimensions@UnDecorator@@CAHXZ 202bf900 f   libvcruntimed:undname.obj
 0001:002be9e0       ?getOperatorName@UnDecorator@@CA?AVDName@@_NPA_N@Z 202bf9e0 f i libvcruntimed:undname.obj
 0001:002bf670       ?getPointerToMember@UnDecorator@@CA?AVDName@@XZ 202c0670 f   libvcruntimed:undname.obj
 0001:002bf780       ?getPointerType@UnDecorator@@CA?AVDName@@ABV2@0@Z 202c0780 f i libvcruntimed:undname.obj
 0001:002bf7b0       ?getPointerTypeArray@UnDecorator@@CA?AVDName@@ABV2@0@Z 202c07b0 f i libvcruntimed:undname.obj
 0001:002bf7e0       ?getPrimaryDataType@UnDecorator@@CA?AVDName@@ABV2@@Z 202c07e0 f   libvcruntimed:undname.obj
 0001:002bfd20       ?getPtrRefDataType@UnDecorator@@CA?AVDName@@ABV2@H@Z 202c0d20 f   libvcruntimed:undname.obj
 0001:002c0050       ?getPtrRefType@UnDecorator@@CA?AVDName@@ABV2@0W4IndirectionKind@@@Z 202c1050 f   libvcruntimed:undname.obj
 0001:002c0230       ?getReferenceType@UnDecorator@@CA?AVDName@@ABV2@0W4IndirectionKind@@@Z 202c1230 f i libvcruntimed:undname.obj
 0001:002c0260       ?getRestrictionSpec@UnDecorator@@CA?AVDName@@XZ 202c1260 f   libvcruntimed:undname.obj
 0001:002c0450       ?getReturnType@UnDecorator@@CA?AVDName@@PAV2@@Z 202c1450 f   libvcruntimed:undname.obj
 0001:002c04a0       ?getScope@UnDecorator@@CA?AVDName@@XZ 202c14a0 f   libvcruntimed:undname.obj
 0001:002c0b30       ?getScopedName@UnDecorator@@CA?AVDName@@XZ 202c1b30 f   libvcruntimed:undname.obj
 0001:002c0cc0       ?getSignedDimension@UnDecorator@@CA?AVDName@@XZ 202c1cc0 f   libvcruntimed:undname.obj
 0001:002c0d50       ?getStorageConvention@UnDecorator@@CA?AVDName@@XZ 202c1d50 f i libvcruntimed:undname.obj
 0001:002c0d70       ?getString@DName@@QBEPADPAD0@Z 202c1d70 f i libvcruntimed:undname.obj
 0001:002c0de0       ?getString@DName@@QBEPADPADH@Z 202c1de0 f i libvcruntimed:undname.obj
 0001:002c0e90       ?getString@DNameStatusNode@@UBEPADPAD0@Z 202c1e90 f i libvcruntimed:undname.obj
 0001:002c0ed0       ?getString@charNode@@UBEPADPAD0@Z 202c1ed0 f i libvcruntimed:undname.obj
 0001:002c0f10       ?getString@pDNameNode@@UBEPADPAD0@Z 202c1f10 f i libvcruntimed:undname.obj
 0001:002c0f60       ?getString@pairNode@@UBEPADPAD0@Z 202c1f60 f i libvcruntimed:undname.obj
 0001:002c1010       ?getString@pcharNode@@UBEPADPAD0@Z 202c2010 f i libvcruntimed:undname.obj
 0001:002c1050       ?getStringEncoding@UnDecorator@@CA?AVDName@@W4PrefixKind@@H@Z 202c2050 f   libvcruntimed:undname.obj
 0001:002c1170       ?getStringHelper@@YAPADPADPBD1H@Z 202c2170 f i libvcruntimed:undname.obj
 0001:002c11c0       ?getStringObject@UnDecorator@@CA?AVDName@@XZ 202c21c0 f   libvcruntimed:undname.obj
 0001:002c12b0       ?getSymbolName@UnDecorator@@CA?AVDName@@XZ 202c22b0 f i libvcruntimed:undname.obj
 0001:002c1350       ?getTemplateArgumentList@UnDecorator@@CA?AVDName@@XZ 202c2350 f   libvcruntimed:undname.obj
 0001:002c16c0       ?getTemplateName@UnDecorator@@CA?AVDName@@_N@Z 202c26c0 f   libvcruntimed:undname.obj
 0001:002c18d0       ?getTemplateNonTypeArgument@UnDecorator@@CA?AVDName@@XZ 202c28d0 f   libvcruntimed:undname.obj
 0001:002c2070       ?getTemplateTypeArgument@UnDecorator@@CA?AVDName@@XZ 202c3070 f   libvcruntimed:undname.obj
 0001:002c2280       ?getThisType@UnDecorator@@CA?AVDName@@XZ 202c3280 f i libvcruntimed:undname.obj
 0001:002c22d0       ?getThrowTypes@UnDecorator@@CA?AVDName@@XZ 202c32d0 f   libvcruntimed:undname.obj
 0001:002c2300       ?getTypeEncoding@UnDecorator@@CAHXZ 202c3300 f i libvcruntimed:undname.obj
 0001:002c3000       ?getUndecoratedName@UnDecorator@@QAEPADPADH@Z 202c4000 f i libvcruntimed:undname.obj
 0001:002c31b0       ?getUnionObject@UnDecorator@@CA?AVDName@@XZ 202c41b0 f   libvcruntimed:undname.obj
 0001:002c32b0       ?getVCallThunkType@UnDecorator@@CA?AVDName@@XZ 202c42b0 f i libvcruntimed:undname.obj
 0001:002c3340       ?getValue@UnDecorator@@CA?AV?$optional@_K@std@@XZ 202c4340 f   libvcruntimed:undname.obj
 0001:002c3430       ?getValueObject@UnDecorator@@CA?AVDName@@XZ 202c4430 f   libvcruntimed:undname.obj
 0001:002c36a0       ?getVbTableType@UnDecorator@@CA?AVDName@@ABV2@@Z 202c46a0 f i libvcruntimed:undname.obj
 0001:002c36c0       ?getVdispMapType@UnDecorator@@CA?AVDName@@ABV2@@Z 202c46c0 f i libvcruntimed:undname.obj
 0001:002c3750       ?getVfTableType@UnDecorator@@CA?AVDName@@ABV2@@Z 202c4750 f i libvcruntimed:undname.obj
 0001:002c39a0       ?getZName@UnDecorator@@CA?AVDName@@_N0@Z 202c49a0 f   libvcruntimed:undname.obj
 0001:002c3d70       ?get_current_character_and_increment_buffer@UnDecorator@@CADXZ 202c4d70 f i libvcruntimed:undname.obj
 0001:002c3db0       ?haveTemplateParameters@UnDecorator@@SAHXZ 202c4db0 f i libvcruntimed:undname.obj
 0001:002c3dd0       ?increment_buffer@UnDecorator@@CA_NI@Z 202c4dd0 f i libvcruntimed:undname.obj
 0001:002c3e30       ?increment_buffer_no_check@UnDecorator@@CAXI@Z 202c4e30 f i libvcruntimed:undname.obj
 0001:002c3e70       ?increment_buffer_no_check@UnDecorator@@CAXXZ 202c4e70 f i libvcruntimed:undname.obj
 0001:002c3e90       ?isArray@DName@@QBEHXZ     202c4e90 f i libvcruntimed:undname.obj
 0001:002c3eb0       ?isComArray@DName@@QBEHXZ  202c4eb0 f i libvcruntimed:undname.obj
 0001:002c3ed0       ?isEmpty@DName@@QBEHXZ     202c4ed0 f i libvcruntimed:undname.obj
 0001:002c3f10       ?isFull@Replicator@@QBEHXZ 202c4f10 f i libvcruntimed:undname.obj
 0001:002c3f50       ?isNoTE@DName@@QBEHXZ      202c4f50 f i libvcruntimed:undname.obj
 0001:002c3f70       ?isPinPtr@DName@@QBEHXZ    202c4f70 f i libvcruntimed:undname.obj
 0001:002c3f90       ?isPtrRef@DName@@QBEHXZ    202c4f90 f i libvcruntimed:undname.obj
 0001:002c3fb0       ?isUDC@DName@@QBEHXZ       202c4fb0 f i libvcruntimed:undname.obj
 0001:002c4000       ?isUDTThunk@DName@@QBEHXZ  202c5000 f i libvcruntimed:undname.obj
 0001:002c4050       ?isVCallThunk@DName@@QBEHXZ 202c5050 f i libvcruntimed:undname.obj
 0001:002c4070       ?isValid@DName@@QBEHXZ     202c5070 f i libvcruntimed:undname.obj
 0001:002c40b0       ?length@DName@@QBEHXZ      202c50b0 f i libvcruntimed:undname.obj
 0001:002c4100       ?length@DNameStatusNode@@UBEHXZ 202c5100 f i libvcruntimed:undname.obj
 0001:002c4120       ?length@charNode@@UBEHXZ   202c5120 f i libvcruntimed:undname.obj
 0001:002c4140       ?length@pDNameNode@@UBEHXZ 202c5140 f i libvcruntimed:undname.obj
 0001:002c4180       ?length@pairNode@@UBEHXZ   202c5180 f i libvcruntimed:undname.obj
 0001:002c4210       ?length@pcharNode@@UBEHXZ  202c5210 f i libvcruntimed:undname.obj
 0001:002c4230       ?make@DNameStatusNode@@SAPBV1@W4DNameStatus@@@Z 202c5230 f i libvcruntimed:undname.obj
 0001:002c4270       ?parseDecoratedName@UnDecorator@@CA?AVDName@@XZ 202c5270 f   libvcruntimed:undname.obj
 0001:002c4450       ?raw_length@DNameStatusNode@@UBEHXZ 202c5450 f i libvcruntimed:undname.obj
 0001:002c4470       ?raw_length@charNode@@UBEHXZ 202c5470 f i libvcruntimed:undname.obj
 0001:002c4490       ?raw_length@pDNameNode@@UBEHXZ 202c5490 f i libvcruntimed:undname.obj
 0001:002c44b0       ?raw_length@pairNode@@UBEHXZ 202c54b0 f i libvcruntimed:undname.obj
 0001:002c44d0       ?raw_length@pcharNode@@UBEHXZ 202c54d0 f i libvcruntimed:undname.obj
 0001:002c44f0       ?setIsArray@DName@@QAEXXZ  202c54f0 f i libvcruntimed:undname.obj
 0001:002c4520       ?setIsComArray@DName@@QAEXXZ 202c5520 f i libvcruntimed:undname.obj
 0001:002c4550       ?setIsNoTE@DName@@QAEXXZ   202c5550 f i libvcruntimed:undname.obj
 0001:002c4580       ?setIsPinPtr@DName@@QAEXXZ 202c5580 f i libvcruntimed:undname.obj
 0001:002c45b0       ?setIsUDC@DName@@QAEXXZ    202c55b0 f i libvcruntimed:undname.obj
 0001:002c45f0       ?setIsVCallThunk@DName@@QAEXXZ 202c55f0 f i libvcruntimed:undname.obj
 0001:002c4620       ?setPtrRef@DName@@QAEAAV1@XZ 202c5620 f i libvcruntimed:undname.obj
 0001:002c4650       ?status@DName@@QBE?AW4DNameStatus@@XZ 202c5650 f i libvcruntimed:undname.obj
 0001:002c4770       ___unDName                 202c5770 f   libvcruntimed:undname.obj
 0001:002c47b0       ___unDNameEx               202c57b0 f   libvcruntimed:undname.obj
 0001:002c48b0       __vsprintf_s_l             202c58b0 f i libvcruntimed:undname.obj
 0001:002c4910       _sprintf_s                 202c5910 f i libvcruntimed:undname.obj
 0001:002c4960       _unDNameGenerateCHPE       202c5960 f   libvcruntimed:undname.obj
 0001:002c49e0       ??$__crt_interlocked_exchange_pointer@UHINSTANCE__@@PAU1@@@YAPAUHINSTANCE__@@PDSAU0@QAU0@@Z 202c59e0 f i libvcruntimed:winapi_downlevel.obj
 0001:002c49f0       ??$__crt_interlocked_exchange_pointer@UHINSTANCE__@@PAX@@YAPAUHINSTANCE__@@PDSAU0@QAX@Z 202c59f0 f i libvcruntimed:winapi_downlevel.obj
 0001:002c4a00       ??$__crt_interlocked_exchange_pointer@XPAX@@YAPAXPDSAXQAX@Z 202c5a00 f i libvcruntimed:winapi_downlevel.obj
 0001:002c4a10       ??$__crt_interlocked_read_pointer@UHINSTANCE__@@@@YAPAUHINSTANCE__@@PDSAU0@@Z 202c5a10 f i libvcruntimed:winapi_downlevel.obj
 0001:002c4a30       ??$__crt_interlocked_read_pointer@X@@YAPAXPDSAX@Z 202c5a30 f i libvcruntimed:winapi_downlevel.obj
 0001:002c4f00       ___vcrt_FlsAlloc           202c5f00 f   libvcruntimed:winapi_downlevel.obj
 0001:002c4f50       ___vcrt_FlsFree            202c5f50 f   libvcruntimed:winapi_downlevel.obj
 0001:002c4fa0       ___vcrt_FlsGetValue        202c5fa0 f   libvcruntimed:winapi_downlevel.obj
 0001:002c4ff0       ___vcrt_FlsSetValue        202c5ff0 f   libvcruntimed:winapi_downlevel.obj
 0001:002c5050       ___vcrt_InitializeCriticalSectionEx 202c6050 f   libvcruntimed:winapi_downlevel.obj
 0001:002c50e0       __get_unexpected           202c60e0 f   libvcruntimed:unexpected.obj
 0001:002c5100       _set_unexpected            202c6100 f   libvcruntimed:unexpected.obj
 0001:002c5140       _unexpected                202c6140 f   libvcruntimed:unexpected.obj
 0001:002c5180       ?GetCurrentState@__FrameHandler3@@SAHPAUEHRegistrationNode@@PAXPBU_s_FuncInfo@@@Z 202c6180 f   libvcruntimed:ehstate.obj
 0001:002c51c0       ?SetState@__FrameHandler3@@SAXPAUEHRegistrationNode@@PBU_s_FuncInfo@@H@Z 202c61c0 f   libvcruntimed:ehstate.obj
 0001:002c51e0       __global_unwind2           202c61e0 f   libvcruntimed:exsup.obj
 0001:002c5270       __local_unwind2            202c6270 f   libvcruntimed:exsup.obj
 0001:002c5330       __abnormal_termination     202c6330 f   libvcruntimed:exsup.obj
 0001:002c5370       __NLG_Notify1              202c6370 f   libvcruntimed:exsup.obj
 0001:002c5380       __NLG_Notify               202c6380 f   libvcruntimed:exsup.obj
 0001:002c5397       __NLG_Dispatch             202c6397     libvcruntimed:exsup.obj
 0001:002c5397       __NLG_Dispatch2            202c6397     libvcruntimed:exsup.obj
 0001:002c53b0       __NLG_Call                 202c63b0 f   libvcruntimed:exsup.obj
 0001:002c53b2       __NLG_Return2              202c63b2     libvcruntimed:exsup.obj
 0001:002c53c0       ??$__crt_interlocked_exchange_pointer@$$A6AXXZP6AXXZ@@YAP6AXXZPDS6AXXZQ6AXXZ@Z 202c63c0 f i libvcruntimed:purevirt.obj
 0001:002c53d0       ??$__crt_interlocked_read_pointer@$$A6AXXZ@@YAP6AXXZPDS6AXXZ@Z 202c63d0 f i libvcruntimed:purevirt.obj
 0001:002c53f0       __get_purecall_handler     202c63f0 f   libvcruntimed:purevirt.obj
 0001:002c5410       __purecall                 202c6410 f   libvcruntimed:purevirt.obj
 0001:002c5450       __set_purecall_handler     202c6450 f   libvcruntimed:purevirt.obj
 0001:002c5470       __abs64                    202c6470 f   libucrtd:abs.obj
 0001:002c54d0       _abs                       202c64d0 f   libucrtd:abs.obj
 0001:002c5510       _fabs                      202c6510 f   libucrtd:fabs.obj
 0001:002c55d0       _sqrt                      202c65d0 f   libucrtd:sqrt.obj
 0001:002c55f0       _strcmp                    202c65f0 f   libucrtd:strcmp.obj
 0001:002c56a0       _rand                      202c66a0 f   libucrtd:rand.obj
 0001:002c56f0       _srand                     202c66f0 f   libucrtd:rand.obj
 0001:002c5710       ??$assemble_floating_point_ind@M@__crt_strtox@@YAXAAM@Z 202c6710 f i libucrtd:atof.obj
 0001:002c5770       ??$assemble_floating_point_ind@N@__crt_strtox@@YAXAAN@Z 202c6770 f i libucrtd:atof.obj
 0001:002c57e0       ??$assemble_floating_point_infinity@M@__crt_strtox@@YAX_NAAM@Z 202c67e0 f i libucrtd:atof.obj
 0001:002c5860       ??$assemble_floating_point_infinity@N@__crt_strtox@@YAX_NAAN@Z 202c6860 f i libucrtd:atof.obj
 0001:002c5910       ??$assemble_floating_point_qnan@M@__crt_strtox@@YAX_NAAM@Z 202c6910 f i libucrtd:atof.obj
 0001:002c5990       ??$assemble_floating_point_qnan@N@__crt_strtox@@YAX_NAAN@Z 202c6990 f i libucrtd:atof.obj
 0001:002c5a40       ??$assemble_floating_point_snan@M@__crt_strtox@@YAX_NAAM@Z 202c6a40 f i libucrtd:atof.obj
 0001:002c5ad0       ??$assemble_floating_point_snan@N@__crt_strtox@@YAX_NAAN@Z 202c6ad0 f i libucrtd:atof.obj
 0001:002c5b80       ??$assemble_floating_point_value_t@M@__crt_strtox@@YA?AW4SLD_STATUS@@_NH_KAAM@Z 202c6b80 f i libucrtd:atof.obj
 0001:002c5c10       ??$assemble_floating_point_value_t@N@__crt_strtox@@YA?AW4SLD_STATUS@@_NH_KAAN@Z 202c6c10 f i libucrtd:atof.obj
 0001:002c5ce0       ??$assemble_floating_point_zero@M@__crt_strtox@@YAX_NAAM@Z 202c6ce0 f i libucrtd:atof.obj
 0001:002c5d60       ??$assemble_floating_point_zero@N@__crt_strtox@@YAX_NAAN@Z 202c6d60 f i libucrtd:atof.obj
 0001:002c6310       ??$convert_decimal_string_to_floating_type@M@__crt_strtox@@YA?AW4SLD_STATUS@@ABUfloating_point_string@0@AAM@Z 202c7310 f i libucrtd:atof.obj
 0001:002c6340       ??$convert_decimal_string_to_floating_type@N@__crt_strtox@@YA?AW4SLD_STATUS@@ABUfloating_point_string@0@AAN@Z 202c7340 f i libucrtd:atof.obj
 0001:002c6370       ??$convert_hexadecimal_string_to_floating_type@M@__crt_strtox@@YA?AW4SLD_STATUS@@ABUfloating_point_string@0@AAM@Z 202c7370 f i libucrtd:atof.obj
 0001:002c63a0       ??$convert_hexadecimal_string_to_floating_type@N@__crt_strtox@@YA?AW4SLD_STATUS@@ABUfloating_point_string@0@AAN@Z 202c73a0 f i libucrtd:atof.obj
 0001:002c63d0       ??$make_c_string_character_source@D$$T@__crt_strtox@@YA?AV?$c_string_character_source@D@0@QBD$$T@Z 202c73d0 f i libucrtd:atof.obj
 0001:002c63f0       ??$make_c_string_character_source@_W$$T@__crt_strtox@@YA?AV?$c_string_character_source@_W@0@QB_W$$T@Z 202c73f0 f i libucrtd:atof.obj
 0001:002c6410       ??$parse_floating_point@V?$c_string_character_source@D@__crt_strtox@@M@__crt_strtox@@YA?AW4SLD_STATUS@@QAU__crt_locale_pointers@@V?$c_string_character_source@D@0@QAM@Z 202c7410 f i libucrtd:atof.obj
 0001:002c6640       ??$parse_floating_point@V?$c_string_character_source@D@__crt_strtox@@N@__crt_strtox@@YA?AW4SLD_STATUS@@QAU__crt_locale_pointers@@V?$c_string_character_source@D@0@QAN@Z 202c7640 f i libucrtd:atof.obj
 0001:002c6870       ??$parse_floating_point@V?$c_string_character_source@_W@__crt_strtox@@N@__crt_strtox@@YA?AW4SLD_STATUS@@QAU__crt_locale_pointers@@V?$c_string_character_source@_W@0@QAN@Z 202c7870 f i libucrtd:atof.obj
 0001:002c6aa0       ??$parse_floating_point_from_source@V?$c_string_character_source@D@__crt_strtox@@@__crt_strtox@@YA?AW4floating_point_parse_result@0@QAU__crt_locale_pointers@@AAV?$c_string_character_source@D@0@AAUfloating_point_string@0@@Z 202c7aa0 f i libucrtd:atof.obj
 0001:002c7200       ??$parse_floating_point_from_source@V?$c_string_character_source@_W@__crt_strtox@@@__crt_strtox@@YA?AW4floating_point_parse_result@0@QAU__crt_locale_pointers@@AAV?$c_string_character_source@_W@0@AAUfloating_point_string@0@@Z 202c8200 f i libucrtd:atof.obj
 0001:002c7970       ??$parse_floating_point_possible_infinity@DV?$c_string_character_source@D@__crt_strtox@@PBD@__crt_strtox@@YA?AW4floating_point_parse_result@0@AADAAV?$c_string_character_source@D@0@PBD@Z 202c8970 f i libucrtd:atof.obj
 0001:002c7ac0       ??$parse_floating_point_possible_infinity@_WV?$c_string_character_source@_W@__crt_strtox@@PB_W@__crt_strtox@@YA?AW4floating_point_parse_result@0@AA_WAAV?$c_string_character_source@_W@0@PB_W@Z 202c8ac0 f i libucrtd:atof.obj
 0001:002c7c10       ??$parse_floating_point_possible_nan@DV?$c_string_character_source@D@__crt_strtox@@PBD@__crt_strtox@@YA?AW4floating_point_parse_result@0@AADAAV?$c_string_character_source@D@0@PBD@Z 202c8c10 f i libucrtd:atof.obj
 0001:002c7e70       ??$parse_floating_point_possible_nan@_WV?$c_string_character_source@_W@__crt_strtox@@PB_W@__crt_strtox@@YA?AW4floating_point_parse_result@0@AA_WAAV?$c_string_character_source@_W@0@PB_W@Z 202c8e70 f i libucrtd:atof.obj
 0001:002c80d0       ??$parse_floating_point_possible_nan_is_ind@DV?$c_string_character_source@D@__crt_strtox@@@__crt_strtox@@YA_NAADAAV?$c_string_character_source@D@0@@Z 202c90d0 f i libucrtd:atof.obj
 0001:002c8100       ??$parse_floating_point_possible_nan_is_ind@_WV?$c_string_character_source@_W@__crt_strtox@@@__crt_strtox@@YA_NAA_WAAV?$c_string_character_source@_W@0@@Z 202c9100 f i libucrtd:atof.obj
 0001:002c8130       ??$parse_floating_point_possible_nan_is_snan@DV?$c_string_character_source@D@__crt_strtox@@@__crt_strtox@@YA_NAADAAV?$c_string_character_source@D@0@@Z 202c9130 f i libucrtd:atof.obj
 0001:002c8160       ??$parse_floating_point_possible_nan_is_snan@_WV?$c_string_character_source@_W@__crt_strtox@@@__crt_strtox@@YA_NAA_WAAV?$c_string_character_source@_W@0@@Z 202c9160 f i libucrtd:atof.obj
 0001:002c8190       ??$parse_floating_point_write_result@M@__crt_strtox@@YA?AW4SLD_STATUS@@W4floating_point_parse_result@0@ABUfloating_point_string@0@QAM@Z 202c9190 f i libucrtd:atof.obj
 0001:002c8380       ??$parse_floating_point_write_result@N@__crt_strtox@@YA?AW4SLD_STATUS@@W4floating_point_parse_result@0@ABUfloating_point_string@0@QAN@Z 202c9380 f i libucrtd:atof.obj
 0001:002c8570       ??$parse_next_characters_from_source@DV?$c_string_character_source@D@__crt_strtox@@@__crt_strtox@@YA_NQBD0IAADAAV?$c_string_character_source@D@0@@Z 202c9570 f i libucrtd:atof.obj
 0001:002c85f0       ??$parse_next_characters_from_source@_WV?$c_string_character_source@_W@__crt_strtox@@@__crt_strtox@@YA_NQB_W0IAA_WAAV?$c_string_character_source@_W@0@@Z 202c95f0 f i libucrtd:atof.obj
 0001:002c8670       ??0<lambda_32aa245da1b5b882fa96db788295c8b2>@@QAE@AAV?$c_string_character_source@D@__crt_strtox@@AADAAPBD@Z 202c9670 f i libucrtd:atof.obj
 0001:002c86b0       ??0<lambda_41cd6f1065410257e3b5bd447328b23e>@@QAE@AAV?$c_string_character_source@_W@__crt_strtox@@AA_WAAPB_W@Z 202c96b0 f i libucrtd:atof.obj
 0001:002c86f0       ??0<lambda_690cf26ff5d754c94c32cf642e9f01bc>@@QAE@AAV?$c_string_character_source@D@__crt_strtox@@AADAAPBD@Z 202c96f0 f i libucrtd:atof.obj
 0001:002c8730       ??0<lambda_cbd1988beab104251e16e78b336a674a>@@QAE@AAV?$c_string_character_source@_W@__crt_strtox@@AA_WAAPB_W@Z 202c9730 f i libucrtd:atof.obj
 0001:002c8770       ??0<lambda_e128a58a467199df1f46ac2193393add>@@QAE@AAV?$c_string_character_source@_W@__crt_strtox@@AA_WAAPB_W@Z 202c9770 f i libucrtd:atof.obj
 0001:002c87b0       ??0<lambda_e51f7abad2595a5950d3223319845217>@@QAE@AAV?$c_string_character_source@D@__crt_strtox@@AADAAPBD@Z 202c97b0 f i libucrtd:atof.obj
 0001:002c87f0       ??0?$c_string_character_source@D@__crt_strtox@@QAE@QBDQAPBD@Z 202c97f0 f i libucrtd:atof.obj
 0001:002c8830       ??0?$c_string_character_source@_W@__crt_strtox@@QAE@QB_WQAPB_W@Z 202c9830 f i libucrtd:atof.obj
 0001:002c8870       ??0_LocaleUpdate@@QAE@QAU__crt_locale_pointers@@@Z 202c9870 f i libucrtd:atof.obj
 0001:002c8980       ??0big_integer@__crt_strtox@@QAE@ABU01@@Z 202c9980 f i libucrtd:atof.obj
 0001:002c89d0       ??0big_integer@__crt_strtox@@QAE@XZ 202c99d0 f i libucrtd:atof.obj
 0001:002c8a10       ??0floating_point_value@__crt_strtox@@QAE@QAM@Z 202c9a10 f i libucrtd:atof.obj
 0001:002c8a70       ??0floating_point_value@__crt_strtox@@QAE@QAN@Z 202c9a70 f i libucrtd:atof.obj
 0001:002c8ad0       ??1?$c_string_character_source@D@__crt_strtox@@QAE@XZ 202c9ad0 f i libucrtd:atof.obj
 0001:002c8b00       ??1?$c_string_character_source@_W@__crt_strtox@@QAE@XZ 202c9b00 f i libucrtd:atof.obj
 0001:002c8b30       ??1_LocaleUpdate@@QAE@XZ   202c9b30 f i libucrtd:atof.obj
 0001:002c8b70       ??4big_integer@__crt_strtox@@QAEAAU01@ABU01@@Z 202c9b70 f i libucrtd:atof.obj
 0001:002c8bc0       ??M__crt_strtox@@YA_NABUbig_integer@0@0@Z 202c9bc0 f i libucrtd:atof.obj
 0001:002c8c70       ??R<lambda_32aa245da1b5b882fa96db788295c8b2>@@QBE@XZ 202c9c70 f i libucrtd:atof.obj
 0001:002c8cd0       ??R<lambda_41cd6f1065410257e3b5bd447328b23e>@@QBE@XZ 202c9cd0 f i libucrtd:atof.obj
 0001:002c8d30       ??R<lambda_690cf26ff5d754c94c32cf642e9f01bc>@@QBE@XZ 202c9d30 f i libucrtd:atof.obj
 0001:002c8d90       ??R<lambda_cbd1988beab104251e16e78b336a674a>@@QBE@XZ 202c9d90 f i libucrtd:atof.obj
 0001:002c8df0       ??R<lambda_e128a58a467199df1f46ac2193393add>@@QBE@XZ 202c9df0 f i libucrtd:atof.obj
 0001:002c8e50       ??R<lambda_e51f7abad2595a5950d3223319845217>@@QBE@XZ 202c9e50 f i libucrtd:atof.obj
 0001:002c8eb0       ?GetLocaleT@_LocaleUpdate@@QAEPAU__crt_locale_pointers@@XZ 202c9eb0 f i libucrtd:atof.obj
 0001:002c8ed0       ?accumulate_decimal_digits_into_big_integer@__crt_strtox@@YAXQBE0AAUbig_integer@1@@Z 202c9ed0 f i libucrtd:atof.obj
 0001:002c8fb0       ?add@__crt_strtox@@YA_NAAUbig_integer@1@I@Z 202c9fb0 f i libucrtd:atof.obj
 0001:002c90f0       ?add_carry@__crt_strtox@@YAIAAIII@Z 202ca0f0 f i libucrtd:atof.obj
 0001:002c9140       ?add_multiply_carry@__crt_strtox@@YAIAAIIII@Z 202ca140 f i libucrtd:atof.obj
 0001:002c9190       ?as_double@floating_point_value@__crt_strtox@@QBEAANXZ 202ca190 f i libucrtd:atof.obj
 0001:002c9220       ?as_float@floating_point_value@__crt_strtox@@QBEAAMXZ 202ca220 f i libucrtd:atof.obj
 0001:002c92b0       ?assemble_floating_point_infinity@__crt_strtox@@YAX_NABVfloating_point_value@1@@Z 202ca2b0 f i libucrtd:atof.obj
 0001:002c9310       ?assemble_floating_point_value@__crt_strtox@@YA?AW4SLD_STATUS@@_KH_N1ABVfloating_point_value@1@@Z 202ca310 f i libucrtd:atof.obj
 0001:002c9610       ?assemble_floating_point_value_from_big_integer@__crt_strtox@@YA?AW4SLD_STATUS@@ABUbig_integer@1@I_N1ABVfloating_point_value@1@@Z 202ca610 f i libucrtd:atof.obj
 0001:002c99e0       ?assemble_floating_point_zero@__crt_strtox@@YAX_NABVfloating_point_value@1@@Z 202ca9e0 f i libucrtd:atof.obj
 0001:002c9a40       ?bit_scan_reverse@__crt_strtox@@YAIABUbig_integer@1@@Z 202caa40 f i libucrtd:atof.obj
 0001:002c9a90       ?bit_scan_reverse@__crt_strtox@@YAII@Z 202caa90 f i libucrtd:atof.obj
 0001:002c9ad0       ?bit_scan_reverse@__crt_strtox@@YAI_K@Z 202caad0 f i libucrtd:atof.obj
 0001:002c9b30       ?convert_decimal_string_to_floating_type_common@__crt_strtox@@YA?AW4SLD_STATUS@@ABUfloating_point_string@1@ABVfloating_point_value@1@@Z 202cab30 f i libucrtd:atof.obj
 0001:002ca330       ?convert_hexadecimal_string_to_floating_type_common@__crt_strtox@@YA?AW4SLD_STATUS@@ABUfloating_point_string@1@ABVfloating_point_value@1@@Z 202cb330 f i libucrtd:atof.obj
 0001:002ca4a0       ?count_sequential_high_zeroes@__crt_strtox@@YAII@Z 202cb4a0 f i libucrtd:atof.obj
 0001:002ca4f0       ?denormal_mantissa_mask@floating_point_value@__crt_strtox@@QBE_KXZ 202cb4f0 f i libucrtd:atof.obj
 0001:002ca540       ?divide@__crt_strtox@@YA_KAAUbig_integer@1@ABU21@@Z 202cb540 f i libucrtd:atof.obj
 0001:002cb240       ?exponent_bias@floating_point_value@__crt_strtox@@QBEHXZ 202cc240 f i libucrtd:atof.obj
 0001:002cb280       ?get@?$c_string_character_source@D@__crt_strtox@@QAEDXZ 202cc280 f i libucrtd:atof.obj
 0001:002cb2c0       ?get@?$c_string_character_source@_W@__crt_strtox@@QAE_WXZ 202cc2c0 f i libucrtd:atof.obj
 0001:002cb300       ?is_digit_or_nondigit@__crt_strtox@@YA_NH@Z 202cc300 f i libucrtd:atof.obj
 0001:002cb360       ?is_double@floating_point_value@__crt_strtox@@QBE_NXZ 202cc360 f i libucrtd:atof.obj
 0001:002cb380       ?is_space@__crt_strtox@@YA_NDQAU__crt_locale_pointers@@@Z 202cc380 f i libucrtd:atof.obj
 0001:002cb3d0       ?is_space@__crt_strtox@@YA_N_WPAU__crt_locale_pointers@@@Z 202cc3d0 f i libucrtd:atof.obj
 0001:002cb410       ?make_big_integer@__crt_strtox@@YA?AUbig_integer@1@_K@Z 202cc410 f i libucrtd:atof.obj
 0001:002cb4e0       ?mantissa_bits@floating_point_value@__crt_strtox@@QBEHXZ 202cc4e0 f i libucrtd:atof.obj
 0001:002cb520       ?maximum_binary_exponent@floating_point_value@__crt_strtox@@QBEHXZ 202cc520 f i libucrtd:atof.obj
 0001:002cb560       ?minimum_binary_exponent@floating_point_value@__crt_strtox@@QBEHXZ 202cc560 f i libucrtd:atof.obj
 0001:002cb5a0       ?multiply@__crt_strtox@@YA_NAAUbig_integer@1@ABU21@@Z 202cc5a0 f i libucrtd:atof.obj
 0001:002cba00       ?multiply@__crt_strtox@@YA_NAAUbig_integer@1@I@Z 202cca00 f i libucrtd:atof.obj
 0001:002cbb00       ?multiply_64_32@__crt_strtox@@YA_K_KI@Z 202ccb00 f i libucrtd:atof.obj
 0001:002cbb20       ?multiply_by_power_of_ten@__crt_strtox@@YA_NAAUbig_integer@1@I@Z 202ccb20 f i libucrtd:atof.obj
 0001:002cbd20       ?multiply_core@__crt_strtox@@YAIQAIII@Z 202ccd20 f i libucrtd:atof.obj
 0001:002cbda0       ?normal_mantissa_mask@floating_point_value@__crt_strtox@@QBE_KXZ 202ccda0 f i libucrtd:atof.obj
 0001:002cbdf0       ?parse_digit@__crt_strtox@@YAID@Z 202ccdf0 f i libucrtd:atof.obj
 0001:002cbe70       ?parse_digit@__crt_strtox@@YAI_W@Z 202cce70 f i libucrtd:atof.obj
 0001:002cbed0       ?restore_state@?$c_string_character_source@D@__crt_strtox@@QAE_NQBD@Z 202cced0 f i libucrtd:atof.obj
 0001:002cbef0       ?restore_state@?$c_string_character_source@_W@__crt_strtox@@QAE_NQB_W@Z 202ccef0 f i libucrtd:atof.obj
 0001:002cbf10       ?right_shift_with_rounding@__crt_strtox@@YA_K_N_KI0@Z 202ccf10 f i libucrtd:atof.obj
 0001:002cc090       ?save_state@?$c_string_character_source@D@__crt_strtox@@QBEPBDXZ 202cd090 f i libucrtd:atof.obj
 0001:002cc0b0       ?save_state@?$c_string_character_source@_W@__crt_strtox@@QBEPB_WXZ 202cd0b0 f i libucrtd:atof.obj
 0001:002cc0d0       ?shift_left@__crt_strtox@@YA_NAAUbig_integer@1@I@Z 202cd0d0 f i libucrtd:atof.obj
 0001:002cc470       ?should_round_up@__crt_strtox@@YA_N_N000@Z 202cd470 f i libucrtd:atof.obj
 0001:002cc5a0       ?unget@?$c_string_character_source@D@__crt_strtox@@QAEXD@Z 202cd5a0 f i libucrtd:atof.obj
 0001:002cc670       ?unget@?$c_string_character_source@_W@__crt_strtox@@QAEX_W@Z 202cd670 f i libucrtd:atof.obj
 0001:002cc740       ?validate@?$c_string_character_source@D@__crt_strtox@@QBE_NXZ 202cd740 f i libucrtd:atof.obj
 0001:002cc800       ?validate@?$c_string_character_source@_W@__crt_strtox@@QBE_NXZ 202cd800 f i libucrtd:atof.obj
 0001:002cc8c0       ?wide_character_to_digit@__crt_strtox@@YAH_W@Z 202cd8c0 f i libucrtd:atof.obj
 0001:002cccb0       ___acrt_disable_global_locale_sync 202cdcb0 f i libucrtd:atof.obj
 0001:002ccce0       ___acrt_enable_global_locale_sync 202cdce0 f i libucrtd:atof.obj
 0001:002ccd10       ___acrt_get_locale_data_prefix 202cdd10 f i libucrtd:atof.obj
 0001:002ccd30       ___acrt_locale_changed     202cdd30 f i libucrtd:atof.obj
 0001:002ccd60       ___ascii_iswalpha          202cdd60 f i libucrtd:atof.obj
 0001:002ccdb0       ___ascii_toupper           202cddb0 f i libucrtd:atof.obj
 0001:002ccde0       ___ascii_towupper          202cdde0 f i libucrtd:atof.obj
 0001:002cce00       __atodbl                   202cde00 f   libucrtd:atof.obj
 0001:002cce20       __atodbl_l                 202cde20 f   libucrtd:atof.obj
 0001:002cce50       __atof_l                   202cde50 f   libucrtd:atof.obj
 0001:002cce70       __atoflt                   202cde70 f   libucrtd:atof.obj
 0001:002cce90       __atoflt_l                 202cde90 f   libucrtd:atof.obj
 0001:002ccec0       __chvalidchk_l             202cdec0 f i libucrtd:atof.obj
 0001:002ccef0       __ischartype_l             202cdef0 f i libucrtd:atof.obj
 0001:002ccf90       __wtof                     202cdf90 f   libucrtd:atof.obj
 0001:002ccfb0       __wtof_l                   202cdfb0 f   libucrtd:atof.obj
 0001:002ccfd0       _atof                      202cdfd0 f   libucrtd:atof.obj
 0001:002cd140       _strcpy                    202ce140 f   libucrtd:strcat.obj
 0001:002cd150       _strcat                    202ce150 f   libucrtd:strcat.obj
 0001:002cd280       _strlen                    202ce280 f   libucrtd:strlen.obj
 0001:002cd330       ??$is_overflow_condition@K@__crt_strtox@@YA_NIK@Z 202ce330 f i libucrtd:atox.obj
 0001:002cd3a0       ??$is_overflow_condition@_K@__crt_strtox@@YA_NI_K@Z 202ce3a0 f i libucrtd:atox.obj
 0001:002cd450       ??$parse_integer@KV?$c_string_character_source@D@__crt_strtox@@$00@__crt_strtox@@YAKAAV__crt_cached_ptd_host@@V?$c_string_character_source@D@0@H_N@Z 202ce450 f i libucrtd:atox.obj
 0001:002cd890       ??$parse_integer@KV?$c_string_character_source@_W@__crt_strtox@@$00@__crt_strtox@@YAKAAV__crt_cached_ptd_host@@V?$c_string_character_source@_W@0@H_N@Z 202ce890 f i libucrtd:atox.obj
 0001:002cdcd0       ??$parse_integer@_KV?$c_string_character_source@D@__crt_strtox@@$00@__crt_strtox@@YA_KAAV__crt_cached_ptd_host@@V?$c_string_character_source@D@0@H_N@Z 202cecd0 f i libucrtd:atox.obj
 0001:002ce1b0       ??$parse_integer@_KV?$c_string_character_source@_W@__crt_strtox@@$00@__crt_strtox@@YA_KAAV__crt_cached_ptd_host@@V?$c_string_character_source@_W@0@H_N@Z 202cf1b0 f i libucrtd:atox.obj
 0001:002ce6a0       ??$parse_integer_from_string@JD$$T@__crt_strtox@@YAJQBD$$THQAU__crt_locale_pointers@@@Z 202cf6a0 f i libucrtd:atox.obj
 0001:002ce710       ??$parse_integer_from_string@J_W$$T@__crt_strtox@@YAJQB_W$$THQAU__crt_locale_pointers@@@Z 202cf710 f i libucrtd:atox.obj
 0001:002ce780       ??$parse_integer_from_string@_JD$$T@__crt_strtox@@YA_JQBD$$THQAU__crt_locale_pointers@@@Z 202cf780 f i libucrtd:atox.obj
 0001:002ce7f0       ??$parse_integer_from_string@_J_W$$T@__crt_strtox@@YA_JQB_W$$THQAU__crt_locale_pointers@@@Z 202cf7f0 f i libucrtd:atox.obj
 0001:002ce860       ??0?$cached@H@__crt_cached_ptd_host@@QAE@XZ 202cf860 f i libucrtd:atox.obj
 0001:002ce880       ??0?$cached@K@__crt_cached_ptd_host@@QAE@XZ 202cf880 f i libucrtd:atox.obj
 0001:002ce8a0       ??0__crt_cached_ptd_host@@QAE@QAU__crt_locale_pointers@@@Z 202cf8a0 f i libucrtd:atox.obj
 0001:002ce950       ??0__crt_scoped_get_last_error_reset@@QAE@XZ 202cf950 f i libucrtd:atox.obj
 0001:002ce980       ??1__crt_cached_ptd_host@@QAE@XZ 202cf980 f i libucrtd:atox.obj
 0001:002cea30       ??1__crt_scoped_get_last_error_reset@@QAE@XZ 202cfa30 f i libucrtd:atox.obj
 0001:002cea50       ?check_synchronize_global_state_index@__crt_cached_ptd_host@@AAEIABV__crt_scoped_get_last_error_reset@@@Z 202cfa50 f i libucrtd:atox.obj
 0001:002cea90       ?check_synchronize_per_thread_data@__crt_cached_ptd_host@@AAEPAU__acrt_ptd@@XZ 202cfa90 f i libucrtd:atox.obj
 0001:002cead0       ?force_synchronize_global_state_index@__crt_cached_ptd_host@@AAEIABV__crt_scoped_get_last_error_reset@@@Z 202cfad0 f i libucrtd:atox.obj
 0001:002ceb10       ?force_synchronize_per_thread_data@__crt_cached_ptd_host@@AAEPAU__acrt_ptd@@XZ 202cfb10 f i libucrtd:atox.obj
 0001:002ceb70       ?get_current_state_index@__crt_state_management@@YAIABV__crt_scoped_get_last_error_reset@@@Z 202cfb70 f i libucrtd:atox.obj
 0001:002ceb80       ?get_errno@__crt_cached_ptd_host@@QAE@XZ 202cfb80 f i libucrtd:atox.obj
 0001:002ceba0       ?get_locale@__crt_cached_ptd_host@@QAEPAU__crt_locale_pointers@@XZ 202cfba0 f i libucrtd:atox.obj
 0001:002cebd0       ?get_raw_ptd@__crt_cached_ptd_host@@QAEPAU__acrt_ptd@@XZ 202cfbd0 f i libucrtd:atox.obj
 0001:002cebf0       ?maximum_signed_value@__crt_strtox@@YAJK@Z 202cfbf0 f i libucrtd:atox.obj
 0001:002cec00       ?maximum_signed_value@__crt_strtox@@YA_J_K@Z 202cfc00 f i libucrtd:atox.obj
 0001:002cec20       ?minimum_signed_value@__crt_strtox@@YAJK@Z 202cfc20 f i libucrtd:atox.obj
 0001:002cec30       ?minimum_signed_value@__crt_strtox@@YA_J_K@Z 202cfc30 f i libucrtd:atox.obj
 0001:002cec50       ?set@?$cached@H@__crt_cached_ptd_host@@QAEHH@Z 202cfc50 f i libucrtd:atox.obj
 0001:002cec80       ?unsafe_value@?$cached@H@__crt_cached_ptd_host@@QAEHXZ 202cfc80 f i libucrtd:atox.obj
 0001:002ceca0       ?unsafe_value@?$cached@K@__crt_cached_ptd_host@@QAEKXZ 202cfca0 f i libucrtd:atox.obj
 0001:002cecc0       ?update_locale@__crt_cached_ptd_host@@AAEXXZ 202cfcc0 f i libucrtd:atox.obj
 0001:002cecf0       ?update_locale_slow@__crt_cached_ptd_host@@AAEXXZ 202cfcf0 f i libucrtd:atox.obj
 0001:002ceda0       ?valid@?$cached@H@__crt_cached_ptd_host@@QBE_NXZ 202cfda0 f i libucrtd:atox.obj
 0001:002cedc0       ?valid@?$cached@K@__crt_cached_ptd_host@@QBE_NXZ 202cfdc0 f i libucrtd:atox.obj
 0001:002cede0       __atoi64                   202cfde0 f   libucrtd:atox.obj
 0001:002cee00       __atoi64_l                 202cfe00 f   libucrtd:atox.obj
 0001:002cee30       __atoi_l                   202cfe30 f   libucrtd:atox.obj
 0001:002cee60       __atol_l                   202cfe60 f   libucrtd:atox.obj
 0001:002cee90       __atoll_l                  202cfe90 f   libucrtd:atox.obj
 0001:002ceec0       __wtoi                     202cfec0 f   libucrtd:atox.obj
 0001:002ceee0       __wtoi64                   202cfee0 f   libucrtd:atox.obj
 0001:002cef00       __wtoi64_l                 202cff00 f   libucrtd:atox.obj
 0001:002cef30       __wtoi_l                   202cff30 f   libucrtd:atox.obj
 0001:002cef60       __wtol                     202cff60 f   libucrtd:atox.obj
 0001:002cef80       __wtol_l                   202cff80 f   libucrtd:atox.obj
 0001:002cefb0       __wtoll                    202cffb0 f   libucrtd:atox.obj
 0001:002cefd0       __wtoll_l                  202cffd0 f   libucrtd:atox.obj
 0001:002cf000       _atoi                      202d0000 f   libucrtd:atox.obj
 0001:002cf020       _atol                      202d0020 f   libucrtd:atox.obj
 0001:002cf040       _atoll                     202d0040 f   libucrtd:atox.obj
 0001:002cf060       ??$__crt_interlocked_read@J@@YAJPDJ@Z 202d0060 f i libucrtd:assert.obj
 0001:002d1250       ??$ftprintf@PAU_iobuf@@PBDABQBDABQBDABI@?$__crt_char_traits@D@@SAH$$QAPAU_iobuf@@$$QAPBDABQBD2ABI@Z 202d2250 f i libucrtd:assert.obj
 0001:002d1290       ??$ftprintf@PAU_iobuf@@PB_WABQB_WABQB_WABI@?$__crt_char_traits@_W@@SAH$$QAPAU_iobuf@@$$QAPB_WABQB_W2ABI@Z 202d2290 f i libucrtd:assert.obj
 0001:002d12d0       ??$get_module_file_name@AAPAUHINSTANCE__@@AAY0BAF@DK@?$__crt_char_traits@D@@SAKAAPAUHINSTANCE__@@AAY0BAF@D$$QAK@Z 202d22d0 f i libucrtd:assert.obj
 0001:002d1300       ??$get_module_file_name@AAPAUHINSTANCE__@@AAY0BAF@_WK@?$__crt_char_traits@_W@@SAKAAPAUHINSTANCE__@@AAY0BAF@_W$$QAK@Z 202d2300 f i libucrtd:assert.obj
 0001:002d1330       ??$itot_s@ABIPADIH@?$__crt_char_traits@D@@SAHABI$$QAPAD$$QAI$$QAH@Z 202d2330 f i libucrtd:assert.obj
 0001:002d1360       ??$itot_s@ABIPA_WIH@?$__crt_char_traits@_W@@SAHABI$$QAPA_W$$QAI$$QAH@Z 202d2360 f i libucrtd:assert.obj
 0001:002d1390       ??$show_message_box@AAY0CEA@DPBDJ@?$__crt_char_traits@D@@SAHAAY0CEA@D$$QAPBD$$QAJ@Z 202d2390 f i libucrtd:assert.obj
 0001:002d13c0       ??$show_message_box@AAY0CEA@_WPB_WJ@?$__crt_char_traits@_W@@SAHAAY0CEA@_W$$QAPB_W$$QAJ@Z 202d23c0 f i libucrtd:assert.obj
 0001:002d13f0       ??$tcscat_s@ABQADABIAAPAD@?$__crt_char_traits@D@@SAHABQADABIAAPAD@Z 202d23f0 f i libucrtd:assert.obj
 0001:002d1420       ??$tcscat_s@ABQADABIABQBD@?$__crt_char_traits@D@@SAHABQADABIABQBD@Z 202d2420 f i libucrtd:assert.obj
 0001:002d1450       ??$tcscat_s@ABQADABIPBD@?$__crt_char_traits@D@@SAHABQADABI$$QAPBD@Z 202d2450 f i libucrtd:assert.obj
 0001:002d1480       ??$tcscat_s@ABQA_WABIAAPA_W@?$__crt_char_traits@_W@@SAHABQA_WABIAAPA_W@Z 202d2480 f i libucrtd:assert.obj
 0001:002d14b0       ??$tcscat_s@ABQA_WABIABQB_W@?$__crt_char_traits@_W@@SAHABQA_WABIABQB_W@Z 202d24b0 f i libucrtd:assert.obj
 0001:002d14e0       ??$tcscat_s@ABQA_WABIPB_W@?$__crt_char_traits@_W@@SAHABQA_WABI$$QAPB_W@Z 202d24e0 f i libucrtd:assert.obj
 0001:002d1510       ??$tcscpy_s@AAY0BAF@DIPBD@?$__crt_char_traits@D@@SAHAAY0BAF@D$$QAI$$QAPBD@Z 202d2510 f i libucrtd:assert.obj
 0001:002d1540       ??$tcscpy_s@AAY0BAF@_WIPB_W@?$__crt_char_traits@_W@@SAHAAY0BAF@_W$$QAI$$QAPB_W@Z 202d2540 f i libucrtd:assert.obj
 0001:002d1570       ??$tcscpy_s@ABQADABIPBD@?$__crt_char_traits@D@@SAHABQADABI$$QAPBD@Z 202d2570 f i libucrtd:assert.obj
 0001:002d15a0       ??$tcscpy_s@ABQA_WABIPB_W@?$__crt_char_traits@_W@@SAHABQA_WABI$$QAPB_W@Z 202d25a0 f i libucrtd:assert.obj
 0001:002d15d0       ??$tcslen@AAY0BAF@D@?$__crt_char_traits@D@@SAIAAY0BAF@D@Z 202d25d0 f i libucrtd:assert.obj
 0001:002d15f0       ??$tcslen@AAY0BAF@_W@?$__crt_char_traits@_W@@SAIAAY0BAF@_W@Z 202d25f0 f i libucrtd:assert.obj
 0001:002d1610       ??$tcslen@ABQAD@?$__crt_char_traits@D@@SAIABQAD@Z 202d2610 f i libucrtd:assert.obj
 0001:002d1630       ??$tcslen@ABQA_W@?$__crt_char_traits@_W@@SAIABQA_W@Z 202d2630 f i libucrtd:assert.obj
 0001:002d1650       ??$tcslen@ABQBD@?$__crt_char_traits@D@@SAIABQBD@Z 202d2650 f i libucrtd:assert.obj
 0001:002d1670       ??$tcslen@ABQB_W@?$__crt_char_traits@_W@@SAIABQB_W@Z 202d2670 f i libucrtd:assert.obj
 0001:002d1690       ??$tcsncat_s@ABQADABIAAPBDI@?$__crt_char_traits@D@@SAHABQADABIAAPBD$$QAI@Z 202d2690 f i libucrtd:assert.obj
 0001:002d16c0       ??$tcsncat_s@ABQADABIABQBDABI@?$__crt_char_traits@D@@SAHABQADABIABQBD1@Z 202d26c0 f i libucrtd:assert.obj
 0001:002d16f0       ??$tcsncat_s@ABQADABIPBDI@?$__crt_char_traits@D@@SAHABQADABI$$QAPBD$$QAI@Z 202d26f0 f i libucrtd:assert.obj
 0001:002d1720       ??$tcsncat_s@ABQA_WABIAAPB_WI@?$__crt_char_traits@_W@@SAHABQA_WABIAAPB_W$$QAI@Z 202d2720 f i libucrtd:assert.obj
 0001:002d1750       ??$tcsncat_s@ABQA_WABIABQB_WABI@?$__crt_char_traits@_W@@SAHABQA_WABIABQB_W1@Z 202d2750 f i libucrtd:assert.obj
 0001:002d1780       ??$tcsncat_s@ABQA_WABIPB_WI@?$__crt_char_traits@_W@@SAHABQA_WABI$$QAPB_W$$QAI@Z 202d2780 f i libucrtd:assert.obj
 0001:002d17b0       ??0__crt_stdio_stream@@QAE@QAU_iobuf@@@Z 202d27b0 f i libucrtd:assert.obj
 0001:002d19e0       ?get_flags@__crt_stdio_stream@@QBEJXZ 202d29e0 f i libucrtd:assert.obj
 0001:002d1ad0       ?has_any_buffer@__crt_stdio_stream@@QBE_NXZ 202d2ad0 f i libucrtd:assert.obj
 0001:002d1af0       ?has_any_of@__crt_stdio_stream@@QBE_NJ@Z 202d2af0 f i libucrtd:assert.obj
 0001:002d1b30       __assert                   202d2b30 f   libucrtd:assert.obj
 0001:002d1b60       __invoke_watson_if_error   202d2b60 f i libucrtd:assert.obj
 0001:002d1ba0       __vfprintf_l               202d2ba0 f i libucrtd:assert.obj
 0001:002d1be0       __vfwprintf_l              202d2be0 f i libucrtd:assert.obj
 0001:002d1c20       __vswprintf_c_l            202d2c20 f i libucrtd:assert.obj
 0001:002d1c90       __wassert                  202d2c90 f   libucrtd:assert.obj
 0001:002d1cc0       _fprintf                   202d2cc0 f i libucrtd:assert.obj
 0001:002d1d10       _fwprintf                  202d2d10 f i libucrtd:assert.obj
 0001:002d1eb0       _swprintf                  202d2eb0 f i libucrtd:assert.obj
 0001:002d1f00       ??$?0ABV?$stream_output_adapter@D@__crt_stdio_output@@AB_KABQBDAAV__crt_cached_ptd_host@@ABQAD@?$format_validation_base@DV?$stream_output_adapter@D@__crt_stdio_output@@@__crt_stdio_output@@IAE@ABV?$stream_output_adapter@D@1@AB_KABQBDAAV__crt_cached_ptd_host@@ABQAD@Z 202d2f00 f i libucrtd:output.obj
 0001:002d1f40       ??$?0ABV?$stream_output_adapter@D@__crt_stdio_output@@AB_KABQBDAAV__crt_cached_ptd_host@@ABQAD@?$positional_parameter_base@DV?$stream_output_adapter@D@__crt_stdio_output@@@__crt_stdio_output@@IAE@ABV?$stream_output_adapter@D@1@AB_KABQBDAAV__crt_cached_ptd_host@@ABQAD@Z 202d2f40 f i libucrtd:output.obj
 0001:002d1fd0       ??$?0ABV?$stream_output_adapter@D@__crt_stdio_output@@AB_KABQBDAAV__crt_cached_ptd_host@@ABQAD@?$standard_base@DV?$stream_output_adapter@D@__crt_stdio_output@@@__crt_stdio_output@@IAE@ABV?$stream_output_adapter@D@1@AB_KABQBDAAV__crt_cached_ptd_host@@ABQAD@Z 202d2fd0 f i libucrtd:output.obj
 0001:002d2030       ??$?0ABV?$stream_output_adapter@_W@__crt_stdio_output@@AB_KABQB_WAAV__crt_cached_ptd_host@@ABQAD@?$format_validation_base@_WV?$stream_output_adapter@_W@__crt_stdio_output@@@__crt_stdio_output@@IAE@ABV?$stream_output_adapter@_W@1@AB_KABQB_WAAV__crt_cached_ptd_host@@ABQAD@Z 202d3030 f i libucrtd:output.obj
 0001:002d2070       ??$?0ABV?$stream_output_adapter@_W@__crt_stdio_output@@AB_KABQB_WAAV__crt_cached_ptd_host@@ABQAD@?$positional_parameter_base@_WV?$stream_output_adapter@_W@__crt_stdio_output@@@__crt_stdio_output@@IAE@ABV?$stream_output_adapter@_W@1@AB_KABQB_WAAV__crt_cached_ptd_host@@ABQAD@Z 202d3070 f i libucrtd:output.obj
 0001:002d2100       ??$?0ABV?$stream_output_adapter@_W@__crt_stdio_output@@AB_KABQB_WAAV__crt_cached_ptd_host@@ABQAD@?$standard_base@_WV?$stream_output_adapter@_W@__crt_stdio_output@@@__crt_stdio_output@@IAE@ABV?$stream_output_adapter@_W@1@AB_KABQB_WAAV__crt_cached_ptd_host@@ABQAD@Z 202d3100 f i libucrtd:output.obj
 0001:002d2160       ??$?0ABV?$string_output_adapter@D@__crt_stdio_output@@AB_KABQBDAAV__crt_cached_ptd_host@@ABQAD@?$format_validation_base@DV?$string_output_adapter@D@__crt_stdio_output@@@__crt_stdio_output@@IAE@ABV?$string_output_adapter@D@1@AB_KABQBDAAV__crt_cached_ptd_host@@ABQAD@Z 202d3160 f i libucrtd:output.obj
 0001:002d21a0       ??$?0ABV?$string_output_adapter@D@__crt_stdio_output@@AB_KABQBDAAV__crt_cached_ptd_host@@ABQAD@?$positional_parameter_base@DV?$string_output_adapter@D@__crt_stdio_output@@@__crt_stdio_output@@IAE@ABV?$string_output_adapter@D@1@AB_KABQBDAAV__crt_cached_ptd_host@@ABQAD@Z 202d31a0 f i libucrtd:output.obj
 0001:002d2230       ??$?0ABV?$string_output_adapter@D@__crt_stdio_output@@AB_KABQBDAAV__crt_cached_ptd_host@@ABQAD@?$standard_base@DV?$string_output_adapter@D@__crt_stdio_output@@@__crt_stdio_output@@IAE@ABV?$string_output_adapter@D@1@AB_KABQBDAAV__crt_cached_ptd_host@@ABQAD@Z 202d3230 f i libucrtd:output.obj
 0001:002d2290       ??$?0ABV?$string_output_adapter@_W@__crt_stdio_output@@AB_KABQB_WAAV__crt_cached_ptd_host@@ABQAD@?$format_validation_base@_WV?$string_output_adapter@_W@__crt_stdio_output@@@__crt_stdio_output@@IAE@ABV?$string_output_adapter@_W@1@AB_KABQB_WAAV__crt_cached_ptd_host@@ABQAD@Z 202d3290 f i libucrtd:output.obj
 0001:002d22d0       ??$?0ABV?$string_output_adapter@_W@__crt_stdio_output@@AB_KABQB_WAAV__crt_cached_ptd_host@@ABQAD@?$positional_parameter_base@_WV?$string_output_adapter@_W@__crt_stdio_output@@@__crt_stdio_output@@IAE@ABV?$string_output_adapter@_W@1@AB_KABQB_WAAV__crt_cached_ptd_host@@ABQAD@Z 202d32d0 f i libucrtd:output.obj
 0001:002d2360       ??$?0ABV?$string_output_adapter@_W@__crt_stdio_output@@AB_KABQB_WAAV__crt_cached_ptd_host@@ABQAD@?$standard_base@_WV?$string_output_adapter@_W@__crt_stdio_output@@@__crt_stdio_output@@IAE@ABV?$string_output_adapter@_W@1@AB_KABQB_WAAV__crt_cached_ptd_host@@ABQAD@Z 202d3360 f i libucrtd:output.obj
 0001:002d2b40       ??$_tcstol_internal@DPAPAD$0A@@@YAJAAV__crt_cached_ptd_host@@QBDQAPADH@Z 202d3b40 f i libucrtd:output.obj
 0001:002d2b90       ??$_tcstol_internal@_WPAPA_W$0A@@@YAJAAV__crt_cached_ptd_host@@QB_WQAPA_WH@Z 202d3b90 f i libucrtd:output.obj
 0001:002d6730       ??$count@D@formatting_buffer@__crt_stdio_output@@QBEIXZ 202d7730 f i libucrtd:output.obj
 0001:002d6780       ??$count@_W@formatting_buffer@__crt_stdio_output@@QBEIXZ 202d7780 f i libucrtd:output.obj
 0001:002d67d0       ??$data@D@formatting_buffer@__crt_stdio_output@@QAEPADXZ 202d77d0 f i libucrtd:output.obj
 0001:002d6820       ??$data@_W@formatting_buffer@__crt_stdio_output@@QAEPA_WXZ 202d7820 f i libucrtd:output.obj
 0001:002d6870       ??$ensure_buffer_is_big_enough@D@formatting_buffer@__crt_stdio_output@@QAE_NIAAV__crt_cached_ptd_host@@@Z 202d7870 f i libucrtd:output.obj
 0001:002d69a0       ??$ensure_buffer_is_big_enough@_W@formatting_buffer@__crt_stdio_output@@QAE_NIAAV__crt_cached_ptd_host@@@Z 202d79a0 f i libucrtd:output.obj
 0001:002d6ad0       ??$extract_argument_from_va_list@C_J@?$positional_parameter_base@DV?$stream_output_adapter@D@__crt_stdio_output@@@__crt_stdio_output@@IAE_NAA_J@Z 202d7ad0 f i libucrtd:output.obj
 0001:002d6c90       ??$extract_argument_from_va_list@C_J@?$positional_parameter_base@DV?$string_output_adapter@D@__crt_stdio_output@@@__crt_stdio_output@@IAE_NAA_J@Z 202d7c90 f i libucrtd:output.obj
 0001:002d6e50       ??$extract_argument_from_va_list@C_J@?$positional_parameter_base@_WV?$stream_output_adapter@_W@__crt_stdio_output@@@__crt_stdio_output@@IAE_NAA_J@Z 202d7e50 f i libucrtd:output.obj
 0001:002d7010       ??$extract_argument_from_va_list@C_J@?$positional_parameter_base@_WV?$string_output_adapter@_W@__crt_stdio_output@@@__crt_stdio_output@@IAE_NAA_J@Z 202d8010 f i libucrtd:output.obj
 0001:002d71d0       ??$extract_argument_from_va_list@C_J@?$standard_base@DV?$stream_output_adapter@D@__crt_stdio_output@@@__crt_stdio_output@@IAE_NAA_J@Z 202d81d0 f i libucrtd:output.obj
 0001:002d7210       ??$extract_argument_from_va_list@C_J@?$standard_base@DV?$string_output_adapter@D@__crt_stdio_output@@@__crt_stdio_output@@IAE_NAA_J@Z 202d8210 f i libucrtd:output.obj
 0001:002d7250       ??$extract_argument_from_va_list@C_J@?$standard_base@_WV?$stream_output_adapter@_W@__crt_stdio_output@@@__crt_stdio_output@@IAE_NAA_J@Z 202d8250 f i libucrtd:output.obj
 0001:002d7290       ??$extract_argument_from_va_list@C_J@?$standard_base@_WV?$string_output_adapter@_W@__crt_stdio_output@@@__crt_stdio_output@@IAE_NAA_J@Z 202d8290 f i libucrtd:output.obj
 0001:002d72d0       ??$extract_argument_from_va_list@E_J@?$positional_parameter_base@DV?$stream_output_adapter@D@__crt_stdio_output@@@__crt_stdio_output@@IAE_NAA_J@Z 202d82d0 f i libucrtd:output.obj
 0001:002d7490       ??$extract_argument_from_va_list@E_J@?$positional_parameter_base@DV?$string_output_adapter@D@__crt_stdio_output@@@__crt_stdio_output@@IAE_NAA_J@Z 202d8490 f i libucrtd:output.obj
 0001:002d7650       ??$extract_argument_from_va_list@E_J@?$positional_parameter_base@_WV?$stream_output_adapter@_W@__crt_stdio_output@@@__crt_stdio_output@@IAE_NAA_J@Z 202d8650 f i libucrtd:output.obj
 0001:002d7810       ??$extract_argument_from_va_list@E_J@?$positional_parameter_base@_WV?$string_output_adapter@_W@__crt_stdio_output@@@__crt_stdio_output@@IAE_NAA_J@Z 202d8810 f i libucrtd:output.obj
 0001:002d79d0       ??$extract_argument_from_va_list@E_J@?$standard_base@DV?$stream_output_adapter@D@__crt_stdio_output@@@__crt_stdio_output@@IAE_NAA_J@Z 202d89d0 f i libucrtd:output.obj
 0001:002d7a10       ??$extract_argument_from_va_list@E_J@?$standard_base@DV?$string_output_adapter@D@__crt_stdio_output@@@__crt_stdio_output@@IAE_NAA_J@Z 202d8a10 f i libucrtd:output.obj
 0001:002d7a50       ??$extract_argument_from_va_list@E_J@?$standard_base@_WV?$stream_output_adapter@_W@__crt_stdio_output@@@__crt_stdio_output@@IAE_NAA_J@Z 202d8a50 f i libucrtd:output.obj
 0001:002d7a90       ??$extract_argument_from_va_list@E_J@?$standard_base@_WV?$string_output_adapter@_W@__crt_stdio_output@@@__crt_stdio_output@@IAE_NAA_J@Z 202d8a90 f i libucrtd:output.obj
 0001:002d7ad0       ??$extract_argument_from_va_list@F_J@?$positional_parameter_base@DV?$stream_output_adapter@D@__crt_stdio_output@@@__crt_stdio_output@@IAE_NAA_J@Z 202d8ad0 f i libucrtd:output.obj
 0001:002d7c90       ??$extract_argument_from_va_list@F_J@?$positional_parameter_base@DV?$string_output_adapter@D@__crt_stdio_output@@@__crt_stdio_output@@IAE_NAA_J@Z 202d8c90 f i libucrtd:output.obj
 0001:002d7e50       ??$extract_argument_from_va_list@F_J@?$positional_parameter_base@_WV?$stream_output_adapter@_W@__crt_stdio_output@@@__crt_stdio_output@@IAE_NAA_J@Z 202d8e50 f i libucrtd:output.obj
 0001:002d8010       ??$extract_argument_from_va_list@F_J@?$positional_parameter_base@_WV?$string_output_adapter@_W@__crt_stdio_output@@@__crt_stdio_output@@IAE_NAA_J@Z 202d9010 f i libucrtd:output.obj
 0001:002d81d0       ??$extract_argument_from_va_list@F_J@?$standard_base@DV?$stream_output_adapter@D@__crt_stdio_output@@@__crt_stdio_output@@IAE_NAA_J@Z 202d91d0 f i libucrtd:output.obj
 0001:002d8210       ??$extract_argument_from_va_list@F_J@?$standard_base@DV?$string_output_adapter@D@__crt_stdio_output@@@__crt_stdio_output@@IAE_NAA_J@Z 202d9210 f i libucrtd:output.obj
 0001:002d8250       ??$extract_argument_from_va_list@F_J@?$standard_base@_WV?$stream_output_adapter@_W@__crt_stdio_output@@@__crt_stdio_output@@IAE_NAA_J@Z 202d9250 f i libucrtd:output.obj
 0001:002d8290       ??$extract_argument_from_va_list@F_J@?$standard_base@_WV?$string_output_adapter@_W@__crt_stdio_output@@@__crt_stdio_output@@IAE_NAA_J@Z 202d9290 f i libucrtd:output.obj
 0001:002d82d0       ??$extract_argument_from_va_list@GD@?$positional_parameter_base@DV?$stream_output_adapter@D@__crt_stdio_output@@@__crt_stdio_output@@IAE_NAAD@Z 202d92d0 f i libucrtd:output.obj
 0001:002d8480       ??$extract_argument_from_va_list@GD@?$positional_parameter_base@DV?$string_output_adapter@D@__crt_stdio_output@@@__crt_stdio_output@@IAE_NAAD@Z 202d9480 f i libucrtd:output.obj
 0001:002d8630       ??$extract_argument_from_va_list@GD@?$standard_base@DV?$stream_output_adapter@D@__crt_stdio_output@@@__crt_stdio_output@@IAE_NAAD@Z 202d9630 f i libucrtd:output.obj
 0001:002d8660       ??$extract_argument_from_va_list@GD@?$standard_base@DV?$string_output_adapter@D@__crt_stdio_output@@@__crt_stdio_output@@IAE_NAAD@Z 202d9660 f i libucrtd:output.obj
 0001:002d8690       ??$extract_argument_from_va_list@G_J@?$positional_parameter_base@DV?$stream_output_adapter@D@__crt_stdio_output@@@__crt_stdio_output@@IAE_NAA_J@Z 202d9690 f i libucrtd:output.obj
 0001:002d8850       ??$extract_argument_from_va_list@G_J@?$positional_parameter_base@DV?$string_output_adapter@D@__crt_stdio_output@@@__crt_stdio_output@@IAE_NAA_J@Z 202d9850 f i libucrtd:output.obj
 0001:002d8a10       ??$extract_argument_from_va_list@G_J@?$positional_parameter_base@_WV?$stream_output_adapter@_W@__crt_stdio_output@@@__crt_stdio_output@@IAE_NAA_J@Z 202d9a10 f i libucrtd:output.obj
 0001:002d8bd0       ??$extract_argument_from_va_list@G_J@?$positional_parameter_base@_WV?$string_output_adapter@_W@__crt_stdio_output@@@__crt_stdio_output@@IAE_NAA_J@Z 202d9bd0 f i libucrtd:output.obj
 0001:002d8d90       ??$extract_argument_from_va_list@G_J@?$standard_base@DV?$stream_output_adapter@D@__crt_stdio_output@@@__crt_stdio_output@@IAE_NAA_J@Z 202d9d90 f i libucrtd:output.obj
 0001:002d8dd0       ??$extract_argument_from_va_list@G_J@?$standard_base@DV?$string_output_adapter@D@__crt_stdio_output@@@__crt_stdio_output@@IAE_NAA_J@Z 202d9dd0 f i libucrtd:output.obj
 0001:002d8e10       ??$extract_argument_from_va_list@G_J@?$standard_base@_WV?$stream_output_adapter@_W@__crt_stdio_output@@@__crt_stdio_output@@IAE_NAA_J@Z 202d9e10 f i libucrtd:output.obj
 0001:002d8e50       ??$extract_argument_from_va_list@G_J@?$standard_base@_WV?$string_output_adapter@_W@__crt_stdio_output@@@__crt_stdio_output@@IAE_NAA_J@Z 202d9e50 f i libucrtd:output.obj
 0001:002d8e90       ??$extract_argument_from_va_list@H_J@?$positional_parameter_base@DV?$stream_output_adapter@D@__crt_stdio_output@@@__crt_stdio_output@@IAE_NAA_J@Z 202d9e90 f i libucrtd:output.obj
 0001:002d9050       ??$extract_argument_from_va_list@H_J@?$positional_parameter_base@DV?$string_output_adapter@D@__crt_stdio_output@@@__crt_stdio_output@@IAE_NAA_J@Z 202da050 f i libucrtd:output.obj
 0001:002d9210       ??$extract_argument_from_va_list@H_J@?$positional_parameter_base@_WV?$stream_output_adapter@_W@__crt_stdio_output@@@__crt_stdio_output@@IAE_NAA_J@Z 202da210 f i libucrtd:output.obj
 0001:002d93d0       ??$extract_argument_from_va_list@H_J@?$positional_parameter_base@_WV?$string_output_adapter@_W@__crt_stdio_output@@@__crt_stdio_output@@IAE_NAA_J@Z 202da3d0 f i libucrtd:output.obj
 0001:002d9590       ??$extract_argument_from_va_list@H_J@?$standard_base@DV?$stream_output_adapter@D@__crt_stdio_output@@@__crt_stdio_output@@IAE_NAA_J@Z 202da590 f i libucrtd:output.obj
 0001:002d95d0       ??$extract_argument_from_va_list@H_J@?$standard_base@DV?$string_output_adapter@D@__crt_stdio_output@@@__crt_stdio_output@@IAE_NAA_J@Z 202da5d0 f i libucrtd:output.obj
 0001:002d9610       ??$extract_argument_from_va_list@H_J@?$standard_base@_WV?$stream_output_adapter@_W@__crt_stdio_output@@@__crt_stdio_output@@IAE_NAA_J@Z 202da610 f i libucrtd:output.obj
 0001:002d9650       ??$extract_argument_from_va_list@H_J@?$standard_base@_WV?$string_output_adapter@_W@__crt_stdio_output@@@__crt_stdio_output@@IAE_NAA_J@Z 202da650 f i libucrtd:output.obj
 0001:002d9690       ??$extract_argument_from_va_list@I_J@?$positional_parameter_base@DV?$stream_output_adapter@D@__crt_stdio_output@@@__crt_stdio_output@@IAE_NAA_J@Z 202da690 f i libucrtd:output.obj
 0001:002d9850       ??$extract_argument_from_va_list@I_J@?$positional_parameter_base@DV?$string_output_adapter@D@__crt_stdio_output@@@__crt_stdio_output@@IAE_NAA_J@Z 202da850 f i libucrtd:output.obj
 0001:002d9a10       ??$extract_argument_from_va_list@I_J@?$positional_parameter_base@_WV?$stream_output_adapter@_W@__crt_stdio_output@@@__crt_stdio_output@@IAE_NAA_J@Z 202daa10 f i libucrtd:output.obj
 0001:002d9bd0       ??$extract_argument_from_va_list@I_J@?$positional_parameter_base@_WV?$string_output_adapter@_W@__crt_stdio_output@@@__crt_stdio_output@@IAE_NAA_J@Z 202dabd0 f i libucrtd:output.obj
 0001:002d9d90       ??$extract_argument_from_va_list@I_J@?$standard_base@DV?$stream_output_adapter@D@__crt_stdio_output@@@__crt_stdio_output@@IAE_NAA_J@Z 202dad90 f i libucrtd:output.obj
 0001:002d9dd0       ??$extract_argument_from_va_list@I_J@?$standard_base@DV?$string_output_adapter@D@__crt_stdio_output@@@__crt_stdio_output@@IAE_NAA_J@Z 202dadd0 f i libucrtd:output.obj
 0001:002d9e10       ??$extract_argument_from_va_list@I_J@?$standard_base@_WV?$stream_output_adapter@_W@__crt_stdio_output@@@__crt_stdio_output@@IAE_NAA_J@Z 202dae10 f i libucrtd:output.obj
 0001:002d9e50       ??$extract_argument_from_va_list@I_J@?$standard_base@_WV?$string_output_adapter@_W@__crt_stdio_output@@@__crt_stdio_output@@IAE_NAA_J@Z 202dae50 f i libucrtd:output.obj
 0001:002d9e90       ??$extract_argument_from_va_list@PADPAD@?$positional_parameter_base@DV?$stream_output_adapter@D@__crt_stdio_output@@@__crt_stdio_output@@IAE_NAAPAD@Z 202dae90 f i libucrtd:output.obj
 0001:002da040       ??$extract_argument_from_va_list@PADPAD@?$positional_parameter_base@DV?$string_output_adapter@D@__crt_stdio_output@@@__crt_stdio_output@@IAE_NAAPAD@Z 202db040 f i libucrtd:output.obj
 0001:002da1f0       ??$extract_argument_from_va_list@PADPAD@?$positional_parameter_base@_WV?$stream_output_adapter@_W@__crt_stdio_output@@@__crt_stdio_output@@IAE_NAAPAD@Z 202db1f0 f i libucrtd:output.obj
 0001:002da3b0       ??$extract_argument_from_va_list@PADPAD@?$positional_parameter_base@_WV?$string_output_adapter@_W@__crt_stdio_output@@@__crt_stdio_output@@IAE_NAAPAD@Z 202db3b0 f i libucrtd:output.obj
 0001:002da570       ??$extract_argument_from_va_list@PADPAD@?$standard_base@DV?$stream_output_adapter@D@__crt_stdio_output@@@__crt_stdio_output@@IAE_NAAPAD@Z 202db570 f i libucrtd:output.obj
 0001:002da5a0       ??$extract_argument_from_va_list@PADPAD@?$standard_base@DV?$string_output_adapter@D@__crt_stdio_output@@@__crt_stdio_output@@IAE_NAAPAD@Z 202db5a0 f i libucrtd:output.obj
 0001:002da5d0       ??$extract_argument_from_va_list@PADPAD@?$standard_base@_WV?$stream_output_adapter@_W@__crt_stdio_output@@@__crt_stdio_output@@IAE_NAAPAD@Z 202db5d0 f i libucrtd:output.obj
 0001:002da600       ??$extract_argument_from_va_list@PADPAD@?$standard_base@_WV?$string_output_adapter@_W@__crt_stdio_output@@@__crt_stdio_output@@IAE_NAAPAD@Z 202db600 f i libucrtd:output.obj
 0001:002da630       ??$extract_argument_from_va_list@PAUansi_string@?1??type_case_Z@?$output_processor@DV?$stream_output_adapter@D@__crt_stdio_output@@V?$format_validation_base@DV?$stream_output_adapter@D@__crt_stdio_output@@@2@@__crt_stdio_output@@AAE_NXZ@PAU1?1??234@AAE_NXZ@@?$standard_base@DV?$stream_output_adapter@D@__crt_stdio_output@@@__crt_stdio_output@@IAE_NAAPAUansi_string@?1??type_case_Z@?$output_processor@DV?$stream_output_adapter@D@__crt_stdio_output@@V?$format_validation_base@DV?$stream_output_adapter@D@__crt_stdio_output@@@2@@1@AAE_NXZ@@Z 202db630 f i libucrtd:output.obj
 0001:002da660       ??$extract_argument_from_va_list@PAUansi_string@?1??type_case_Z@?$output_processor@DV?$stream_output_adapter@D@__crt_stdio_output@@V?$positional_parameter_base@DV?$stream_output_adapter@D@__crt_stdio_output@@@2@@__crt_stdio_output@@AAE_NXZ@PAU1?1??234@AAE_NXZ@@?$positional_parameter_base@DV?$stream_output_adapter@D@__crt_stdio_output@@@__crt_stdio_output@@IAE_NAAPAUansi_string@?1??type_case_Z@?$output_processor@DV?$stream_output_adapter@D@__crt_stdio_output@@V?$positional_parameter_base@DV?$stream_output_adapter@D@__crt_stdio_output@@@2@@1@AAE_NXZ@@Z 202db660 f i libucrtd:output.obj
 0001:002da810       ??$extract_argument_from_va_list@PAUansi_string@?1??type_case_Z@?$output_processor@DV?$stream_output_adapter@D@__crt_stdio_output@@V?$positional_parameter_base@DV?$stream_output_adapter@D@__crt_stdio_output@@@2@@__crt_stdio_output@@AAE_NXZ@PAU1?1??234@AAE_NXZ@@?$standard_base@DV?$stream_output_adapter@D@__crt_stdio_output@@@__crt_stdio_output@@IAE_NAAPAUansi_string@?1??type_case_Z@?$output_processor@DV?$stream_output_adapter@D@__crt_stdio_output@@V?$positional_parameter_base@DV?$stream_output_adapter@D@__crt_stdio_output@@@2@@1@AAE_NXZ@@Z 202db810 f i libucrtd:output.obj
 0001:002da840       ??$extract_argument_from_va_list@PAUansi_string@?1??type_case_Z@?$output_processor@DV?$stream_output_adapter@D@__crt_stdio_output@@V?$standard_base@DV?$stream_output_adapter@D@__crt_stdio_output@@@2@@__crt_stdio_output@@AAE_NXZ@PAU1?1??234@AAE_NXZ@@?$standard_base@DV?$stream_output_adapter@D@__crt_stdio_output@@@__crt_stdio_output@@IAE_NAAPAUansi_string@?1??type_case_Z@?$output_processor@DV?$stream_output_adapter@D@__crt_stdio_output@@V?$standard_base@DV?$stream_output_adapter@D@__crt_stdio_output@@@2@@1@AAE_NXZ@@Z 202db840 f i libucrtd:output.obj
 0001:002da870       ??$extract_argument_from_va_list@PAUansi_string@?1??type_case_Z@?$output_processor@DV?$string_output_adapter@D@__crt_stdio_output@@V?$format_validation_base@DV?$string_output_adapter@D@__crt_stdio_output@@@2@@__crt_stdio_output@@AAE_NXZ@PAU1?1??234@AAE_NXZ@@?$standard_base@DV?$string_output_adapter@D@__crt_stdio_output@@@__crt_stdio_output@@IAE_NAAPAUansi_string@?1??type_case_Z@?$output_processor@DV?$string_output_adapter@D@__crt_stdio_output@@V?$format_validation_base@DV?$string_output_adapter@D@__crt_stdio_output@@@2@@1@AAE_NXZ@@Z 202db870 f i libucrtd:output.obj
 0001:002da8a0       ??$extract_argument_from_va_list@PAUansi_string@?1??type_case_Z@?$output_processor@DV?$string_output_adapter@D@__crt_stdio_output@@V?$positional_parameter_base@DV?$string_output_adapter@D@__crt_stdio_output@@@2@@__crt_stdio_output@@AAE_NXZ@PAU1?1??234@AAE_NXZ@@?$positional_parameter_base@DV?$string_output_adapter@D@__crt_stdio_output@@@__crt_stdio_output@@IAE_NAAPAUansi_string@?1??type_case_Z@?$output_processor@DV?$string_output_adapter@D@__crt_stdio_output@@V?$positional_parameter_base@DV?$string_output_adapter@D@__crt_stdio_output@@@2@@1@AAE_NXZ@@Z 202db8a0 f i libucrtd:output.obj
 0001:002daa50       ??$extract_argument_from_va_list@PAUansi_string@?1??type_case_Z@?$output_processor@DV?$string_output_adapter@D@__crt_stdio_output@@V?$positional_parameter_base@DV?$string_output_adapter@D@__crt_stdio_output@@@2@@__crt_stdio_output@@AAE_NXZ@PAU1?1??234@AAE_NXZ@@?$standard_base@DV?$string_output_adapter@D@__crt_stdio_output@@@__crt_stdio_output@@IAE_NAAPAUansi_string@?1??type_case_Z@?$output_processor@DV?$string_output_adapter@D@__crt_stdio_output@@V?$positional_parameter_base@DV?$string_output_adapter@D@__crt_stdio_output@@@2@@1@AAE_NXZ@@Z 202dba50 f i libucrtd:output.obj
 0001:002daa80       ??$extract_argument_from_va_list@PAUansi_string@?1??type_case_Z@?$output_processor@DV?$string_output_adapter@D@__crt_stdio_output@@V?$standard_base@DV?$string_output_adapter@D@__crt_stdio_output@@@2@@__crt_stdio_output@@AAE_NXZ@PAU1?1??234@AAE_NXZ@@?$standard_base@DV?$string_output_adapter@D@__crt_stdio_output@@@__crt_stdio_output@@IAE_NAAPAUansi_string@?1??type_case_Z@?$output_processor@DV?$string_output_adapter@D@__crt_stdio_output@@V?$standard_base@DV?$string_output_adapter@D@__crt_stdio_output@@@2@@1@AAE_NXZ@@Z 202dba80 f i libucrtd:output.obj
 0001:002daab0       ??$extract_argument_from_va_list@PAUansi_string@?1??type_case_Z@?$output_processor@_WV?$stream_output_adapter@_W@__crt_stdio_output@@V?$format_validation_base@_WV?$stream_output_adapter@_W@__crt_stdio_output@@@2@@__crt_stdio_output@@AAE_NXZ@PAU1?1??234@AAE_NXZ@@?$standard_base@_WV?$stream_output_adapter@_W@__crt_stdio_output@@@__crt_stdio_output@@IAE_NAAPAUansi_string@?1??type_case_Z@?$output_processor@_WV?$stream_output_adapter@_W@__crt_stdio_output@@V?$format_validation_base@_WV?$stream_output_adapter@_W@__crt_stdio_output@@@2@@1@AAE_NXZ@@Z 202dbab0 f i libucrtd:output.obj
 0001:002daae0       ??$extract_argument_from_va_list@PAUansi_string@?1??type_case_Z@?$output_processor@_WV?$stream_output_adapter@_W@__crt_stdio_output@@V?$positional_parameter_base@_WV?$stream_output_adapter@_W@__crt_stdio_output@@@2@@__crt_stdio_output@@AAE_NXZ@PAU1?1??234@AAE_NXZ@@?$positional_parameter_base@_WV?$stream_output_adapter@_W@__crt_stdio_output@@@__crt_stdio_output@@IAE_NAAPAUansi_string@?1??type_case_Z@?$output_processor@_WV?$stream_output_adapter@_W@__crt_stdio_output@@V?$positional_parameter_base@_WV?$stream_output_adapter@_W@__crt_stdio_output@@@2@@1@AAE_NXZ@@Z 202dbae0 f i libucrtd:output.obj
 0001:002daca0       ??$extract_argument_from_va_list@PAUansi_string@?1??type_case_Z@?$output_processor@_WV?$stream_output_adapter@_W@__crt_stdio_output@@V?$positional_parameter_base@_WV?$stream_output_adapter@_W@__crt_stdio_output@@@2@@__crt_stdio_output@@AAE_NXZ@PAU1?1??234@AAE_NXZ@@?$standard_base@_WV?$stream_output_adapter@_W@__crt_stdio_output@@@__crt_stdio_output@@IAE_NAAPAUansi_string@?1??type_case_Z@?$output_processor@_WV?$stream_output_adapter@_W@__crt_stdio_output@@V?$positional_parameter_base@_WV?$stream_output_adapter@_W@__crt_stdio_output@@@2@@1@AAE_NXZ@@Z 202dbca0 f i libucrtd:output.obj
 0001:002dacd0       ??$extract_argument_from_va_list@PAUansi_string@?1??type_case_Z@?$output_processor@_WV?$stream_output_adapter@_W@__crt_stdio_output@@V?$standard_base@_WV?$stream_output_adapter@_W@__crt_stdio_output@@@2@@__crt_stdio_output@@AAE_NXZ@PAU1?1??234@AAE_NXZ@@?$standard_base@_WV?$stream_output_adapter@_W@__crt_stdio_output@@@__crt_stdio_output@@IAE_NAAPAUansi_string@?1??type_case_Z@?$output_processor@_WV?$stream_output_adapter@_W@__crt_stdio_output@@V?$standard_base@_WV?$stream_output_adapter@_W@__crt_stdio_output@@@2@@1@AAE_NXZ@@Z 202dbcd0 f i libucrtd:output.obj
 0001:002dad00       ??$extract_argument_from_va_list@PAUansi_string@?1??type_case_Z@?$output_processor@_WV?$string_output_adapter@_W@__crt_stdio_output@@V?$format_validation_base@_WV?$string_output_adapter@_W@__crt_stdio_output@@@2@@__crt_stdio_output@@AAE_NXZ@PAU1?1??234@AAE_NXZ@@?$standard_base@_WV?$string_output_adapter@_W@__crt_stdio_output@@@__crt_stdio_output@@IAE_NAAPAUansi_string@?1??type_case_Z@?$output_processor@_WV?$string_output_adapter@_W@__crt_stdio_output@@V?$format_validation_base@_WV?$string_output_adapter@_W@__crt_stdio_output@@@2@@1@AAE_NXZ@@Z 202dbd00 f i libucrtd:output.obj
 0001:002dad30       ??$extract_argument_from_va_list@PAUansi_string@?1??type_case_Z@?$output_processor@_WV?$string_output_adapter@_W@__crt_stdio_output@@V?$positional_parameter_base@_WV?$string_output_adapter@_W@__crt_stdio_output@@@2@@__crt_stdio_output@@AAE_NXZ@PAU1?1??234@AAE_NXZ@@?$positional_parameter_base@_WV?$string_output_adapter@_W@__crt_stdio_output@@@__crt_stdio_output@@IAE_NAAPAUansi_string@?1??type_case_Z@?$output_processor@_WV?$string_output_adapter@_W@__crt_stdio_output@@V?$positional_parameter_base@_WV?$string_output_adapter@_W@__crt_stdio_output@@@2@@1@AAE_NXZ@@Z 202dbd30 f i libucrtd:output.obj
 0001:002daef0       ??$extract_argument_from_va_list@PAUansi_string@?1??type_case_Z@?$output_processor@_WV?$string_output_adapter@_W@__crt_stdio_output@@V?$positional_parameter_base@_WV?$string_output_adapter@_W@__crt_stdio_output@@@2@@__crt_stdio_output@@AAE_NXZ@PAU1?1??234@AAE_NXZ@@?$standard_base@_WV?$string_output_adapter@_W@__crt_stdio_output@@@__crt_stdio_output@@IAE_NAAPAUansi_string@?1??type_case_Z@?$output_processor@_WV?$string_output_adapter@_W@__crt_stdio_output@@V?$positional_parameter_base@_WV?$string_output_adapter@_W@__crt_stdio_output@@@2@@1@AAE_NXZ@@Z 202dbef0 f i libucrtd:output.obj
 0001:002daf20       ??$extract_argument_from_va_list@PAUansi_string@?1??type_case_Z@?$output_processor@_WV?$string_output_adapter@_W@__crt_stdio_output@@V?$standard_base@_WV?$string_output_adapter@_W@__crt_stdio_output@@@2@@__crt_stdio_output@@AAE_NXZ@PAU1?1??234@AAE_NXZ@@?$standard_base@_WV?$string_output_adapter@_W@__crt_stdio_output@@@__crt_stdio_output@@IAE_NAAPAUansi_string@?1??type_case_Z@?$output_processor@_WV?$string_output_adapter@_W@__crt_stdio_output@@V?$standard_base@_WV?$string_output_adapter@_W@__crt_stdio_output@@@2@@1@AAE_NXZ@@Z 202dbf20 f i libucrtd:output.obj
 0001:002daf50       ??$extract_argument_from_va_list@PAXPAX@?$positional_parameter_base@DV?$stream_output_adapter@D@__crt_stdio_output@@@__crt_stdio_output@@IAE_NAAPAX@Z 202dbf50 f i libucrtd:output.obj
 0001:002db100       ??$extract_argument_from_va_list@PAXPAX@?$positional_parameter_base@DV?$string_output_adapter@D@__crt_stdio_output@@@__crt_stdio_output@@IAE_NAAPAX@Z 202dc100 f i libucrtd:output.obj
 0001:002db2b0       ??$extract_argument_from_va_list@PAXPAX@?$positional_parameter_base@_WV?$stream_output_adapter@_W@__crt_stdio_output@@@__crt_stdio_output@@IAE_NAAPAX@Z 202dc2b0 f i libucrtd:output.obj
 0001:002db470       ??$extract_argument_from_va_list@PAXPAX@?$positional_parameter_base@_WV?$string_output_adapter@_W@__crt_stdio_output@@@__crt_stdio_output@@IAE_NAAPAX@Z 202dc470 f i libucrtd:output.obj
 0001:002db630       ??$extract_argument_from_va_list@PAXPAX@?$standard_base@DV?$stream_output_adapter@D@__crt_stdio_output@@@__crt_stdio_output@@IAE_NAAPAX@Z 202dc630 f i libucrtd:output.obj
 0001:002db660       ??$extract_argument_from_va_list@PAXPAX@?$standard_base@DV?$string_output_adapter@D@__crt_stdio_output@@@__crt_stdio_output@@IAE_NAAPAX@Z 202dc660 f i libucrtd:output.obj
 0001:002db690       ??$extract_argument_from_va_list@PAXPAX@?$standard_base@_WV?$stream_output_adapter@_W@__crt_stdio_output@@@__crt_stdio_output@@IAE_NAAPAX@Z 202dc690 f i libucrtd:output.obj
 0001:002db6c0       ??$extract_argument_from_va_list@PAXPAX@?$standard_base@_WV?$string_output_adapter@_W@__crt_stdio_output@@@__crt_stdio_output@@IAE_NAAPAX@Z 202dc6c0 f i libucrtd:output.obj
 0001:002db6f0       ??$extract_argument_from_va_list@U_CRT_DOUBLE@@U1@@?$positional_parameter_base@DV?$stream_output_adapter@D@__crt_stdio_output@@@__crt_stdio_output@@IAE_NAAU_CRT_DOUBLE@@@Z 202dc6f0 f i libucrtd:output.obj
 0001:002db8e0       ??$extract_argument_from_va_list@U_CRT_DOUBLE@@U1@@?$positional_parameter_base@DV?$string_output_adapter@D@__crt_stdio_output@@@__crt_stdio_output@@IAE_NAAU_CRT_DOUBLE@@@Z 202dc8e0 f i libucrtd:output.obj
 0001:002dbad0       ??$extract_argument_from_va_list@U_CRT_DOUBLE@@U1@@?$positional_parameter_base@_WV?$stream_output_adapter@_W@__crt_stdio_output@@@__crt_stdio_output@@IAE_NAAU_CRT_DOUBLE@@@Z 202dcad0 f i libucrtd:output.obj
 0001:002dbcc0       ??$extract_argument_from_va_list@U_CRT_DOUBLE@@U1@@?$positional_parameter_base@_WV?$string_output_adapter@_W@__crt_stdio_output@@@__crt_stdio_output@@IAE_NAAU_CRT_DOUBLE@@@Z 202dccc0 f i libucrtd:output.obj
 0001:002dbeb0       ??$extract_argument_from_va_list@U_CRT_DOUBLE@@U1@@?$standard_base@DV?$stream_output_adapter@D@__crt_stdio_output@@@__crt_stdio_output@@IAE_NAAU_CRT_DOUBLE@@@Z 202dceb0 f i libucrtd:output.obj
 0001:002dbf10       ??$extract_argument_from_va_list@U_CRT_DOUBLE@@U1@@?$standard_base@DV?$string_output_adapter@D@__crt_stdio_output@@@__crt_stdio_output@@IAE_NAAU_CRT_DOUBLE@@@Z 202dcf10 f i libucrtd:output.obj
 0001:002dbf70       ??$extract_argument_from_va_list@U_CRT_DOUBLE@@U1@@?$standard_base@_WV?$stream_output_adapter@_W@__crt_stdio_output@@@__crt_stdio_output@@IAE_NAAU_CRT_DOUBLE@@@Z 202dcf70 f i libucrtd:output.obj
 0001:002dbfd0       ??$extract_argument_from_va_list@U_CRT_DOUBLE@@U1@@?$standard_base@_WV?$string_output_adapter@_W@__crt_stdio_output@@@__crt_stdio_output@@IAE_NAAU_CRT_DOUBLE@@@Z 202dcfd0 f i libucrtd:output.obj
 0001:002dc030       ??$extract_argument_from_va_list@_J_J@?$positional_parameter_base@DV?$stream_output_adapter@D@__crt_stdio_output@@@__crt_stdio_output@@IAE_NAA_J@Z 202dd030 f i libucrtd:output.obj
 0001:002dc1f0       ??$extract_argument_from_va_list@_J_J@?$positional_parameter_base@DV?$string_output_adapter@D@__crt_stdio_output@@@__crt_stdio_output@@IAE_NAA_J@Z 202dd1f0 f i libucrtd:output.obj
 0001:002dc3b0       ??$extract_argument_from_va_list@_J_J@?$positional_parameter_base@_WV?$stream_output_adapter@_W@__crt_stdio_output@@@__crt_stdio_output@@IAE_NAA_J@Z 202dd3b0 f i libucrtd:output.obj
 0001:002dc570       ??$extract_argument_from_va_list@_J_J@?$positional_parameter_base@_WV?$string_output_adapter@_W@__crt_stdio_output@@@__crt_stdio_output@@IAE_NAA_J@Z 202dd570 f i libucrtd:output.obj
 0001:002dc730       ??$extract_argument_from_va_list@_J_J@?$standard_base@DV?$stream_output_adapter@D@__crt_stdio_output@@@__crt_stdio_output@@IAE_NAA_J@Z 202dd730 f i libucrtd:output.obj
 0001:002dc770       ??$extract_argument_from_va_list@_J_J@?$standard_base@DV?$string_output_adapter@D@__crt_stdio_output@@@__crt_stdio_output@@IAE_NAA_J@Z 202dd770 f i libucrtd:output.obj
 0001:002dc7b0       ??$extract_argument_from_va_list@_J_J@?$standard_base@_WV?$stream_output_adapter@_W@__crt_stdio_output@@@__crt_stdio_output@@IAE_NAA_J@Z 202dd7b0 f i libucrtd:output.obj
 0001:002dc7f0       ??$extract_argument_from_va_list@_J_J@?$standard_base@_WV?$string_output_adapter@_W@__crt_stdio_output@@@__crt_stdio_output@@IAE_NAA_J@Z 202dd7f0 f i libucrtd:output.obj
 0001:002dc830       ??$extract_argument_from_va_list@_K_J@?$positional_parameter_base@DV?$stream_output_adapter@D@__crt_stdio_output@@@__crt_stdio_output@@IAE_NAA_J@Z 202dd830 f i libucrtd:output.obj
 0001:002dc9f0       ??$extract_argument_from_va_list@_K_J@?$positional_parameter_base@DV?$string_output_adapter@D@__crt_stdio_output@@@__crt_stdio_output@@IAE_NAA_J@Z 202dd9f0 f i libucrtd:output.obj
 0001:002dcbb0       ??$extract_argument_from_va_list@_K_J@?$positional_parameter_base@_WV?$stream_output_adapter@_W@__crt_stdio_output@@@__crt_stdio_output@@IAE_NAA_J@Z 202ddbb0 f i libucrtd:output.obj
 0001:002dcd70       ??$extract_argument_from_va_list@_K_J@?$positional_parameter_base@_WV?$string_output_adapter@_W@__crt_stdio_output@@@__crt_stdio_output@@IAE_NAA_J@Z 202ddd70 f i libucrtd:output.obj
 0001:002dcf30       ??$extract_argument_from_va_list@_K_J@?$standard_base@DV?$stream_output_adapter@D@__crt_stdio_output@@@__crt_stdio_output@@IAE_NAA_J@Z 202ddf30 f i libucrtd:output.obj
 0001:002dcf70       ??$extract_argument_from_va_list@_K_J@?$standard_base@DV?$string_output_adapter@D@__crt_stdio_output@@@__crt_stdio_output@@IAE_NAA_J@Z 202ddf70 f i libucrtd:output.obj
 0001:002dcfb0       ??$extract_argument_from_va_list@_K_J@?$standard_base@_WV?$stream_output_adapter@_W@__crt_stdio_output@@@__crt_stdio_output@@IAE_NAA_J@Z 202ddfb0 f i libucrtd:output.obj
 0001:002dcff0       ??$extract_argument_from_va_list@_K_J@?$standard_base@_WV?$string_output_adapter@_W@__crt_stdio_output@@@__crt_stdio_output@@IAE_NAA_J@Z 202ddff0 f i libucrtd:output.obj
 0001:002dd030       ??$extract_argument_from_va_list@_W_W@?$positional_parameter_base@DV?$stream_output_adapter@D@__crt_stdio_output@@@__crt_stdio_output@@IAE_NAA_W@Z 202de030 f i libucrtd:output.obj
 0001:002dd1e0       ??$extract_argument_from_va_list@_W_W@?$positional_parameter_base@DV?$string_output_adapter@D@__crt_stdio_output@@@__crt_stdio_output@@IAE_NAA_W@Z 202de1e0 f i libucrtd:output.obj
 0001:002dd390       ??$extract_argument_from_va_list@_W_W@?$positional_parameter_base@_WV?$stream_output_adapter@_W@__crt_stdio_output@@@__crt_stdio_output@@IAE_NAA_W@Z 202de390 f i libucrtd:output.obj
 0001:002dd550       ??$extract_argument_from_va_list@_W_W@?$positional_parameter_base@_WV?$string_output_adapter@_W@__crt_stdio_output@@@__crt_stdio_output@@IAE_NAA_W@Z 202de550 f i libucrtd:output.obj
 0001:002dd710       ??$extract_argument_from_va_list@_W_W@?$standard_base@DV?$stream_output_adapter@D@__crt_stdio_output@@@__crt_stdio_output@@IAE_NAA_W@Z 202de710 f i libucrtd:output.obj
 0001:002dd740       ??$extract_argument_from_va_list@_W_W@?$standard_base@DV?$string_output_adapter@D@__crt_stdio_output@@@__crt_stdio_output@@IAE_NAA_W@Z 202de740 f i libucrtd:output.obj
 0001:002dd770       ??$extract_argument_from_va_list@_W_W@?$standard_base@_WV?$stream_output_adapter@_W@__crt_stdio_output@@@__crt_stdio_output@@IAE_NAA_W@Z 202de770 f i libucrtd:output.obj
 0001:002dd7a0       ??$extract_argument_from_va_list@_W_W@?$standard_base@_WV?$string_output_adapter@_W@__crt_stdio_output@@@__crt_stdio_output@@IAE_NAA_W@Z 202de7a0 f i libucrtd:output.obj
 0001:002dd7d0       ??$get_parameter_type@D@?$positional_parameter_base@DV?$stream_output_adapter@D@__crt_stdio_output@@@__crt_stdio_output@@CA?AW4parameter_type@01@PAD@Z 202de7d0 f i libucrtd:output.obj
 0001:002dd7e0       ??$get_parameter_type@D@?$positional_parameter_base@DV?$string_output_adapter@D@__crt_stdio_output@@@__crt_stdio_output@@CA?AW4parameter_type@01@PAD@Z 202de7e0 f i libucrtd:output.obj
 0001:002dd7f0       ??$get_parameter_type@D@?$positional_parameter_base@_WV?$stream_output_adapter@_W@__crt_stdio_output@@@__crt_stdio_output@@CA?AW4parameter_type@01@PAD@Z 202de7f0 f i libucrtd:output.obj
 0001:002dd800       ??$get_parameter_type@D@?$positional_parameter_base@_WV?$string_output_adapter@_W@__crt_stdio_output@@@__crt_stdio_output@@CA?AW4parameter_type@01@PAD@Z 202de800 f i libucrtd:output.obj
 0001:002dd810       ??$get_parameter_type@Uansi_string@?1??type_case_Z@?$output_processor@DV?$stream_output_adapter@D@__crt_stdio_output@@V?$positional_parameter_base@DV?$stream_output_adapter@D@__crt_stdio_output@@@2@@__crt_stdio_output@@AAE_NXZ@@?$positional_parameter_base@DV?$stream_output_adapter@D@__crt_stdio_output@@@__crt_stdio_output@@CA?AW4parameter_type@01@PAUansi_string@?1??type_case_Z@?$output_processor@DV?$stream_output_adapter@D@__crt_stdio_output@@V?$positional_parameter_base@DV?$stream_output_adapter@D@__crt_stdio_output@@@2@@1@AAE_NXZ@@Z 202de810 f i libucrtd:output.obj
 0001:002dd820       ??$get_parameter_type@Uansi_string@?1??type_case_Z@?$output_processor@DV?$string_output_adapter@D@__crt_stdio_output@@V?$positional_parameter_base@DV?$string_output_adapter@D@__crt_stdio_output@@@2@@__crt_stdio_output@@AAE_NXZ@@?$positional_parameter_base@DV?$string_output_adapter@D@__crt_stdio_output@@@__crt_stdio_output@@CA?AW4parameter_type@01@PAUansi_string@?1??type_case_Z@?$output_processor@DV?$string_output_adapter@D@__crt_stdio_output@@V?$positional_parameter_base@DV?$string_output_adapter@D@__crt_stdio_output@@@2@@1@AAE_NXZ@@Z 202de820 f i libucrtd:output.obj
 0001:002dd830       ??$get_parameter_type@Uansi_string@?1??type_case_Z@?$output_processor@_WV?$stream_output_adapter@_W@__crt_stdio_output@@V?$positional_parameter_base@_WV?$stream_output_adapter@_W@__crt_stdio_output@@@2@@__crt_stdio_output@@AAE_NXZ@@?$positional_parameter_base@_WV?$stream_output_adapter@_W@__crt_stdio_output@@@__crt_stdio_output@@CA?AW4parameter_type@01@PAUansi_string@?1??type_case_Z@?$output_processor@_WV?$stream_output_adapter@_W@__crt_stdio_output@@V?$positional_parameter_base@_WV?$stream_output_adapter@_W@__crt_stdio_output@@@2@@1@AAE_NXZ@@Z 202de830 f i libucrtd:output.obj
 0001:002dd840       ??$get_parameter_type@Uansi_string@?1??type_case_Z@?$output_processor@_WV?$string_output_adapter@_W@__crt_stdio_output@@V?$positional_parameter_base@_WV?$string_output_adapter@_W@__crt_stdio_output@@@2@@__crt_stdio_output@@AAE_NXZ@@?$positional_parameter_base@_WV?$string_output_adapter@_W@__crt_stdio_output@@@__crt_stdio_output@@CA?AW4parameter_type@01@PAUansi_string@?1??type_case_Z@?$output_processor@_WV?$string_output_adapter@_W@__crt_stdio_output@@V?$positional_parameter_base@_WV?$string_output_adapter@_W@__crt_stdio_output@@@2@@1@AAE_NXZ@@Z 202de840 f i libucrtd:output.obj
 0001:002dd850       ??$get_parameter_type@X@?$positional_parameter_base@DV?$stream_output_adapter@D@__crt_stdio_output@@@__crt_stdio_output@@CA?AW4parameter_type@01@PAX@Z 202de850 f i libucrtd:output.obj
 0001:002dd860       ??$get_parameter_type@X@?$positional_parameter_base@DV?$string_output_adapter@D@__crt_stdio_output@@@__crt_stdio_output@@CA?AW4parameter_type@01@PAX@Z 202de860 f i libucrtd:output.obj
 0001:002dd870       ??$get_parameter_type@X@?$positional_parameter_base@_WV?$stream_output_adapter@_W@__crt_stdio_output@@@__crt_stdio_output@@CA?AW4parameter_type@01@PAX@Z 202de870 f i libucrtd:output.obj
 0001:002dd880       ??$get_parameter_type@X@?$positional_parameter_base@_WV?$string_output_adapter@_W@__crt_stdio_output@@@__crt_stdio_output@@CA?AW4parameter_type@01@PAX@Z 202de880 f i libucrtd:output.obj
 0001:002dd890       ??$is_character_specifier@D@?$positional_parameter_base@DV?$stream_output_adapter@D@__crt_stdio_output@@@__crt_stdio_output@@CA_ND@Z 202de890 f i libucrtd:output.obj
 0001:002dd8d0       ??$is_character_specifier@D@?$positional_parameter_base@DV?$string_output_adapter@D@__crt_stdio_output@@@__crt_stdio_output@@CA_ND@Z 202de8d0 f i libucrtd:output.obj
 0001:002dd910       ??$is_character_specifier@_W@?$positional_parameter_base@_WV?$stream_output_adapter@_W@__crt_stdio_output@@@__crt_stdio_output@@CA_N_W@Z 202de910 f i libucrtd:output.obj
 0001:002dd950       ??$is_character_specifier@_W@?$positional_parameter_base@_WV?$string_output_adapter@_W@__crt_stdio_output@@@__crt_stdio_output@@CA_N_W@Z 202de950 f i libucrtd:output.obj
 0001:002dd990       ??$is_integral_specifier@D@?$positional_parameter_base@DV?$stream_output_adapter@D@__crt_stdio_output@@@__crt_stdio_output@@CA_ND@Z 202de990 f i libucrtd:output.obj
 0001:002dda10       ??$is_integral_specifier@D@?$positional_parameter_base@DV?$string_output_adapter@D@__crt_stdio_output@@@__crt_stdio_output@@CA_ND@Z 202dea10 f i libucrtd:output.obj
 0001:002dda90       ??$is_integral_specifier@_W@?$positional_parameter_base@_WV?$stream_output_adapter@_W@__crt_stdio_output@@@__crt_stdio_output@@CA_N_W@Z 202dea90 f i libucrtd:output.obj
 0001:002ddb10       ??$is_integral_specifier@_W@?$positional_parameter_base@_WV?$string_output_adapter@_W@__crt_stdio_output@@@__crt_stdio_output@@CA_N_W@Z 202deb10 f i libucrtd:output.obj
 0001:002ddb90       ??$is_pointer_specifier@D@?$positional_parameter_base@DV?$stream_output_adapter@D@__crt_stdio_output@@@__crt_stdio_output@@CA_ND@Z 202deb90 f i libucrtd:output.obj
 0001:002ddbc0       ??$is_pointer_specifier@D@?$positional_parameter_base@DV?$string_output_adapter@D@__crt_stdio_output@@@__crt_stdio_output@@CA_ND@Z 202debc0 f i libucrtd:output.obj
 0001:002ddbf0       ??$is_pointer_specifier@_W@?$positional_parameter_base@_WV?$stream_output_adapter@_W@__crt_stdio_output@@@__crt_stdio_output@@CA_N_W@Z 202debf0 f i libucrtd:output.obj
 0001:002ddc20       ??$is_pointer_specifier@_W@?$positional_parameter_base@_WV?$string_output_adapter@_W@__crt_stdio_output@@@__crt_stdio_output@@CA_N_W@Z 202dec20 f i libucrtd:output.obj
 0001:002ddc50       ??$is_string_specifier@D@?$positional_parameter_base@DV?$stream_output_adapter@D@__crt_stdio_output@@@__crt_stdio_output@@CA_ND@Z 202dec50 f i libucrtd:output.obj
 0001:002ddc90       ??$is_string_specifier@D@?$positional_parameter_base@DV?$string_output_adapter@D@__crt_stdio_output@@@__crt_stdio_output@@CA_ND@Z 202dec90 f i libucrtd:output.obj
 0001:002ddcd0       ??$is_string_specifier@_W@?$positional_parameter_base@_WV?$stream_output_adapter@_W@__crt_stdio_output@@@__crt_stdio_output@@CA_N_W@Z 202decd0 f i libucrtd:output.obj
 0001:002ddd10       ??$is_string_specifier@_W@?$positional_parameter_base@_WV?$string_output_adapter@_W@__crt_stdio_output@@@__crt_stdio_output@@CA_N_W@Z 202ded10 f i libucrtd:output.obj
 0001:002ddd50       ??$is_wide_character_specifier@D@__crt_stdio_output@@YA_N_KDW4length_modifier@0@@Z 202ded50 f i libucrtd:output.obj
 0001:002dddf0       ??$is_wide_character_specifier@_W@__crt_stdio_output@@YA_N_K_WW4length_modifier@0@@Z 202dedf0 f i libucrtd:output.obj
