 jampgamex86

 Timestamp is 5cedc49d (Wed May 29 01:30:37 2019)

 Preferred load address is 20000000

 Start         Length     Name                   Class
 0001:00000000 0000b4e8H .text$di                CODE
 0001:0000b4f0 002ffd3eH .text$mn                CODE
 0001:0030b230 00001187H .text$x                 CODE
 0002:00000000 00000104H .CRT$XCA                DATA
 0002:00000104 000001edH .CRT$XCU                DATA
 0002:000002f4 00000104H .CRT$XCZ                DATA
 0002:000003f8 00000104H .CRT$XIA                DATA
 0002:000004fc 00000118H .CRT$XIC                DATA
 0002:00000614 00000104H .CRT$XIZ                DATA
 0002:00000718 00000104H .CRT$XPA                DATA
 0002:0000081c 00000109H .CRT$XPX                DATA
 0002:00000928 00000104H .CRT$XPXA               DATA
 0002:00000a2c 00000104H .CRT$XPZ                DATA
 0002:00000b30 00000104H .CRT$XTA                DATA
 0002:00000c34 00000104H .CRT$XTZ                DATA
 0002:00000d40 0006d606H .rdata                  DATA
 0002:0006e348 000001d8H .rdata$debug            DATA
 0002:0006e520 0000053cH .rdata$r                DATA
 0002:0006ea60 00000139H .rdata$sxdata           DATA
 0002:0006eb9c 00000104H .rtc$IAA                DATA
 0002:0006eca0 00000104H .rtc$IZZ                DATA
 0002:0006eda4 00000104H .rtc$TAA                DATA
 0002:0006eea8 00000104H .rtc$TZZ                DATA
 0002:0006efb0 00000f70H .xdata$x                DATA
 0002:0006ff20 0000022aH .edata                  DATA
 0003:00000000 00028031H .data                   DATA
 0003:00028034 00000292H .data$r                 DATA
 0003:000282e0 00ae52c0H .bss                    DATA
 0004:00000000 000002b8H .idata$5                DATA
 0004:000002b8 00000050H .idata$2                DATA
 0004:00000308 00000014H .idata$3                DATA
 0004:0000031c 000002b8H .idata$4                DATA
 0004:000005d4 000009b6H .idata$6                DATA
 0005:00000000 000001c0H .rsrc$01                DATA
 0005:000001c0 00000773H .rsrc$02                DATA

  Address         Publics by Value              Rva+Base       Lib:Object

 0000:00000000       ___guard_flags             00000000     <absolute>
 0000:00000000       __except_list              00000000     <absolute>
 0000:00000000       ___guard_fids_table        00000000     <absolute>
 0000:00000000       ___guard_fids_count        00000000     <absolute>
 0000:0000000c       ___safe_se_handler_count   0000000c     <absolute>
 0000:00000000       ___ImageBase               20000000     <linker-defined>
 0001:0000b4f0       ?AltFiring@@YAHPAUbot_state_s@@@Z 2000c4f0 f   ai_main.obj
 0001:0000b560       ?AngleDifference@@YAMMM@Z  2000c560 f   ai_main.obj
 0001:0000b600       ?ApproachTracing@@YAXPAUbot_state_s@@@Z 2000c600 f   ai_main.obj
 0001:0000ba30       ?BotAI@@YAHHM@Z            2000ca30 f   ai_main.obj
 0001:0000bf20       ?BotAILoadMap@@YAHH@Z      2000cf20 f   ai_main.obj
 0001:0000bfb0       ?BotAIRegularUpdate@@YAXXZ 2000cfb0 f   ai_main.obj
 0001:0000c010       ?BotAISetup@@YAHH@Z        2000d010 f   ai_main.obj
 0001:0000c230       ?BotAISetupClient@@YAHHPAUbot_settings_s@@H@Z 2000d230 f   ai_main.obj
 0001:0000c620       ?BotAIShutdown@@YAHH@Z     2000d620 f   ai_main.obj
 0001:0000c6b0       ?BotAIShutdownClient@@YAHHH@Z 2000d6b0 f   ai_main.obj
 0001:0000c770       ?BotAIStartFrame@@YAHH@Z   2000d770 f   ai_main.obj
 0001:0000ca60       ?BotAI_GetClientState@@YAHHPAUplayerState_s@@@Z 2000da60 f   ai_main.obj
 0001:0000cae0       ?BotAI_GetEntityState@@YAHHPAUentityState_s@@@Z 2000dae0 f   ai_main.obj
 0001:0000cb80       ?BotAI_GetSnapshotEntity@@YAHHHPAUentityState_s@@@Z 2000db80 f   ai_main.obj
 0001:0000cbf0       ?BotAI_Print@@YAXHPADZZ    2000dbf0 f   ai_main.obj
 0001:0000cc10       ?BotAimLeading@@YAXPAUbot_state_s@@QAMM@Z 2000dc10 f   ai_main.obj
 0001:0000d1d0       ?BotAimOffsetGoalAngles@@YAXPAUbot_state_s@@@Z 2000e1d0 f   ai_main.obj
 0001:0000d7b0       ?BotCTFGuardDuty@@YAHPAUbot_state_s@@@Z 2000e7b0 f   ai_main.obj
 0001:0000d800       ?BotCanHear@@YAHPAUbot_state_s@@PAUgentity_s@@M@Z 2000e800 f   ai_main.obj
 0001:0000da80       ?BotChangeViewAngle@@YAMMMM@Z 2000ea80 f   ai_main.obj
 0001:0000dbf0       ?BotChangeViewAngles@@YAXPAUbot_state_s@@M@Z 2000ebf0 f   ai_main.obj
 0001:0000e140       ?BotCheckDetPacks@@YAXPAUbot_state_s@@@Z 2000f140 f   ai_main.obj
 0001:0000e4c0       ?BotDamageNotification@@YAXPAUgclient_s@@PAUgentity_s@@@Z 2000f4c0 f   ai_main.obj
 0001:0000e7e0       ?BotDeathNotify@@YAXPAUbot_state_s@@@Z 2000f7e0 f   ai_main.obj
 0001:0000e910       ?BotDefendFlag@@YAHPAUbot_state_s@@@Z 2000f910 f   ai_main.obj
 0001:0000eab0       ?BotDoTeamplayAI@@YAXPAUbot_state_s@@@Z 2000fab0 f   ai_main.obj
 0001:0000eb20       ?BotEntityInfo@@YAXHPAUaas_entityinfo_s@@@Z 2000fb20 f   ai_main.obj
 0001:0000eb50       ?BotFallbackNavigation@@YAHPAUbot_state_s@@@Z 2000fb50 f   ai_main.obj
 0001:0000eee0       ?BotForceNotification@@YAXPAUgclient_s@@PAUgentity_s@@@Z 2000fee0 f   ai_main.obj
 0001:0000f0f0       ?BotGetEnemyFlag@@YAHPAUbot_state_s@@@Z 200100f0 f   ai_main.obj
 0001:0000f290       ?BotGetFlagBack@@YAHPAUbot_state_s@@@Z 20010290 f   ai_main.obj
 0001:0000f580       ?BotGetFlagHome@@YAHPAUbot_state_s@@@Z 20010580 f   ai_main.obj
 0001:0000f720       ?BotGetWeaponRange@@YAHPAUbot_state_s@@@Z 20010720 f   ai_main.obj
 0001:0000f830       ?BotGuardFlagCarrier@@YAHPAUbot_state_s@@@Z 20010830 f   ai_main.obj
 0001:0000fb20       ?BotHasAssociated@@YAHPAUbot_state_s@@PAUwpobject_s@@@Z 20010b20 f   ai_main.obj
 0001:0000fcc0       ?BotInputToUserCommand@@YAXPAUbot_input_s@@PAUusercmd_s@@QAHHH@Z 20010cc0 f   ai_main.obj
 0001:00010310       ?BotIsAChickenWuss@@YAHPAUbot_state_s@@@Z 20011310 f   ai_main.obj
 0001:00010640       ?BotLovedOneDied@@YAXPAUbot_state_s@@0H@Z 20011640 f   ai_main.obj
 0001:00010900       ?BotMindTricked@@YAHHH@Z   20011900 f   ai_main.obj
 0001:00010a10       ?BotOrder@@YAXPAUgentity_s@@HH@Z 20011a10 f   ai_main.obj
 0001:00010dc0       ?BotPVSCheck@@YAHQBM0@Z    20011dc0 f   ai_main.obj
 0001:00010f10       ?BotReplyGreetings@@YAXPAUbot_state_s@@@Z 20011f10 f   ai_main.obj
 0001:00011010       ?BotReportStatus@@YAXPAUbot_state_s@@@Z 20012010 f   ai_main.obj
 0001:000110d0       ?BotResetState@@YAXPAUbot_state_s@@@Z 200120d0 f   ai_main.obj
 0001:00011330       ?BotScanForLeader@@YAXPAUbot_state_s@@@Z 20012330 f   ai_main.obj
 0001:00011470       ?BotScheduleBotThink@@YAXXZ 20012470 f   ai_main.obj
 0001:00011500       ?BotSelectChoiceWeapon@@YAHPAUbot_state_s@@HH@Z 20012500 f   ai_main.obj
 0001:00011620       ?BotSelectIdealWeapon@@YAHPAUbot_state_s@@@Z 20012620 f   ai_main.obj
 0001:000119a0       ?BotSelectMelee@@YAHPAUbot_state_s@@@Z 200129a0 f   ai_main.obj
 0001:00011a10       ?BotSelectWeapon@@YAXHH@Z  20012a10 f   ai_main.obj
 0001:00011a50       ?BotStraightTPOrderCheck@@YAXPAUgentity_s@@HPAUbot_state_s@@@Z 20012a50 f   ai_main.obj
 0001:00011b60       ?BotSurfaceNear@@YAHPAUbot_state_s@@@Z 20012b60 f   ai_main.obj
 0001:00011ce0       ?BotTrace_Duck@@YAHPAUbot_state_s@@QAM@Z 20012ce0 f   ai_main.obj
 0001:00012190       ?BotTrace_Jump@@YAHPAUbot_state_s@@QAM@Z 20013190 f   ai_main.obj
 0001:000126f0       ?BotTrace_Strafe@@YAHPAUbot_state_s@@QAM@Z 200136f0 f   ai_main.obj
 0001:00012ff0       ?BotTryAnotherWeapon@@YAHPAUbot_state_s@@@Z 20013ff0 f   ai_main.obj
 0001:000130f0       ?BotUpdateInput@@YAXPAUbot_state_s@@HH@Z 200140f0 f   ai_main.obj
 0001:00013430       ?BotUseInventoryItem@@YAHPAUbot_state_s@@@Z 20014430 f   ai_main.obj
 0001:000136a0       ?BotWeaponBlockable@@YAHH@Z 200146a0 f   ai_main.obj
 0001:00013750       ?BotWeaponCanLead@@YAMPAUbot_state_s@@@Z 20014750 f   ai_main.obj
 0001:000137f0       ?BotWeaponSelectable@@YAHPAUbot_state_s@@H@Z 200147f0 f   ai_main.obj
 0001:00013870       ?Bot_SetForcedMovement@@YAXHHHH@Z 20014870 f   ai_main.obj
 0001:00013950       ?CTFFlagMovement@@YAXPAUbot_state_s@@@Z 20014950 f   ai_main.obj
 0001:000140e0       ?CTFTakesPriority@@YAHPAUbot_state_s@@@Z 200150e0 f   ai_main.obj
 0001:00014760       ?CheckForFriendInLOF@@YAPAUgentity_s@@PAUbot_state_s@@@Z 20015760 f   ai_main.obj
 0001:00014a80       ?CheckForFunc@@YAHQAMH@Z   20015a80 f   ai_main.obj
 0001:00014bd0       ?CheckForShorterRoutes@@YAXPAUbot_state_s@@H@Z 20015bd0 f   ai_main.obj
 0001:00014ec0       ?CombatBotAI@@YAHPAUbot_state_s@@M@Z 20015ec0 f   ai_main.obj
 0001:000154c0       ?CommanderBotAI@@YAXPAUbot_state_s@@@Z 200164c0 f   ai_main.obj
 0001:00015550       ?CommanderBotCTFAI@@YAXPAUbot_state_s@@@Z 20016550 f   ai_main.obj
 0001:00015bd0       ?CommanderBotSiegeAI@@YAXPAUbot_state_s@@@Z 20016bd0 f   ai_main.obj
 0001:00015e90       ?CommanderBotTeamplayAI@@YAXPAUbot_state_s@@@Z 20016e90 f   ai_main.obj
 0001:000163b0       ?EntityVisibleBox@@YAHQAM000HH@Z 200173b0 f   ai_main.obj
 0001:00016470       ?GetBestIdleGoal@@YAHPAUbot_state_s@@@Z 20017470 f   ai_main.obj
 0001:000166b0       ?GetIdealDestination@@YAXPAUbot_state_s@@@Z 200176b0 f   ai_main.obj
 0001:00017860       ?GetLoveLevel@@YAHPAUbot_state_s@@0@Z 20018860 f   ai_main.obj
 0001:00017980       ?GetNearestBadThing@@YAPAUgentity_s@@PAUbot_state_s@@@Z 20018980 f   ai_main.obj
 0001:000180c0       ?GetNearestVisibleWP@@YAHQAMH@Z 200190c0 f   ai_main.obj
 0001:00018390       ?GetNewFlagPoint@@YAXPAUwpobject_s@@PAUgentity_s@@H@Z 20019390 f   ai_main.obj
 0001:00018780       ?HaveTargetHandling@@YAXPAUbot_state_s@@@Z 20019780 f   ai_main.obj
 0001:00018ff0       ?InFieldOfVision@@YAHQAMM0@Z 20019ff0 f   ai_main.obj
 0001:00019180       ?IsTeamplay@@YAHXZ         2001a180 f   ai_main.obj
 0001:000191b0       ?JMTakesPriority@@YAHPAUbot_state_s@@@Z 2001a1b0 f   ai_main.obj
 0001:000193c0       ?KeepAltFromFiring@@YAHPAUbot_state_s@@@Z 2001a3c0 f   ai_main.obj
 0001:00019440       ?KeepPrimFromFiring@@YAHPAUbot_state_s@@@Z 2001a440 f   ai_main.obj
 0001:000194c0       ?MeleeCombatHandling@@YAXPAUbot_state_s@@@Z 2001a4c0 f   ai_main.obj
 0001:00019c40       ?MoveTowardIdealAngles@@YAXPAUbot_state_s@@@Z 2001ac40 f   ai_main.obj
 0001:00019ce0       ?NumBots@@YAHXZ            2001ace0 f   ai_main.obj
 0001:00019d00       ?OrgVisible@@YAHQAM0H@Z    2001ad00 f   ai_main.obj
 0001:00019d80       ?OrgVisibleBox@@YAHQAM000H@Z 2001ad80 f   ai_main.obj
 0001:00019e50       ?PassLovedOneCheck@@YAHPAUbot_state_s@@PAUgentity_s@@@Z 2001ae50 f   ai_main.obj
 0001:0001a000       ?PassStandardEnemyChecks@@YAHPAUbot_state_s@@PAUgentity_s@@@Z 2001b000 f   ai_main.obj
 0001:0001a530       ?PassWayCheck@@YAHPAUbot_state_s@@H@Z 2001b530 f   ai_main.obj
 0001:0001a620       ?PlayersInGame@@YAHXZ      2001b620 f   ai_main.obj
 0001:0001a6b0       ?PrimFiring@@YAHPAUbot_state_s@@@Z 2001b6b0 f   ai_main.obj
 0001:0001a720       ?RemoveColorEscapeSequences@@YAXPAD@Z 2001b720 f   ai_main.obj
 0001:0001a830       ?SaberCombatHandling@@YAXPAUbot_state_s@@@Z 2001b830 f   ai_main.obj
 0001:0001b4e0       ?ScanForEnemies@@YAHPAUbot_state_s@@@Z 2001c4e0 f   ai_main.obj
 0001:0001bb00       ?ShouldSecondaryFire@@YAHPAUbot_state_s@@@Z 2001cb00 f   ai_main.obj
 0001:0001bde0       ?SiegeTakesPriority@@YAHPAUbot_state_s@@@Z 2001cde0 f   ai_main.obj
 0001:0001c660       ?Siege_CountDefenders@@YAHPAUbot_state_s@@@Z 2001d660 f   ai_main.obj
 0001:0001c730       ?Siege_CountTeammates@@YAHPAUbot_state_s@@@Z 2001d730 f   ai_main.obj
 0001:0001c7d0       ?Siege_DefendFromAttackers@@YAXPAUbot_state_s@@@Z 2001d7d0 f   ai_main.obj
 0001:0001ca90       ?Siege_TargetClosestObjective@@YAHPAUbot_state_s@@H@Z 2001da90 f   ai_main.obj
 0001:0001d1e0       ?SingleSaberCombatHandling@@YAXPAUbot_state_s@@@Z 2001e1e0 f   ai_main.obj
 0001:0001df00       ?StandardBotAI@@YAXPAUbot_state_s@@M@Z 2001ef00 f   ai_main.obj
 0001:00025f90       ?StrafeTracing@@YAXPAUbot_state_s@@@Z 20026f90 f   ai_main.obj
 0001:000263c0       ?TotalTrailDistance@@YAMHHPAUbot_state_s@@@Z 200273c0 f   ai_main.obj
 0001:000264f0       ?UpdateEventTracker@@YAXXZ 200274f0 f   ai_main.obj
 0001:000266e0       ?WPConstantRoutine@@YAXPAUbot_state_s@@@Z 200276e0 f   ai_main.obj
 0001:00026810       ?WPOrgVisible@@YAHPAUgentity_s@@QAM1H@Z 20027810 f   ai_main.obj
 0001:00026990       ?WPTouchRoutine@@YAXPAUbot_state_s@@@Z 20027990 f   ai_main.obj
 0001:00026da0       ?WaitingForNow@@YAHPAUbot_state_s@@QAM@Z 20027da0 f   ai_main.obj
 0001:00027130       ?abs@@YAMM@Z               20028130 f i ai_main.obj
 0001:00027160       ?isLame@@YAHPAUbot_state_s@@@Z 20028160 f   ai_main.obj
 0001:000273d0       ?sqrt@@YAMM@Z              200283d0 f i ai_main.obj
 0001:00027400       ?strchr@@YAPADPADH@Z       20028400 f i ai_main.obj
 0001:00027430       ?strstr@@YAPADPADPBD@Z     20028430 f i ai_main.obj
 0001:00027460       _fabsf                     20028460 f i ai_main.obj
 0001:000274a0       _sqrtf                     200284a0 f i ai_main.obj
 0001:000274e0       ?AcceptBotCommand@@YAHPADPAUgentity_s@@@Z 200284e0 f   ai_wpnav.obj
 0001:00028050       ?BeginAutoPathRoutine@@YAXXZ 20029050 f   ai_wpnav.obj
 0001:000283a0       ?BotWaypointRender@@YAXXZ  200293a0 f   ai_wpnav.obj
 0001:00028960       ?CalculateJumpRoutes@@YAXXZ 20029960 f   ai_wpnav.obj
 0001:00028c40       ?CalculatePaths@@YAXXZ     20029c40 f   ai_wpnav.obj
 0001:00029200       ?CalculateSiegeGoals@@YAXXZ 2002a200 f   ai_wpnav.obj
 0001:00029520       ?CalculateWeightGoals@@YAXXZ 2002a520 f   ai_wpnav.obj
 0001:00029980       ?CanForceJumpTo@@YAHHHM@Z  2002a980 f   ai_wpnav.obj
 0001:00029d70       ?CanGetToVector@@YAHQAM000@Z 2002ad70 f   ai_wpnav.obj
 0001:00029e10       ?CanGetToVectorTravel@@YAHQAM000@Z 2002ae10 f   ai_wpnav.obj
 0001:0002aa30       ?ConnectTrail@@YAHHHH@Z    2002ba30 f   ai_wpnav.obj
 0001:0002caa0       ?CreateNewWP@@YAXQAMH@Z    2002daa0 f   ai_wpnav.obj
 0001:0002cca0       ?CreateNewWP_FromObject@@YAXPAUwpobject_s@@@Z 2002dca0 f   ai_wpnav.obj
 0001:0002cf80       ?CreateNewWP_InTrail@@YAHQAMHH@Z 2002df80 f   ai_wpnav.obj
 0001:0002d2f0       ?CreateNewWP_InsertUnder@@YAHQAMHH@Z 2002e2f0 f   ai_wpnav.obj
 0001:0002d670       ?DoorBlockingSection@@YAHHH@Z 2002e670 f   ai_wpnav.obj
 0001:0002d810       ?FlagObjects@@YAXXZ        2002e810 f   ai_wpnav.obj
 0001:0002dea0       ?G_BackwardAttachment@@YAHHHH@Z 2002eea0 f   ai_wpnav.obj
 0001:0002e360       ?G_NearestNodeToPoint@@YAHQAM@Z 2002f360 f   ai_wpnav.obj
 0001:0002e510       ?G_NodeClearFlags@@YAXXZ   2002f510 f   ai_wpnav.obj
 0001:0002e560       ?G_NodeClearForNext@@YAXXZ 2002f560 f   ai_wpnav.obj
 0001:0002e5d0       ?G_NodeMatchingXY@@YAHMM@Z 2002f5d0 f   ai_wpnav.obj
 0001:0002e670       ?G_NodeMatchingXY_BA@@YAHHHH@Z 2002f670 f   ai_wpnav.obj
 0001:0002e770       ?G_RMGPathing@@YAXXZ       2002f770 f   ai_wpnav.obj
 0001:0002efa0       ?G_RecursiveConnection@@YAHHHHHM@Z 2002ffa0 f   ai_wpnav.obj
 0001:0002f480       ?G_TestLine@@YAXQAM0HH@Z   20030480 f   ai_wpnav.obj
 0001:0002f5c0       ?GetClosestSpawn@@YAPAUgentity_s@@PAU1@@Z 200305c0 f   ai_wpnav.obj
 0001:0002f7e0       ?GetFlagStr@@YAPADH@Z      200307e0 f   ai_wpnav.obj
 0001:0002fd70       ?GetNearestVisibleWPToItem@@YAHQAMH@Z 20030d70 f   ai_wpnav.obj
 0001:00030090       ?GetNextSpawnInIndex@@YAPAUgentity_s@@PAU1@@Z 20031090 f   ai_wpnav.obj
 0001:00030200       ?GetObjectThatTargets@@YAPAUgentity_s@@PAU1@@Z 20031200 f   ai_wpnav.obj
 0001:00030270       ?LoadPathData@@YAHPBD@Z    20031270 f   ai_wpnav.obj
 0001:00030d20       ?LoadPath_ThisLevel@@YAXXZ 20031d20 f   ai_wpnav.obj
 0001:00030f00       ?NodeHere@@YAHQAM@Z        20031f00 f   ai_wpnav.obj
 0001:00031120       ?OpposingEnds@@YAHHH@Z     20032120 f   ai_wpnav.obj
 0001:000311d0       ?OrgVisibleCurve@@YAHQAM000H@Z 200321d0 f   ai_wpnav.obj
 0001:00031340       ?RemoveAllWP@@YAXXZ        20032340 f   ai_wpnav.obj
 0001:00031370       ?RemoveWP@@YAXXZ           20032370 f   ai_wpnav.obj
 0001:00031430       ?RemoveWP_InTrail@@YAXH@Z  20032430 f   ai_wpnav.obj
 0001:00031630       ?RepairPaths@@YAHH@Z       20032630 f   ai_wpnav.obj
 0001:000319b0       ?SavePathData@@YAHPBD@Z    200329b0 f   ai_wpnav.obj
 0001:00032220       ?TeleportToWP@@YAXPAUgentity_s@@H@Z 20033220 f   ai_wpnav.obj
 0001:000323c0       ?TransferWPData@@YAXHH@Z   200333c0 f   ai_wpnav.obj
 0001:00032650       ?WPFlagsModify@@YAXHH@Z    20033650 f   ai_wpnav.obj
 0001:000326d0       ?AnimalProcessOri@@YAXPAUVehicle_s@@@Z 200336d0 f   AnimalNPC.obj
 0001:000332a0       ?G_CreateAnimalNPC@@YAXPAPAUVehicle_s@@PBD@Z 200342a0 f   AnimalNPC.obj
 0001:00033310       ?G_SetAnimalVehicleFunctions@@YAXPAUvehicleInfo_t@@@Z 20034310 f   AnimalNPC.obj
 0001:00033b60       _Decodeaddress             20034b60 f   asmserv.obj
 0001:00033b80       _Disassembleback           20034b80 f   asmserv.obj
 0001:00033da0       _Disassembleforward        20034da0 f   asmserv.obj
 0001:00033ec0       _Isfilling                 20034ec0 f   asmserv.obj
 0001:000341a0       _Print3dnow                200351a0 f   asmserv.obj
 0001:00034230       _Printfloat10              20035230 f   asmserv.obj
 0001:00034620       _Printfloat4               20035620 f   asmserv.obj
 0001:00034750       _Printfloat8               20035750 f   asmserv.obj
 0001:000375d0       _Assemble                  200385d0 f   assembl.obj
 0001:0003aac0       _powf                      2003bac0 f i assembl.obj
 0001:0003ab10       ?BG_AttachToRancor@@YAXPAXMQAMHPAH1H11QAY02M@Z 2003bb10 f   bg_g2_utils.obj
 0001:0003ae80       ?BG_GetRootSurfNameWithVariant@@YAHPAXPBDPADH@Z 2003be80 f   bg_g2_utils.obj
 0001:0003b410       ?BG_AddPredictableEventToPlayerstate@@YAXHHPAUplayerState_s@@@Z 2003c410 f   bg_misc.obj
 0001:0003b500       ?BG_Alloc@@YAPAXH@Z        2003c500 f   bg_misc.obj
 0001:0003b5c0       ?BG_AllocUnaligned@@YAPAXH@Z 2003c5c0 f   bg_misc.obj
 0001:0003b640       ?BG_CanItemBeGrabbed@@YAHHPBUentityState_s@@PBUplayerState_s@@@Z 2003c640 f   bg_misc.obj
 0001:0003bc80       ?BG_CanUseFPNow@@YAHHPAUplayerState_s@@HH@Z 2003cc80 f   bg_misc.obj
 0001:0003bed0       ?BG_CompareFields@@YAHPAUBG_field_t@@PAE1@Z 2003ced0 f   bg_misc.obj
 0001:0003c050       ?BG_CopyField@@YAXPAUBG_field_t@@PAE1@Z 2003d050 f   bg_misc.obj
 0001:0003c1a0       ?BG_CycleForce@@YAXPAUplayerState_s@@H@Z 2003d1a0 f   bg_misc.obj
 0001:0003c370       ?BG_CycleInven@@YAXPAUplayerState_s@@H@Z 2003d370 f   bg_misc.obj
 0001:0003c4d0       ?BG_EmplacedView@@YAHQAM0PAMM@Z 2003d4d0 f   bg_misc.obj
 0001:0003c650       ?BG_EvaluateTrajectory@@YAXPBUtrajectory_t@@HQAM@Z 2003d650 f   bg_misc.obj
 0001:0003cdf0       ?BG_EvaluateTrajectoryDelta@@YAXPBUtrajectory_t@@HQAM@Z 2003ddf0 f   bg_misc.obj
 0001:0003d3b0       ?BG_FileExists@@YAHPBD@Z   2003e3b0 f   bg_misc.obj
 0001:0003d430       ?BG_FindItem@@YAPAUgitem_s@@PBD@Z 2003e430 f   bg_misc.obj
 0001:0003d490       ?BG_FindItemForAmmo@@YAPAUgitem_s@@W4ammo_t@@@Z 2003e490 f   bg_misc.obj
 0001:0003d500       ?BG_FindItemForHoldable@@YAPAUgitem_s@@H@Z 2003e500 f   bg_misc.obj
 0001:0003d580       ?BG_FindItemForPowerup@@YAPAUgitem_s@@H@Z 2003e580 f   bg_misc.obj
 0001:0003d600       ?BG_FindItemForWeapon@@YAPAUgitem_s@@H@Z 2003e600 f   bg_misc.obj
 0001:0003d670       ?BG_FreeField@@YAXW4fieldtype_t@@PAX@Z 2003e670 f   bg_misc.obj
 0001:0003d6c0       ?BG_FreeFields@@YAXPAUBG_field_t@@PAE@Z 2003e6c0 f   bg_misc.obj
 0001:0003d720       ?BG_GetField@@YAHPAUBG_field_t@@PADIPAE@Z 2003e720 f   bg_misc.obj
 0001:0003da70       ?BG_GetItemIndexByTag@@YAHHH@Z 2003ea70 f   bg_misc.obj
 0001:0003dae0       ?BG_HasYsalamiri@@YAHHPAUplayerState_s@@@Z 2003eae0 f   bg_misc.obj
 0001:0003db60       ?BG_IsItemSelectable@@YAHPAUplayerState_s@@H@Z 2003eb60 f   bg_misc.obj
 0001:0003dba0       ?BG_IsValidCharacterModel@@YAHPBD0@Z 2003eba0 f   bg_misc.obj
 0001:0003dc60       ?BG_LegalizedForcePowers@@YAHPADHHHHH@Z 2003ec60 f   bg_misc.obj
 0001:0003e9a0       ?BG_ModelCache@@YAHPBD0@Z  2003f9a0 f   bg_misc.obj
 0001:0003ea30       ?BG_OutOfMemory@@YAHXZ     2003fa30 f   bg_misc.obj
 0001:0003ea70       ?BG_ParseField@@YAHPAUBG_field_t@@PBD1PAX@Z 2003fa70 f   bg_misc.obj
 0001:0003eaf0       ?BG_ParseType@@YAHW4fieldtype_t@@PBDPAX@Z 2003faf0 f   bg_misc.obj
 0001:0003edb0       ?BG_PlayerStateToEntityState@@YAXPAUplayerState_s@@PAUentityState_s@@H@Z 2003fdb0 f   bg_misc.obj
 0001:0003f660       ?BG_PlayerStateToEntityStateExtraPolate@@YAXPAUplayerState_s@@PAUentityState_s@@HH@Z 20040660 f   bg_misc.obj
 0001:0003ff20       ?BG_PlayerTouchesItem@@YAHPAUplayerState_s@@PAUentityState_s@@H@Z 20040f20 f   bg_misc.obj
 0001:000400c0       ?BG_ProperForceIndex@@YAHH@Z 200410c0 f   bg_misc.obj
 0001:00040110       ?BG_StringAlloc@@YAPADPBD@Z 20041110 f   bg_misc.obj
 0001:00040160       ?BG_TempAlloc@@YAPAXH@Z    20041160 f   bg_misc.obj
 0001:000401e0       ?BG_TempFree@@YAXH@Z       200411e0 f   bg_misc.obj
 0001:00040250       ?BG_TouchJumpPad@@YAXPAUplayerState_s@@PAUentityState_s@@@Z 20041250 f   bg_misc.obj
 0001:00040640       ?BG_ValidateSkinForTeam@@YAHPBDPADHPAM@Z 20041640 f   bg_misc.obj
 0001:00040b80       ?atan2@@YAMMM@Z            20041b80 f i bg_misc.obj
 0001:00040bc0       ?cos@@YAMM@Z               20041bc0 f i bg_misc.obj
 0001:00040bf0       ?duelInProgress@@YAHPBUplayerState_s@@@Z 20041bf0 f   bg_misc.obj
 0001:00040c10       ?fabs@@YAMM@Z              20041c10 f i bg_misc.obj
 0001:00040c40       ?sin@@YAMM@Z               20041c40 f i bg_misc.obj
 0001:00040c70       ?vectoyaw@@YAMQBM@Z        20041c70 f   bg_misc.obj
 0001:00040de0       _atan2f                    20041de0 f i bg_misc.obj
 0001:00040e30       _cosf                      20041e30 f i bg_misc.obj
 0001:00040e70       _sinf                      20041e70 f i bg_misc.obj
 0001:00040eb0       ?BG_AnimLength@@YAHHW4animNumber_t@@@Z 20041eb0 f   bg_panimate.obj
 0001:00040f40       ?BG_AnimsetAlloc@@YAPAUanimation_s@@XZ 20041f40 f   bg_panimate.obj
 0001:00040fc0       ?BG_AnimsetFree@@YAXPAUanimation_s@@@Z 20041fc0 f   bg_panimate.obj
 0001:00040fe0       ?BG_BrokenParryForAttack@@YAHH@Z 20041fe0 f   bg_panimate.obj
 0001:000410a0       ?BG_BrokenParryForParry@@YAHH@Z 200420a0 f   bg_panimate.obj
 0001:00041230       ?BG_ClearAnimsets@@YAXXZ   20042230 f   bg_panimate.obj
 0001:00041250       ?BG_CrouchAnim@@YAHH@Z     20042250 f   bg_panimate.obj
 0001:000413c0       ?BG_DirectFlippingAnim@@YAHH@Z 200423c0 f   bg_panimate.obj
 0001:00041400       ?BG_FlipPart@@YAXPAUplayerState_s@@H@Z 20042400 f   bg_panimate.obj
 0001:00041480       ?BG_FlippingAnim@@YAHH@Z   20042480 f   bg_panimate.obj
 0001:000415c0       ?BG_FullBodyTauntAnim@@YAHH@Z 200425c0 f   bg_panimate.obj
 0001:00041640       ?BG_HasAnimation@@YAHHH@Z  20042640 f   bg_panimate.obj
 0001:000416c0       ?BG_InBackFlip@@YAHH@Z     200426c0 f   bg_panimate.obj
 0001:00041700       ?BG_InDeathAnim@@YAHH@Z    20042700 f   bg_panimate.obj
 0001:00041770       ?BG_InExtraDefenseSaberMove@@YAHH@Z 20042770 f   bg_panimate.obj
 0001:00041800       ?BG_InGrappleMove@@YAHH@Z  20042800 f   bg_panimate.obj
 0001:00041880       ?BG_InKataAnim@@YAHH@Z     20042880 f   bg_panimate.obj
 0001:000418c0       ?BG_InKnockDownOnGround@@YAHPAUplayerState_s@@@Z 200428c0 f   bg_panimate.obj
 0001:00041a10       ?BG_InKnockDownOnly@@YAHH@Z 20042a10 f   bg_panimate.obj
 0001:00041a50       ?BG_InReboundHold@@YAHH@Z  20042a50 f   bg_panimate.obj
 0001:00041a90       ?BG_InReboundJump@@YAHH@Z  20042a90 f   bg_panimate.obj
 0001:00041ad0       ?BG_InReboundRelease@@YAHH@Z 20042ad0 f   bg_panimate.obj
 0001:00041b10       ?BG_InRoll@@YAHPAUplayerState_s@@H@Z 20042b10 f   bg_panimate.obj
 0001:00041be0       ?BG_InSaberLock@@YAHH@Z    20042be0 f   bg_panimate.obj
 0001:00041cd0       ?BG_InSaberLockOld@@YAHH@Z 20042cd0 f   bg_panimate.obj
 0001:00041d40       ?BG_InSaberStandAnim@@YAHH@Z 20042d40 f   bg_panimate.obj
 0001:00041d90       ?BG_InSpecialDeathAnim@@YAHH@Z 20042d90 f   bg_panimate.obj
 0001:00041dd0       ?BG_InSpecialJump@@YAHH@Z  20042dd0 f   bg_panimate.obj
 0001:00041f80       ?BG_InitAnimsets@@YAXXZ    20042f80 f   bg_panimate.obj
 0001:00041fc0       ?BG_KickMove@@YAHH@Z       20042fc0 f   bg_panimate.obj
 0001:00042000       ?BG_KickingAnim@@YAHH@Z    20043000 f   bg_panimate.obj
 0001:000420b0       ?BG_KnockawayForParry@@YAHH@Z 200430b0 f   bg_panimate.obj
 0001:00042140       ?BG_ParseAnimationFile@@YAHPBDPAUanimation_s@@H@Z 20043140 f   bg_panimate.obj
 0001:00042840       ?BG_PickAnim@@YAHHHH@Z     20043840 f   bg_panimate.obj
 0001:000428c0       ?BG_SaberInAttack@@YAHH@Z  200438c0 f   bg_panimate.obj
 0001:00042910       ?BG_SaberInAttackPure@@YAHH@Z 20043910 f   bg_panimate.obj
 0001:00042940       ?BG_SaberInIdle@@YAHH@Z    20043940 f   bg_panimate.obj
 0001:00042980       ?BG_SaberInKata@@YAHH@Z    20043980 f   bg_panimate.obj
 0001:000429c0       ?BG_SaberInReturn@@YAHH@Z  200439c0 f   bg_panimate.obj
 0001:000429f0       ?BG_SaberInSpecial@@YAHH@Z 200439f0 f   bg_panimate.obj
 0001:00042a30       ?BG_SaberInSpecialAttack@@YAHH@Z 20043a30 f   bg_panimate.obj
 0001:00042c20       ?BG_SaberInTransitionAny@@YAHH@Z 20043c20 f   bg_panimate.obj
 0001:00042ca0       ?BG_SaberLockBreakAnim@@YAHH@Z 20043ca0 f   bg_panimate.obj
 0001:00042dd0       ?BG_SaberStanceAnim@@YAHH@Z 20043dd0 f   bg_panimate.obj
 0001:00042e90       ?BG_SaberStartTransAnim@@YAXHHHHPAMH@Z 20043e90 f   bg_panimate.obj
 0001:00043120       ?BG_SetAnim@@YAXPAUplayerState_s@@PAUanimation_s@@HHHH@Z 20044120 f   bg_panimate.obj
 0001:00043270       ?BG_SetAnimFinal@@YAXPAUplayerState_s@@PAUanimation_s@@HHHH@Z 20044270 f   bg_panimate.obj
 0001:000437c0       ?BG_SetLegsAnimTimer@@YAXPAUplayerState_s@@H@Z 200447c0 f   bg_panimate.obj
 0001:00043800       ?BG_SetTorsoAnimTimer@@YAXPAUplayerState_s@@H@Z 20044800 f   bg_panimate.obj
 0001:00043840       ?BG_SpinningSaberAnim@@YAHH@Z 20044840 f   bg_panimate.obj
 0001:00043b90       ?BG_StabDownAnim@@YAHH@Z   20044b90 f   bg_panimate.obj
 0001:00043c80       ?BG_StartTorsoAnim@@YAXPAUplayerState_s@@H@Z 20044c80 f   bg_panimate.obj
 0001:00043d00       ?BG_SuperBreakLoseAnim@@YAHH@Z 20044d00 f   bg_panimate.obj
 0001:00043dd0       ?BG_SuperBreakWinAnim@@YAHH@Z 20044dd0 f   bg_panimate.obj
 0001:00043ea0       ?PM_AnimLength@@YAHHW4animNumber_t@@@Z 20044ea0 f   bg_panimate.obj
 0001:00043f70       ?PM_CanRollFromSoulCal@@YAHPAUplayerState_s@@@Z 20044f70 f   bg_panimate.obj
 0001:00043fc0       ?PM_ContinueLegsAnim@@YAXH@Z 20044fc0 f   bg_panimate.obj
 0001:00044020       ?PM_DebugLegsAnim@@YAXH@Z  20045020 f   bg_panimate.obj
 0001:000440d0       ?PM_ForceLegsAnim@@YAXH@Z  200450d0 f   bg_panimate.obj
 0001:000441b0       ?PM_InCartwheel@@YAHH@Z    200451b0 f   bg_panimate.obj
 0001:00044200       ?PM_InKnockDown@@YAHPAUplayerState_s@@@Z 20045200 f   bg_panimate.obj
 0001:000442a0       ?PM_InOnGroundAnim@@YAHH@Z 200452a0 f   bg_panimate.obj
 0001:00044370       ?PM_InRollComplete@@YAHPAUplayerState_s@@H@Z 20045370 f   bg_panimate.obj
 0001:000443c0       ?PM_InSaberAnim@@YAHH@Z    200453c0 f   bg_panimate.obj
 0001:00044400       ?PM_JumpingAnim@@YAHH@Z    20045400 f   bg_panimate.obj
 0001:00044440       ?PM_LandingAnim@@YAHH@Z    20045440 f   bg_panimate.obj
 0001:000444c0       ?PM_PainAnim@@YAHH@Z       200454c0 f   bg_panimate.obj
 0001:00044500       ?PM_SaberBounceForAttack@@YAHH@Z 20045500 f   bg_panimate.obj
 0001:000445b0       ?PM_SaberDeflectionForQuad@@YAHH@Z 200455b0 f   bg_panimate.obj
 0001:00044670       ?PM_SaberInDeflect@@YAHH@Z 20045670 f   bg_panimate.obj
 0001:000446b0       ?PM_SaberInKnockaway@@YAHH@Z 200456b0 f   bg_panimate.obj
 0001:000446f0       ?PM_SaberInParry@@YAHH@Z   200456f0 f   bg_panimate.obj
 0001:00044730       ?PM_SaberInReflect@@YAHH@Z 20045730 f   bg_panimate.obj
 0001:00044770       ?PM_SaberInReturn@@YAHH@Z  20045770 f   bg_panimate.obj
 0001:000447a0       ?PM_SaberInStart@@YAHH@Z   200457a0 f   bg_panimate.obj
 0001:000447d0       ?PM_SaberInTransition@@YAHH@Z 200457d0 f   bg_panimate.obj
 0001:00044800       ?PM_SetAnim@@YAXHHHH@Z     20045800 f   bg_panimate.obj
 0001:00044850       ?PM_SetAnimFinal@@YAXHHHH@Z 20045850 f   bg_panimate.obj
 0001:000448a0       ?PM_SetLegsAnimTimer@@YAXH@Z 200458a0 f   bg_panimate.obj
 0001:000448d0       ?PM_SetTorsoAnimTimer@@YAXH@Z 200458d0 f   bg_panimate.obj
 0001:00044900       ?PM_SpinningAnim@@YAHH@Z   20045900 f   bg_panimate.obj
 0001:00044930       ?PM_StartTorsoAnim@@YAXH@Z 20045930 f   bg_panimate.obj
 0001:00044960       ?ceil@@YAMM@Z              20045960 f i bg_panimate.obj
 0001:00044990       ?floor@@YAMM@Z             20045990 f i bg_panimate.obj
 0001:000449c0       _ceilf                     200459c0 f i bg_panimate.obj
 0001:00044a00       _floorf                    20045a00 f i bg_panimate.obj
 0001:00044a40       ?BG_AdjustClientSpeed@@YAXPAUplayerState_s@@PAUusercmd_s@@H@Z 20045a40 f   bg_pmove.obj
 0001:000451e0       ?BG_ClearRocketLock@@YAXPAUplayerState_s@@@Z 200461e0 f   bg_pmove.obj
 0001:00045260       ?BG_CmdForRoll@@YAXPAUplayerState_s@@HPAUusercmd_s@@@Z 20046260 f   bg_pmove.obj
 0001:000455f0       ?BG_ExternThisSoICanRecompileInDebug@@YAXPAUVehicle_s@@PAUplayerState_s@@@Z 200465f0 f   bg_pmove.obj
 0001:00045650       ?BG_G2ATSTAngles@@YAXPAXHQAM@Z 20046650 f   bg_pmove.obj
 0001:00046450       ?BG_G2PlayerAngles@@YAXPAXHPAUentityState_s@@HQAM2QAY02M2PAH44PAM55H22HH422H14@Z 20047450 f   bg_pmove.obj
 0001:000481f0       ?BG_IK_MoveArm@@YAXPAXHHPAUentityState_s@@HQAMPAH222HH@Z 200491f0 f   bg_pmove.obj
 0001:00048e60       ?BG_InKnockDown@@YAHH@Z    20049e60 f   bg_pmove.obj
 0001:00048f00       ?BG_InRoll2@@YAHPAUentityState_s@@@Z 20049f00 f   bg_pmove.obj
 0001:00048fd0       ?BG_InRollAnim@@YAHPAUentityState_s@@@Z 20049fd0 f   bg_pmove.obj
 0001:00049020       ?BG_InRollES@@YAHPAUentityState_s@@H@Z 2004a020 f   bg_pmove.obj
 0001:00049060       ?BG_InSlopeAnim@@YAHH@Z    2004a060 f   bg_pmove.obj
 0001:000490a0       ?BG_KnockDownable@@YAHPAUplayerState_s@@@Z 2004a0a0 f   bg_pmove.obj
 0001:000490f0       ?BG_SabersOff@@YAHPAUplayerState_s@@@Z 2004a0f0 f   bg_pmove.obj
 0001:00049440       ?BG_UnrestrainedPitchRoll@@YAHPAUplayerState_s@@PAUVehicle_s@@@Z 2004a440 f   bg_pmove.obj
 0001:000494c0       ?BG_UpdateLookAngles@@YAXHQAMH0MMMMMMM@Z 2004a4c0 f   bg_pmove.obj
 0001:00049950       ?BG_VehTraceFromCamPos@@YAHPAUtrace_t@@PAUbgEntity_s@@QBM22QAM3M@Z 2004a950 f   bg_pmove.obj
 0001:00049e20       ?BG_VehicleAdjustBBoxForOrientation@@YAXPAUVehicle_s@@QAM11HHP6AXPAUtrace_t@@QBM333HH@Z@Z 2004ae20 f   bg_pmove.obj
 0001:0004ba60       ?BG_VehicleTurnRateForSpeed@@YAXPAUVehicle_s@@MPAM1@Z 2004ca60 f   bg_pmove.obj
 0001:0004c1f0       ?PM_AddEvent@@YAXH@Z       2004d1f0 f   bg_pmove.obj
 0001:0004c220       ?PM_AddEventWithParm@@YAXHH@Z 2004d220 f   bg_pmove.obj
 0001:0004c260       ?PM_AddTouchEnt@@YAXH@Z    2004d260 f   bg_pmove.obj
 0001:0004c310       ?PM_AdjustAngleForWallJump@@YAHPAUplayerState_s@@PAUusercmd_s@@H@Z 2004d310 f   bg_pmove.obj
 0001:0004cdf0       ?PM_AdjustAngleForWallRun@@YAHPAUplayerState_s@@PAUusercmd_s@@H@Z 2004ddf0 f   bg_pmove.obj
 0001:0004d820       ?PM_AdjustAngleForWallRunUp@@YAHPAUplayerState_s@@PAUusercmd_s@@H@Z 2004e820 f   bg_pmove.obj
 0001:0004e300       ?PM_AdjustAnglesForWallRunUpFlipAlt@@YAHPAUusercmd_s@@@Z 2004f300 f   bg_pmove.obj
 0001:0004e350       ?PM_AdjustAttackStates@@YAXPAUpmove_t@@@Z 2004f350 f   bg_pmove.obj
 0001:0004e9a0       ?PM_AdjustStandAnimForSlope@@YAHXZ 2004f9a0 f   bg_pmove.obj
 0001:0004fd30       ?PM_AnglesForSlope@@YAXMQBMQAM@Z 20050d30 f   bg_pmove.obj
 0001:00050150       ?PM_BGEntForNum@@YAPAUbgEntity_s@@H@Z 20051150 f   bg_pmove.obj
 0001:000502a0       ?PM_BeginWeaponChange@@YAXH@Z 200512a0 f   bg_pmove.obj
 0001:000503d0       ?PM_CanSetWeaponAnims@@YAHXZ 200513d0 f   bg_pmove.obj
 0001:00050610       ?PM_CheckDualForwardJumpDuck@@YAHXZ 20051610 f   bg_pmove.obj
 0001:00050a00       ?PM_CheckFixMins@@YAXXZ    20051a00 f   bg_pmove.obj
 0001:00057130       ?PM_ClipVelocity@@YAXQAM00M@Z 20058130 f   bg_pmove.obj
 0001:00059a30       ?PM_DoSlowFall@@YAHXZ      2005aa30 f   bg_pmove.obj
 0001:00059bd0       ?PM_FinishWeaponChange@@YAXXZ 2005abd0 f   bg_pmove.obj
 0001:0005a610       ?PM_FootSlopeTrace@@YAXPAM0@Z 2005b610 f   bg_pmove.obj
 0001:0005be40       ?PM_ForceJumpingUp@@YAHXZ  2005ce40 f   bg_pmove.obj
 0001:0005c630       ?PM_GetOkWeaponForVehicle@@YAHXZ 2005d630 f   bg_pmove.obj
 0001:0005c6b0       ?PM_GetSaberStance@@YAHXZ  2005d6b0 f   bg_pmove.obj
 0001:0005c9f0       ?PM_GrabWallForJump@@YAXH@Z 2005d9f0 f   bg_pmove.obj
 0001:0005d6b0       ?PM_HoverTrace@@YAXXZ      2005e6b0 f   bg_pmove.obj
 0001:0005e2b0       ?PM_IsRocketTrooper@@YAHXZ 2005f2b0 f i bg_pmove.obj
 0001:0005e2d0       ?PM_ItemUsable@@YAHPAUplayerState_s@@H@Z 2005f2d0 f   bg_pmove.obj
 0001:0005ed80       ?PM_LegsSlopeBackTransition@@YAHH@Z 2005fd80 f   bg_pmove.obj
 0001:0005eef0       ?PM_MoveForKata@@YAXPAUusercmd_s@@@Z 2005fef0 f   bg_pmove.obj
 0001:0005f730       ?PM_RocketLock@@YAXMH@Z    20060730 f   bg_pmove.obj
 0001:00060180       ?PM_RollingAnim@@YAHH@Z    20061180 f   bg_pmove.obj
 0001:000601c0       ?PM_RunningAnim@@YAHH@Z    200611c0 f   bg_pmove.obj
 0001:00060960       ?PM_SetForceJumpZStart@@YAXM@Z 20061960 f   bg_pmove.obj
 0001:00060c60       ?PM_SetPMViewAngle@@YAXPAUplayerState_s@@QAMPAUusercmd_s@@@Z 20061c60 f   bg_pmove.obj
 0001:00060d60       ?PM_SetSpecialMoveValues@@YAXXZ 20061d60 f   bg_pmove.obj
 0001:00061930       ?PM_SwimmingAnim@@YAHH@Z   20062930 f   bg_pmove.obj
 0001:000622b0       ?PM_UpdateViewAngles@@YAXPAUplayerState_s@@PBUusercmd_s@@@Z 200632b0 f   bg_pmove.obj
 0001:00062430       ?PM_Use@@YAXXZ             20063430 f   bg_pmove.obj
 0001:000624e0       ?PM_VehFaceHyperspacePoint@@YAXPAUbgEntity_s@@@Z 200634e0 f   bg_pmove.obj
 0001:00062960       ?PM_VehForcedTurning@@YAXPAUbgEntity_s@@@Z 20063960 f   bg_pmove.obj
 0001:00062cf0       ?PM_VehicleViewAngles@@YAXPAUplayerState_s@@PAUbgEntity_s@@PAUusercmd_s@@@Z 20063cf0 f   bg_pmove.obj
 0001:00063100       ?PM_VehicleWeaponAnimate@@YAXXZ 20064100 f   bg_pmove.obj
 0001:000641d0       ?PM_WalkingAnim@@YAHH@Z    200651d0 f   bg_pmove.obj
 0001:00067210       ?PM_WeaponOkOnVehicle@@YAHH@Z 20068210 f   bg_pmove.obj
 0001:00067250       ?PM_pitch_roll_for_slope@@YAXPAUbgEntity_s@@QAM1@Z 20068250 f   bg_pmove.obj
 0001:00067a10       ?Pmove@@YAXPAUpmove_t@@@Z  20068a10 f   bg_pmove.obj
 0001:00067d10       ?PmoveSingle@@YAXPAUpmove_t@@@Z 20068d10 f   bg_pmove.obj
 0001:0006b470       ?emoteAnim@@YAPAUemote_t@@H@Z 2006c470 f   bg_pmove.obj
 0001:0006b4e0       ?endAnim@@YAHH@Z           2006c4e0 f   bg_pmove.obj
 0001:0006b560       ?BG_CheckIncrementLockAnim@@YAHHH@Z 2006c560 f   bg_saber.obj
 0001:0006b680       ?BG_EnoughForcePowerForMove@@YAHH@Z 2006c680 f   bg_saber.obj
 0001:0006b6d0       ?BG_ForcePowerDrain@@YAXPAUplayerState_s@@HH@Z 2006c6d0 f   bg_saber.obj
 0001:0006b980       ?BG_MySaber@@YAPAUsaberInfo_t@@HH@Z 2006c980 f   bg_saber.obj
 0001:0006bbb0       ?PM_AttackMoveForQuad@@YAHH@Z 2006cbb0 f   bg_saber.obj
 0001:0006bc60       ?PM_BrokenParryForParry@@YAHH@Z 2006cc60 f   bg_saber.obj
 0001:0006bde0       ?PM_CanBackstab@@YAHXZ     2006cde0 f   bg_saber.obj
 0001:0006c1c0       ?PM_CanDoKata@@YAHXZ       2006d1c0 f   bg_saber.obj
 0001:0006c3e0       ?PM_CanDoRollStab@@YAHXZ   2006d3e0 f   bg_saber.obj
 0001:0006c4a0       ?PM_CheckAltKickAttack@@YAHXZ 2006d4a0 f   bg_saber.obj
 0001:0006cae0       ?PM_CheckPullAttack@@YAHXZ 2006dae0 f   bg_saber.obj
 0001:0006cb00       ?PM_CheckStabDown@@YAHXZ   2006db00 f   bg_saber.obj
 0001:0006cef0       ?PM_GroundDistance@@YAMXZ  2006def0 f   bg_saber.obj
 0001:0006d100       ?PM_InSecondaryStyle@@YAHXZ 2006e100 f   bg_saber.obj
 0001:0006d170       ?PM_KickMoveForConditions@@YAHXZ 2006e170 f   bg_saber.obj
 0001:0006d360       ?PM_SaberAnimTransitionAnim@@YAHHH@Z 2006e360 f   bg_saber.obj
 0001:0006d600       ?PM_SaberAttackChainAngle@@YAHHH@Z 2006e600 f   bg_saber.obj
 0001:0006d650       ?PM_SaberAttackForMovement@@YAHH@Z 2006e650 f   bg_saber.obj
 0001:0006e890       ?PM_SaberBackflipAttackMove@@YAHXZ 2006f890 f   bg_saber.obj
 0001:0006e9d0       ?PM_SaberDualJumpAttackMove@@YAHXZ 2006f9d0 f   bg_saber.obj
 0001:0006ea00       ?PM_SaberFlipOverAttackMove@@YAHXZ 2006fa00 f   bg_saber.obj
 0001:0006ed30       ?PM_SaberInBounce@@YAHH@Z  2006fd30 f   bg_saber.obj
 0001:0006ed80       ?PM_SaberInBrokenParry@@YAHH@Z 2006fd80 f   bg_saber.obj
 0001:0006ede0       ?PM_SaberJumpAttackMove2@@YAHXZ 2006fde0 f   bg_saber.obj
 0001:0006ef10       ?PM_SaberJumpAttackMove@@YAHXZ 2006ff10 f   bg_saber.obj
 0001:0006f240       ?PM_SaberKataDone@@YAHHH@Z 20070240 f   bg_saber.obj
 0001:0006f530       ?PM_SaberLockBreak@@YAXPAUplayerState_s@@HH@Z 20070530 f   bg_saber.obj
 0001:0006fd20       ?PM_SaberLockLoseAnim@@YAHPAUplayerState_s@@HH@Z 20070d20 f   bg_saber.obj
 0001:0006ffc0       ?PM_SaberLockResultAnim@@YAHPAUplayerState_s@@HH@Z 20070fc0 f   bg_saber.obj
 0001:00070190       ?PM_SaberLockWinAnim@@YAHHH@Z 20071190 f   bg_saber.obj
 0001:000703d0       ?PM_SaberLocked@@YAXXZ     200713d0 f   bg_saber.obj
 0001:00070ac0       ?PM_SaberLungeAttackMove@@YAHH@Z 20071ac0 f   bg_saber.obj
 0001:00070dd0       ?PM_SaberMoveOkayForKata@@YAHXZ 20071dd0 f   bg_saber.obj
 0001:00070e30       ?PM_SaberMoveQuadrantForMovement@@YAHPAUusercmd_s@@@Z 20071e30 f   bg_saber.obj
 0001:00070f20       ?PM_SaberPowerCheck@@YAHXZ 20071f20 f   bg_saber.obj
 0001:00070fe0       ?PM_SetAnimFrame@@YAXPAUplayerState_s@@HHH@Z 20071fe0 f   bg_saber.obj
 0001:00071010       ?PM_SetSaberMove@@YAXF@Z   20072010 f   bg_saber.obj
 0001:00071bb0       ?PM_SomeoneInFront@@YAHPAUtrace_t@@@Z 20072bb0 f   bg_saber.obj
 0001:00071ea0       ?PM_WalkableGroundDistance@@YAMXZ 20072ea0 f   bg_saber.obj
 0001:000720e0       ?PM_WeaponLightsaber@@YAXXZ 200730e0 f   bg_saber.obj
 0001:00074210       ?PM_irand_timesync@@YAHHH@Z 20075210 f   bg_saber.obj
 0001:00074360       ?BG_BLADE_ActivateTrail@@YAXPAUbladeInfo_t@@M@Z 20075360 f   bg_saberLoad.obj
 0001:00074390       ?BG_BLADE_DeactivateTrail@@YAXPAUbladeInfo_t@@M@Z 20075390 f   bg_saberLoad.obj
 0001:000743c0       ?BG_ParseLiteral@@YAHPAPBDPBD@Z 200753c0 f   bg_saberLoad.obj
 0001:00074460       ?BG_SI_Activate@@YAXPAUsaberInfo_t@@@Z 20075460 f   bg_saberLoad.obj
 0001:000744c0       ?BG_SI_ActivateTrail@@YAXPAUsaberInfo_t@@M@Z 200754c0 f   bg_saberLoad.obj
 0001:00074530       ?BG_SI_Active@@YAHPAUsaberInfo_t@@@Z 20075530 f   bg_saberLoad.obj
 0001:000745a0       ?BG_SI_BladeActivate@@YAXPAUsaberInfo_t@@HH@Z 200755a0 f   bg_saberLoad.obj
 0001:000745f0       ?BG_SI_Deactivate@@YAXPAUsaberInfo_t@@@Z 200755f0 f   bg_saberLoad.obj
 0001:00074650       ?BG_SI_DeactivateTrail@@YAXPAUsaberInfo_t@@M@Z 20075650 f   bg_saberLoad.obj
 0001:000746c0       ?BG_SI_Length@@YAMPAUsaberInfo_t@@@Z 200756c0 f   bg_saberLoad.obj
 0001:00074760       ?BG_SI_LengthMax@@YAMPAUsaberInfo_t@@@Z 20075760 f   bg_saberLoad.obj
 0001:00074800       ?BG_SI_SetDesiredLength@@YAXPAUsaberInfo_t@@MH@Z 20075800 f   bg_saberLoad.obj
 0001:000748a0       ?BG_SI_SetLength@@YAXPAUsaberInfo_t@@M@Z 200758a0 f   bg_saberLoad.obj
 0001:00074900       ?BG_SI_SetLengthGradual@@YAXPAUsaberInfo_t@@H@Z 20075900 f   bg_saberLoad.obj
 0001:00074d10       ?BG_SoundIndex@@YAHPAD@Z   20075d10 f   bg_saberLoad.obj
 0001:00074d40       ?TranslateSaberColor@@YAHPBD@Z 20075d40 f   bg_saberLoad.obj
 0001:00074e60       ?TranslateSaberStyle@@YA?AW4saber_styles_t@@PBD@Z 20075e60 f   bg_saberLoad.obj
 0001:00074f80       ?WP_RemoveSaber@@YAXPAUsaberInfo_t@@H@Z 20075f80 f   bg_saberLoad.obj
 0001:00075040       ?WP_SaberBladeDoTransitionDamage@@YAHPAUsaberInfo_t@@H@Z 20076040 f   bg_saberLoad.obj
 0001:000750d0       ?WP_SaberBladeUseSecondBladeStyle@@YAHPAUsaberInfo_t@@H@Z 200760d0 f   bg_saberLoad.obj
 0001:00075120       ?WP_SaberCanTurnOffSomeBlades@@YAHPAUsaberInfo_t@@@Z 20076120 f   bg_saberLoad.obj
 0001:000751b0       ?WP_SaberLoadParms@@YAXXZ  200761b0 f   bg_saberLoad.obj
 0001:000753f0       ?WP_SaberParseParm@@YAHPBD0PAD@Z 200763f0 f   bg_saberLoad.obj
 0001:000755d0       ?WP_SaberParseParms@@YAHPBDPAUsaberInfo_t@@@Z 200765d0 f   bg_saberLoad.obj
 0001:00079570       ?WP_SaberSetColor@@YAXPAUsaberInfo_t@@HHPAD@Z 2007a570 f   bg_saberLoad.obj
 0001:000795c0       ?WP_SaberSetDefaults@@YAXPAUsaberInfo_t@@@Z 2007a5c0 f   bg_saberLoad.obj
 0001:00079d80       ?WP_SaberStyleValidForSaber@@YAHPAUsaberInfo_t@@0HH@Z 2007ad80 f   bg_saberLoad.obj
 0001:0007a030       ?WP_SaberValidForPlayerInMP@@YAHPBD@Z 2007b030 f   bg_saberLoad.obj
 0001:0007a0f0       ?WP_SetSaber@@YAXHPAUsaberInfo_t@@HPBD@Z 2007b0f0 f   bg_saberLoad.obj
 0001:0007a250       ?WP_UseFirstValidSaberStyle@@YAHPAUsaberInfo_t@@0HPAH@Z 2007b250 f   bg_saberLoad.obj
 0001:0007a500       ?BG_GetClassOnBaseClass@@YAPAUsiegeClass_t@@HFF@Z 2007b500 f   bg_saga.obj
 0001:0007a5c0       ?BG_GetUIPortrait@@YAHHFF@Z 2007b5c0 f   bg_saga.obj
 0001:0007a680       ?BG_GetUIPortraitFile@@YAPADHFF@Z 2007b680 f   bg_saga.obj
 0001:0007a740       ?BG_PrecacheSabersForSiegeTeam@@YAXH@Z 2007b740 f   bg_saga.obj
 0001:0007a930       ?BG_SiegeCheckClassLegality@@YAHHPAD@Z 2007b930 f   bg_saga.obj
 0001:0007aa20       ?BG_SiegeCountBaseClass@@YAHHF@Z 2007ba20 f   bg_saga.obj
 0001:0007aac0       ?BG_SiegeFindClassByName@@YAPAUsiegeClass_t@@PBD@Z 2007bac0 f   bg_saga.obj
 0001:0007ab40       ?BG_SiegeFindClassIndexByName@@YAHPBD@Z 2007bb40 f   bg_saga.obj
 0001:0007abb0       ?BG_SiegeFindTeamForTheme@@YAPAUsiegeTeam_t@@PAD@Z 2007bbb0 f   bg_saga.obj
 0001:0007ac40       ?BG_SiegeFindThemeForTeam@@YAPAUsiegeTeam_t@@H@Z 2007bc40 f   bg_saga.obj
 0001:0007ac80       ?BG_SiegeGetPairedValue@@YAHPAD00@Z 2007bc80 f   bg_saga.obj
 0001:0007b2d0       ?BG_SiegeGetValueGroup@@YAHPAD00@Z 2007c2d0 f   bg_saga.obj
 0001:0007bb60       ?BG_SiegeLoadClasses@@YAXPAUsiegeClassDesc_t@@@Z 2007cb60 f   bg_saga.obj
 0001:0007bcc0       ?BG_SiegeLoadTeams@@YAXXZ  2007ccc0 f   bg_saga.obj
 0001:0007bdf0       ?BG_SiegeParseClassFile@@YAXPBDPAUsiegeClassDesc_t@@@Z 2007cdf0 f   bg_saga.obj
 0001:0007ca20       ?BG_SiegeParseTeamFile@@YAXPBD@Z 2007da20 f   bg_saga.obj
 0001:0007cd60       ?BG_SiegeSetTeamTheme@@YAXHPAD@Z 2007dd60 f   bg_saga.obj
 0001:0007cdb0       ?BG_SiegeStripTabs@@YAXPAD@Z 2007ddb0 f   bg_saga.obj
 0001:0007ce40       ?BG_SiegeTranslateForcePowers@@YAXPADPAUsiegeClass_t@@@Z 2007de40 f   bg_saga.obj
 0001:0007d360       ?BG_SiegeTranslateGenericTable@@YAHPADPAUstringID_table_s@@H@Z 2007e360 f   bg_saga.obj
 0001:0007d780       ?PM_ClientImpact@@YAHPAUtrace_t@@@Z 2007e780 f   bg_slidemove.obj
 0001:0007d890       ?PM_GroundSlideOkay@@YAHM@Z 2007e890 f   bg_slidemove.obj
 0001:0007d9b0       ?PM_SlideMove@@YAHH@Z      2007e9b0 f   bg_slidemove.obj
 0001:0007ee70       ?PM_StepSlideMove@@YAXH@Z  2007fe70 f   bg_slidemove.obj
 0001:0007ff10       ?PM_VehicleImpact@@YAXPAUbgEntity_s@@PAUtrace_t@@@Z 20080f10 f   bg_slidemove.obj
 0001:000823f0       ?AttachRidersGeneric@@YAXPAUVehicle_s@@@Z 200833f0 f   bg_vehicleLoad.obj
 0001:00082580       ?BG_ClearVehicleParseParms@@YAXXZ 20083580 f   bg_vehicleLoad.obj
 0001:000825f0       ?BG_GetVehicleModelName@@YAXPAD@Z 200835f0 f   bg_vehicleLoad.obj
 0001:000826b0       ?BG_GetVehicleSkinName@@YAXPAD@Z 200836b0 f   bg_vehicleLoad.obj
 0001:00083640       ?BG_SetSharedVehicleFunctions@@YAXPAUvehicleInfo_t@@@Z 20084640 f   bg_vehicleLoad.obj
 0001:000836f0       ?BG_VehWeaponLoadParms@@YAXXZ 200846f0 f   bg_vehicleLoad.obj
 0001:00083920       ?BG_VehicleClampData@@YAXPAUvehicleInfo_t@@@Z 20084920 f   bg_vehicleLoad.obj
 0001:00083a00       ?BG_VehicleGetIndex@@YAHPBD@Z 20084a00 f   bg_vehicleLoad.obj
 0001:00083a30       ?BG_VehicleLoadParms@@YAXXZ 20084a30 f   bg_vehicleLoad.obj
 0001:00083cd0       ?BG_VehicleSetDefaults@@YAXPAUvehicleInfo_t@@@Z 20084cd0 f   bg_vehicleLoad.obj
 0001:00083d00       ?VEH_LoadVehWeapon@@YAHPBD@Z 20084d00 f   bg_vehicleLoad.obj
 0001:00083ff0       ?VEH_LoadVehicle@@YAHPBD@Z 20084ff0 f   bg_vehicleLoad.obj
 0001:00084e30       ?VEH_VehWeaponIndexForName@@YAHPBD@Z 20085e30 f   bg_vehicleLoad.obj
 0001:00084f40       ?VEH_VehicleIndexForName@@YAHPBD@Z 20085f40 f   bg_vehicleLoad.obj
 0001:00085030       ?isVehicleName@@YAHPAD@Z   20086030 f   bg_vehicleLoad.obj
 0001:00087d10       _Checkcondition            20088d10 f   disasm.obj
 0001:00087ee0       _Disasm                    20088ee0 f   disasm.obj
 0001:0008ac20       ?BG_FighterUpdate@@YAHPAUVehicle_s@@PBUusercmd_s@@QAM2MP6AXPAUtrace_t@@QBM444HH@Z@Z 2008bc20 f   FighterNPC.obj
 0001:0008b900       ?FighterIsInSpace@@YAHPAUgentity_s@@@Z 2008c900 f   FighterNPC.obj
 0001:0008b970       ?FighterIsLanded@@YAHPAUVehicle_s@@PAUplayerState_s@@@Z 2008c970 f   FighterNPC.obj
 0001:0008b9c0       ?FighterIsLanding@@YAHPAUVehicle_s@@PAUplayerState_s@@@Z 2008c9c0 f   FighterNPC.obj
 0001:0008ba30       ?FighterIsLaunching@@YAHPAUVehicle_s@@PAUplayerState_s@@@Z 2008ca30 f   FighterNPC.obj
 0001:0008bc80       ?FighterOverValidLandingSurface@@YAHPAUVehicle_s@@@Z 2008cc80 f   FighterNPC.obj
 0001:0008bce0       ?FighterPitchAdjust@@YAXPAUVehicle_s@@PAUplayerState_s@@1@Z 2008cce0 f   FighterNPC.obj
 0001:0008beb0       ?FighterPitchClamp@@YAXPAUVehicle_s@@PAUplayerState_s@@1H@Z 2008ceb0 f   FighterNPC.obj
 0001:0008c000       ?FighterSuspended@@YAHPAUVehicle_s@@PAUplayerState_s@@@Z 2008d000 f   FighterNPC.obj
 0001:0008c3e0       ?FighterYawAdjust@@YAXPAUVehicle_s@@PAUplayerState_s@@1@Z 2008d3e0 f   FighterNPC.obj
 0001:0008c5b0       ?G_CreateFighterNPC@@YAXPAPAUVehicle_s@@PBD@Z 2008d5b0 f   FighterNPC.obj
 0001:0008c620       ?G_SetFighterVehicleFunctions@@YAXPAUvehicleInfo_t@@@Z 2008d620 f   FighterNPC.obj
 0001:0008fb00       ?ClientEndFrame@@YAXPAUgentity_s@@@Z 20090b00 f   g_active.obj
 0001:0008fd40       ?ClientEvents@@YAXPAUgentity_s@@H@Z 20090d40 f   g_active.obj
 0001:000903c0       ?ClientImpacts@@YAXPAUgentity_s@@PAUpmove_t@@@Z 200913c0 f   g_active.obj
 0001:00090520       ?ClientInactivityTimer@@YAHPAUgentity_s@@@Z 20091520 f   g_active.obj
 0001:000906e0       ?ClientIntermissionThink@@YAXPAUgclient_s@@@Z 200916e0 f   g_active.obj
 0001:000907a0       ?ClientThink@@YAXHPAUusercmd_s@@@Z 200917a0 f   g_active.obj
 0001:00090880       ?ClientThink_real@@YAXPAUgentity_s@@@Z 20091880 f   g_active.obj
 0001:00098ad0       ?ClientTimerActions@@YAXPAUgentity_s@@H@Z 20099ad0 f   g_active.obj
 0001:00098ca0       ?Client_CheckImpactBBrush@@YAXPAUgentity_s@@0@Z 20099ca0 f   g_active.obj
 0001:00098ee0       ?DoImpact@@YAXPAUgentity_s@@0H@Z 20099ee0 f   g_active.obj
 0001:00099860       ?DuelEnd@@YAXPAUgentity_s@@@Z 2009a860 f   g_active.obj
 0001:00099920       ?G_ActionButtonPressed@@YAHH@Z 2009a920 f   g_active.obj
 0001:00099a10       ?G_AddPushVecToUcmd@@YAXPAUgentity_s@@PAUusercmd_s@@@Z 2009aa10 f   g_active.obj
 0001:00099fd0       ?G_CheapWeaponFire@@YAXHH@Z 2009afd0 f   g_active.obj
 0001:0009a210       ?G_CheckClientIdle@@YAXPAUgentity_s@@PAUusercmd_s@@@Z 2009b210 f   g_active.obj
 0001:0009ac50       ?G_CheckClientTimeouts@@YAXPAUgentity_s@@@Z 2009bc50 f   g_active.obj
 0001:0009acf0       ?G_CheckMovingLoopingSounds@@YAXPAUgentity_s@@PAUusercmd_s@@@Z 2009bcf0 f   g_active.obj
 0001:0009af70       ?G_HeldByMonster@@YAXPAUgentity_s@@PAPAUusercmd_s@@@Z 2009bf70 f   g_active.obj
 0001:0009b1d0       ?G_MoverTouchPushTriggers@@YAXPAUgentity_s@@QAM@Z 2009c1d0 f   g_active.obj
 0001:0009b1f0       ?G_RunClient@@YAXPAUgentity_s@@@Z 2009c1f0 f   g_active.obj
 0001:0009b250       ?G_SetClientSound@@YAXPAUgentity_s@@@Z 2009c250 f   g_active.obj
 0001:0009b4a0       ?G_SetTauntAnim@@YAXPAUgentity_s@@H@Z 2009c4a0 f   g_active.obj
 0001:0009c520       ?G_StandingAnim@@YAHH@Z    2009d520 f   g_active.obj
 0001:0009c590       ?G_TouchTriggers@@YAXPAUgentity_s@@@Z 2009d590 f   g_active.obj
 0001:0009cb70       ?G_UpdateClientBroadcasts@@YAXPAUgentity_s@@@Z 2009db70 f   g_active.obj
 0001:0009d0e0       ?G_VehicleAttachDroidUnit@@YAXPAUgentity_s@@@Z 2009e0e0 f   g_active.obj
 0001:0009d3a0       ?NPC_Accelerate@@YAXPAUgentity_s@@HH@Z 2009e3a0 f   g_active.obj
 0001:0009d900       ?P_DamageFeedback@@YAXPAUgentity_s@@@Z 2009e900 f   g_active.obj
 0001:0009ddf0       ?P_SetTwitchInfo@@YAXPAUgclient_s@@@Z 2009edf0 f   g_active.obj
 0001:0009de40       ?P_WorldEffects@@YAXPAUgentity_s@@@Z 2009ee40 f   g_active.obj
 0001:0009e1e0       ?SendPendingPredictableEvents@@YAXPAUplayerState_s@@@Z 2009f1e0 f   g_active.obj
 0001:0009e340       ?SpectatorClientEndFrame@@YAXPAUgentity_s@@@Z 2009f340 f   g_active.obj
 0001:0009e5c0       ?SpectatorThink@@YAXPAUgentity_s@@PAUusercmd_s@@@Z 2009f5c0 f   g_active.obj
 0001:0009eb10       ?UpdateTournamentInfo@@YAXXZ 2009fb10 f   g_arenas.obj
 0001:0009f100       ?BattleGroundControlPoints@@YAHPAPAUgentity_s@@H@Z 200a0100 f   g_battleground.obj
 0001:0009f2c0       ?LinkBGSpawnPoints@@YAXXZ  200a02c0 f   g_battleground.obj
 0001:0009f420       ?PlaceWouldTelefrag@@YAHQAM@Z 200a0420 f   g_battleground.obj
 0001:0009f740       ?SP_control_point@@YAXPAUgentity_s@@@Z 200a0740 f   g_battleground.obj
 0001:0009fe10       ?SelectBGSpawnPoint@@YAPAUgentity_s@@PAU1@QAM1@Z 200a0e10 f   g_battleground.obj
 0001:0009ffb0       ?SelectRandomBGSpawnPoint@@YAPAUgentity_s@@HHHQAM@Z 200a0fb0 f   g_battleground.obj
 0001:000a0210       ?closest@@YAPAUgentity_s@@QAMPAPAU1@H@Z 200a1210 f   g_battleground.obj
 0001:000a02c0       ?control_point_think@@YAXPAUgentity_s@@@Z 200a12c0 f   g_battleground.obj
 0001:000a0590       ?control_point_use@@YAXPAUgentity_s@@00@Z 200a1590 f   g_battleground.obj
 0001:000a1e40       ?G_AddRandomBot@@YAXH@Z    200a2e40 f   g_bot.obj
 0001:000a2240       ?G_BotConnect@@YAHHH@Z     200a3240 f   g_bot.obj
 0001:000a2370       ?G_CheckBotSpawn@@YAXXZ    200a3370 f   g_bot.obj
 0001:000a2410       ?G_CheckMinimumPlayers@@YAXXZ 200a3410 f   g_bot.obj
 0001:000a2550       ?G_CountBotPlayers@@YAHH@Z 200a3550 f   g_bot.obj
 0001:000a26a0       ?G_CountHumanPlayers@@YAHH@Z 200a36a0 f   g_bot.obj
 0001:000a2760       ?G_DoesMapSupportGametype@@YAHPBDH@Z 200a3760 f   g_bot.obj
 0001:000a28b0       ?G_GetArenaInfoByMap@@YAPBDPBD@Z 200a38b0 f   g_bot.obj
 0001:000a2930       ?G_GetBotInfoByName@@YAPADPBD@Z 200a3930 f   g_bot.obj
 0001:000a29c0       ?G_GetBotInfoByNumber@@YAPADH@Z 200a39c0 f   g_bot.obj
 0001:000a2a20       ?G_GetMapTypeBits@@YAHPAD@Z 200a3a20 f   g_bot.obj
 0001:000a2c30       ?G_InitBots@@YAXH@Z        200a3c30 f   g_bot.obj
 0001:000a3150       ?G_LoadBotsFromFile@@YAXPAD@Z 200a4150 f   g_bot.obj
 0001:000a3240       ?G_ParseInfos@@YAHPADHQAPAD@Z 200a4240 f   g_bot.obj
 0001:000a34f0       ?G_RefreshNextMap@@YAPBDHH@Z 200a44f0 f   g_bot.obj
 0001:000a3730       ?G_RemoveQueuedBotBegin@@YAXH@Z 200a4730 f   g_bot.obj
 0001:000a3790       ?G_RemoveRandomBot@@YAHH@Z 200a4790 f   g_bot.obj
 0001:000a3950       ?Svcmd_AddBot_f@@YAXXZ     200a4950 f   g_bot.obj
 0001:000a3b50       ?Svcmd_BotList_f@@YAXXZ    200a4b50 f   g_bot.obj
 0001:000a3da0       ?trap_Cvar_VariableValue@@YAMPBD@Z 200a4da0 f   g_bot.obj
 0001:000a3e10       ?AllForceDisabled@@YAHH@Z  200a4e10 f   g_client.obj
 0001:000a3e70       ?BodySink@@YAXPAUgentity_s@@@Z 200a4e70 f   g_client.obj
 0001:000a3f00       ?ClientBegin@@YAXHH@Z      200a4f00 f   g_client.obj
 0001:000a4920       ?ClientCleanName@@YAXPBDPADH@Z 200a5920 f   g_client.obj
 0001:000a4b30       ?ClientConnect@@YAPADHHH@Z 200a5b30 f   g_client.obj
 0001:000a5600       ?ClientDisconnect@@YAXH@Z  200a6600 f   g_client.obj
 0001:000a5fe0       ?ClientModelChanged@@YAHPAUgentity_s@@PAD1@Z 200a6fe0 f   g_client.obj
 0001:000a64d0       ?ClientSpawn@@YAXPAUgentity_s@@@Z 200a74d0 f   g_client.obj
 0001:000a78c0       ?ClientSpawn_Default@@YAXPAUgentity_s@@H@Z 200a88c0 f   g_client.obj
 0001:000a7ad0       ?ClientSpawn_Duel@@YAXPAUgentity_s@@@Z 200a8ad0 f   g_client.obj
 0001:000a7af0       ?ClientSpawn_GameModes@@YAXPAUgentity_s@@@Z 200a8af0 f   g_client.obj
 0001:000a7fc0       ?ClientSpawn_GetSpawnpoint@@YAPAUgentity_s@@PAU1@QAM1@Z 200a8fc0 f   g_client.obj
 0001:000a8220       ?ClientSpawn_Ghost@@YAXPAUgentity_s@@@Z 200a9220 f   g_client.obj
 0001:000a8270       ?ClientSpawn_Holocron@@YAXPAUgentity_s@@@Z 200a9270 f   g_client.obj
 0001:000a82d0       ?ClientSpawn_JediMaster@@YAXPAUgentity_s@@@Z 200a92d0 f   g_client.obj
 0001:000a83d0       ?ClientSpawn_JediVsMerc@@YAXPAUgentity_s@@H@Z 200a93d0 f   g_client.obj
 0001:000a86f0       ?ClientSpawn_PowerDuel@@YAXPAUgentity_s@@@Z 200a96f0 f   g_client.obj
 0001:000a87b0       ?ClientSpawn_Reborn@@YAXPAUgentity_s@@@Z 200a97b0 f   g_client.obj
 0001:000a8810       ?ClientSpawn_ResetClient@@YAXPAUgentity_s@@H@Z 200a9810 f   g_client.obj
 0001:000a9050       ?ClientSpawn_SetupSkin@@YAXPAUgclient_s@@PAD@Z 200aa050 f   g_client.obj
 0001:000a9250       ?ClientSpawn_Siege@@YAXPAUgentity_s@@@Z 200aa250 f   g_client.obj
 0001:000a96b0       ?ClientUserNameChanged@@YAXPAUgentity_s@@PAD@Z 200aa6b0 f   g_client.obj
 0001:000a9b80       ?ClientUserinfoChanged@@YAXH@Z 200aab80 f   g_client.obj
 0001:000a9bf0       ?ClientUserinfoChanged_Do@@YAXH@Z 200aabf0 f   g_client.obj
 0001:000aaf20       ?G_BreakArm@@YAXPAUgentity_s@@H@Z 200abf20 f   g_client.obj
 0001:000ab1a0       ?G_DebugWrite@@YAXPBD0@Z   200ac1a0 f   g_client.obj
 0001:000ab200       ?G_SaberModelSetup@@YAHPAUgentity_s@@@Z 200ac200 f   g_client.obj
 0001:000ab590       ?G_UpdateClientAnims@@YAXPAUgentity_s@@M@Z 200ac590 f   g_client.obj
 0001:000abf00       ?InitBodyQue@@YAXXZ        200acf00 f   g_client.obj
 0001:000abf80       ?JMSaberThink@@YAXPAUgentity_s@@@Z 200acf80 f   g_client.obj
 0001:000ac470       ?JMSaberTouch@@YAXPAUgentity_s@@0PAUtrace_t@@@Z 200ad470 f   g_client.obj
 0001:000ac8c0       ?MaintainBodyQueue@@YAXPAUgentity_s@@@Z 200ad8c0 f   g_client.obj
 0001:000aca20       ?PickTeam@@YAHH@Z          200ada20 f   g_client.obj
 0001:000acb10       ?SP_info_jedimaster_start@@YAXPAUgentity_s@@@Z 200adb10 f   g_client.obj
 0001:000acde0       ?SP_info_player_deathmatch@@YAXPAUgentity_s@@@Z 200adde0 f   g_client.obj
 0001:000ace80       ?SP_info_player_duel1@@YAXPAUgentity_s@@@Z 200ade80 f   g_client.obj
 0001:000acfd0       ?SP_info_player_duel2@@YAXPAUgentity_s@@@Z 200adfd0 f   g_client.obj
 0001:000ad120       ?SP_info_player_duel@@YAXPAUgentity_s@@@Z 200ae120 f   g_client.obj
 0001:000ad1c0       ?SP_info_player_intermission@@YAXPAUgentity_s@@@Z 200ae1c0 f   g_client.obj
 0001:000ad1e0       ?SP_info_player_intermission_blue@@YAXPAUgentity_s@@@Z 200ae1e0 f   g_client.obj
 0001:000ad200       ?SP_info_player_intermission_red@@YAXPAUgentity_s@@@Z 200ae200 f   g_client.obj
 0001:000ad220       ?SP_info_player_jail@@YAXPAUgentity_s@@@Z 200ae220 f   g_client.obj
 0001:000ad250       ?SP_info_player_siegeteam1@@YAXPAUgentity_s@@@Z 200ae250 f   g_client.obj
 0001:000ad3c0       ?SP_info_player_siegeteam2@@YAXPAUgentity_s@@@Z 200ae3c0 f   g_client.obj
 0001:000ad530       ?SP_info_player_start@@YAXPAUgentity_s@@@Z 200ae530 f   g_client.obj
 0001:000ad5a0       ?SP_info_player_start_blue@@YAXPAUgentity_s@@@Z 200ae5a0 f   g_client.obj
 0001:000ad6c0       ?SP_info_player_start_red@@YAXPAUgentity_s@@@Z 200ae6c0 f   g_client.obj
 0001:000ad7e0       ?SelectDuelSpawnPoint@@YAPAUgentity_s@@HQAM00@Z 200ae7e0 f   g_client.obj
 0001:000ade60       ?SelectInitialSpawnPoint@@YAPAUgentity_s@@PAU1@QAM1@Z 200aee60 f   g_client.obj
 0001:000ae000       ?SelectNearestDeathmatchSpawnPoint@@YAPAUgentity_s@@QAM@Z 200af000 f   g_client.obj
 0001:000ae180       ?SelectRandomDeathmatchSpawnPoint@@YAPAUgentity_s@@XZ 200af180 f   g_client.obj
 0001:000ae260       ?SelectRandomFurthestSpawnPoint@@YAPAUgentity_s@@PAU1@QAM1@Z 200af260 f   g_client.obj
 0001:000aea50       ?SelectSpawnPoint@@YAPAUgentity_s@@PAU1@QAM1@Z 200afa50 f   g_client.obj
 0001:000aea80       ?SelectSpectatorSpawnPoint@@YAPAUgentity_s@@QAM0@Z 200afa80 f   g_client.obj
 0001:000aeb70       ?SetClientViewAngle@@YAXPAUgentity_s@@QAM@Z 200afb70 f   g_client.obj
 0001:000aed00       ?SetupGameGhoul2Model@@YAXPAUgentity_s@@PAD1@Z 200afd00 f   g_client.obj
 0001:000afef0       ?SiegePointUse@@YAXPAUgentity_s@@00@Z 200b0ef0 f   g_client.obj
 0001:000aff40       ?SpotWouldTelefrag2@@YAHPAUgentity_s@@QAM@Z 200b0f40 f   g_client.obj
 0001:000b01d0       ?SpotWouldTelefrag@@YAHPAUgentity_s@@@Z 200b11d0 f   g_client.obj
 0001:000b0430       ?TeamCount@@YAHHH@Z        200b1430 f   g_client.obj
 0001:000b0510       ?TeamLeader@@YAHH@Z        200b1510 f   g_client.obj
 0001:000b05b0       ?ThrowSaberToAttacker@@YAXPAUgentity_s@@0@Z 200b15b0 f   g_client.obj
 0001:000b0fd0       ?gameMode@@YAHH@Z          200b1fd0 f   g_client.obj
 0001:000b1090       ?respawn@@YAXPAUgentity_s@@@Z 200b2090 f   g_client.obj
 0001:000b1840       ?thereIsAPlayerSpawn@@YAHXZ 200b2840 f   g_client.obj
 0001:000b18f0       ?BroadcastTeamChange@@YAXPAUgclient_s@@H@Z 200b28f0 f   g_cmds.obj
 0001:000b1b00       ?CallVote@@YAXPAUgentity_s@@PAD1@Z 200b2b00 f   g_cmds.obj
 0001:000b2a30       ?CheatsOk@@YAHPAUgentity_s@@@Z 200b3a30 f   g_cmds.obj
 0001:000b2b20       ?ClientCommand@@YAXH@Z     200b3b20 f   g_cmds.obj
 0001:000b6130       ?ClientNumberFromString@@YAHPAUgentity_s@@PAD@Z 200b7130 f   g_cmds.obj
 0001:000b62b0       ?Cmd_CallTeamVote_f@@YAXPAUgentity_s@@@Z 200b72b0 f   g_cmds.obj
 0001:000b6c20       ?Cmd_CallVote_f@@YAXPAUgentity_s@@@Z 200b7c20 f   g_cmds.obj
 0001:000b6cb0       ?Cmd_DebugSetBodyAnim_f@@YAXPAUgentity_s@@H@Z 200b7cb0 f   g_cmds.obj
 0001:000b6e00       ?Cmd_DebugSetSaberMove_f@@YAXPAUgentity_s@@@Z 200b7e00 f   g_cmds.obj
 0001:000b6f30       ?Cmd_DebugThrow_f@@YAXPAUgentity_s@@@Z 200b7f30 f   g_cmds.obj
 0001:000b80b0       ?Cmd_DuelTeam_f@@YAXPAUgentity_s@@@Z 200b90b0 f   g_cmds.obj
 0001:000b8490       ?Cmd_EngageDuel_f@@YAXPAUgentity_s@@@Z 200b9490 f   g_cmds.obj
 0001:000b98a0       ?Cmd_FollowCycle_f@@YAXPAUgentity_s@@H@Z 200ba8a0 f   g_cmds.obj
 0001:000b9ab0       ?Cmd_Follow_f@@YAXPAUgentity_s@@@Z 200baab0 f   g_cmds.obj
 0001:000b9cd0       ?Cmd_ForceChanged_f@@YAXPAUgentity_s@@@Z 200bacd0 f   g_cmds.obj
 0001:000b9e40       ?Cmd_GameCommand_f@@YAXPAUgentity_s@@@Z 200bae40 f   g_cmds.obj
 0001:000b9f60       ?Cmd_Give_f@@YAXPAUgentity_s@@H@Z 200baf60 f   g_cmds.obj
 0001:000babd0       ?Cmd_Hug_f@@YAXPAUgentity_s@@@Z 200bbbd0 f   g_cmds.obj
 0001:000bb3e0       ?Cmd_Kill_f@@YAXPAUgentity_s@@@Z 200bc3e0 f   g_cmds.obj
 0001:000bb580       ?Cmd_LevelShot_f@@YAXPAUgentity_s@@@Z 200bc580 f   g_cmds.obj
 0001:000bb610       ?Cmd_Notarget_f@@YAXPAUgentity_s@@@Z 200bc610 f   g_cmds.obj
 0001:000bb6b0       ?Cmd_SaberAttackCycle_f@@YAXPAUgentity_s@@@Z 200bc6b0 f   g_cmds.obj
 0001:000bbfb0       ?Cmd_Say_f@@YAXPAUgentity_s@@HH@Z 200bcfb0 f   g_cmds.obj
 0001:000bc020       ?Cmd_Score_f@@YAXPAUgentity_s@@@Z 200bd020 f   g_cmds.obj
 0001:000bc050       ?Cmd_SetModel_f@@YAXPAUgentity_s@@H@Z 200bd050 f   g_cmds.obj
 0001:000bc110       ?Cmd_SetViewpos_f@@YAXPAUgentity_s@@@Z 200bd110 f   g_cmds.obj
 0001:000bc320       ?Cmd_SiegeClass_f@@YAXPAUgentity_s@@H@Z 200bd320 f   g_cmds.obj
 0001:000bc3c0       ?Cmd_Stats_f@@YAXPAUgentity_s@@@Z 200bd3c0 f   g_cmds.obj
 0001:000bc3e0       ?Cmd_TeamTask_f@@YAXPAUgentity_s@@@Z 200bd3e0 f   g_cmds.obj
 0001:000bc500       ?Cmd_TeamVote_f@@YAXPAUgentity_s@@@Z 200bd500 f   g_cmds.obj
 0001:000bc810       ?Cmd_Team_f@@YAXPAUgentity_s@@@Z 200bd810 f   g_cmds.obj
 0001:000bcce0       ?Cmd_ToggleSaber_f@@YAXPAUgentity_s@@@Z 200bdce0 f   g_cmds.obj
 0001:000bd450       ?Cmd_Vote_f@@YAXPAUgentity_s@@@Z 200be450 f   g_cmds.obj
 0001:000bd700       ?Cmd_Where_f@@YAXPAUgentity_s@@@Z 200be700 f   g_cmds.obj
 0001:000bd770       ?ConcatArgs@@YAPADH@Z      200be770 f   g_cmds.obj
 0001:000bd8c0       ?DeathmatchScoreboardMessage@@YAXPAUgentity_s@@@Z 200be8c0 f   g_cmds.obj
 0001:000bde90       ?G_ClientNumberFromName@@YAHPBD@Z 200bee90 f   g_cmds.obj
 0001:000bdf90       ?G_ClientNumberFromStrippedName@@YAHPBD@Z 200bef90 f   g_cmds.obj
 0001:000be090       ?G_GetDuelWinner@@YAPAUgentity_s@@PAUgclient_s@@@Z 200bf090 f   g_cmds.obj
 0001:000be130       ?G_ItemUsable@@YAHPAUplayerState_s@@H@Z 200bf130 f   g_cmds.obj
 0001:000beac0       ?G_OtherPlayersDueling@@YAHXZ 200bfac0 f   g_cmds.obj
 0001:000beb50       ?G_PowerDuelCheckFail@@YAHPAUgentity_s@@@Z 200bfb50 f   g_cmds.obj
 0001:000bec10       ?G_Say@@YAXPAUgentity_s@@0HPBD@Z 200bfc10 f   g_cmds.obj
 0001:000bf8a0       ?G_SetSaber@@YAHPAUgentity_s@@HPADH@Z 200c08a0 f   g_cmds.obj
 0001:000bfd60       ?G_TeamForSiegeClass@@YAHPBD@Z 200c0d60 f   g_cmds.obj
 0001:000bfe70       ?PlayerFromPartialName@@YAHPAD@Z 200c0e70 f   g_cmds.obj
 0001:000bffb0       ?SanitizeString2@@YAXPAD0@Z 200c0fb0 f   g_cmds.obj
 0001:000c00b0       ?SanitizeString3@@YAXPAD0@Z 200c10b0 f   g_cmds.obj
 0001:000c0160       ?SanitizeString@@YAXPAD0@Z 200c1160 f   g_cmds.obj
 0001:000c0200       ?SetTeam@@YAXPAUgentity_s@@PAD@Z 200c1200 f   g_cmds.obj
 0001:000c0a30       ?StandardSetBodyAnim@@YAXPAUgentity_s@@HH@Z 200c1a30 f   g_cmds.obj
 0001:000c0a70       ?StopFollowing@@YAXPAUgentity_s@@@Z 200c1a70 f   g_cmds.obj
 0001:000c0cd0       ?TryGrapple@@YAHPAUgentity_s@@@Z 200c1cd0 f   g_cmds.obj
 0001:000c1060       ?canUseChatMode@@YAHPAUgentity_s@@H@Z 200c2060 f   g_cmds.obj
 0001:000c1100       ?changeSiegeClass@@YAXPAUgentity_s@@PAD@Z 200c2100 f   g_cmds.obj
 0001:000c1550       ?checkVoteEnabled@@YAHPAUgentity_s@@H@Z 200c2550 f   g_cmds.obj
 0001:000c1650       ?displayClassesForTeam@@YAXPAUgentity_s@@@Z 200c2650 f   g_cmds.obj
 0001:000c18e0       ?getChatModeName@@YAPADH@Z 200c28e0 f   g_cmds.obj
 0001:000c1920       ?initChatMode@@YAXPAUgentity_s@@@Z 200c2920 f   g_cmds.obj
 0001:000c1a60       ?AddScore@@YAXPAUgentity_s@@QAMH@Z 200c2a60 f   g_combat.obj
 0001:000c2070       ?BodyRid@@YAXPAUgentity_s@@@Z 200c3070 f   g_combat.obj
 0001:000c20b0       ?CanDamage@@YAHPAUgentity_s@@QAM@Z 200c30b0 f   g_combat.obj
 0001:000c2770       ?CapLimbs@@YAXPAUgentity_s@@@Z 200c3770 f   g_combat.obj
 0001:000c2890       ?CheckAlmostCapture@@YAXPAUgentity_s@@0@Z 200c3890 f   g_combat.obj
 0001:000c28b0       ?CheckArmor@@YAHPAUgentity_s@@HH@Z 200c38b0 f   g_combat.obj
 0001:000c2a50       ?DeathFX@@YAXPAUgentity_s@@@Z 200c3a50 f   g_combat.obj
 0001:000c3880       ?DismembermentByNum@@YAXPAUgentity_s@@H@Z 200c4880 f   g_combat.obj
 0001:000c39b0       ?DismembermentTest@@YAXPAUgentity_s@@@Z 200c49b0 f   g_combat.obj
 0001:000c3bc0       ?ExplodeDeath@@YAXPAUgentity_s@@@Z 200c4bc0 f   g_combat.obj
 0001:000c3d70       ?G_AddPowerDuelLoserScore@@YAXHH@Z 200c4d70 f   g_combat.obj
 0001:000c3eb0       ?G_AddPowerDuelScore@@YAXHH@Z 200c4eb0 f   g_combat.obj
 0001:000c3ff0       ?G_AlertTeam@@YAXPAUgentity_s@@0MM@Z 200c4ff0 f   g_combat.obj
 0001:000c43d0       ?G_ApplyKnockback@@YAXPAUgentity_s@@QAMM@Z 200c53d0 f   g_combat.obj
 0001:000c49c0       ?G_CheckForDismemberment@@YAXPAUgentity_s@@0QAMHHH@Z 200c59c0 f   g_combat.obj
 0001:000c60d0       ?G_CheckVictoryScript@@YAXPAUgentity_s@@@Z 200c70d0 f   g_combat.obj
 0001:000c6310       ?G_Damage@@YAXPAUgentity_s@@00QAM1HHH@Z 200c7310 f   g_combat.obj
 0001:000ca450       ?G_DeathAlert@@YAXPAUgentity_s@@0@Z 200cb450 f   g_combat.obj
 0001:000ca4a0       ?G_Dismember@@YAXPAUgentity_s@@0QAMHMMHH@Z 200cb4a0 f   g_combat.obj
 0001:000cb9d0       ?G_GetDismemberBolt@@YAHPAUgentity_s@@QAMH@Z 200cc9d0 f   g_combat.obj
 0001:000cc380       ?G_GetDismemberLoc@@YAXPAUgentity_s@@QAMH@Z 200cd380 f   g_combat.obj
 0001:000cce50       ?G_GetHitLocFromSurfName@@YAHPAUgentity_s@@PBDPAHQAM33H@Z 200cde50 f   g_combat.obj
 0001:000ce7f0       ?G_GetHitLocation@@YAHPAUgentity_s@@QAM@Z 200cf7f0 f   g_combat.obj
 0001:000cf230       ?G_GetHitQuad@@YAHPAUgentity_s@@QAM@Z 200d0230 f   g_combat.obj
 0001:000cf6d0       ?G_GetJediMaster@@YAPAUgentity_s@@XZ 200d06d0 f   g_combat.obj
 0001:000cf760       ?G_HeavyMelee@@YAHPAUgentity_s@@@Z 200d0760 f   g_combat.obj
 0001:000cf7f0       ?G_InKnockDown@@YAHPAUplayerState_s@@@Z 200d07f0 f   g_combat.obj
 0001:000cf880       ?G_Knockdown@@YAXPAUgentity_s@@H@Z 200d0880 f   g_combat.obj
 0001:000cf9a0       ?G_LocationBasedDamageModifier@@YAXPAUgentity_s@@QAMHHPAH@Z 200d09a0 f   g_combat.obj
 0001:000cfc80       ?G_PickDeathAnim@@YAHPAUgentity_s@@QAMHHH@Z 200d0c80 f   g_combat.obj
 0001:000d0530       ?G_RadiusDamage@@YAHQAMPAUgentity_s@@MM11H@Z 200d1530 f   g_combat.obj
 0001:000d0af0       ?G_ThereIsAMaster@@YAHXZ   200d1af0 f   g_combat.obj
 0001:000d0b70       ?GibEntity@@YAXPAUgentity_s@@H@Z 200d1b70 f   g_combat.obj
 0001:000d0bd0       ?LimbThink@@YAXPAUgentity_s@@@Z 200d1bd0 f   g_combat.obj
 0001:000d0d20       ?LimbTouch@@YAXPAUgentity_s@@0PAUtrace_t@@@Z 200d1d20 f   g_combat.obj
 0001:000d0d40       ?LookAtKiller@@YAXPAUgentity_s@@00@Z 200d1d40 f   g_combat.obj
 0001:000d0ff0       ?ObjectDie@@YAXPAUgentity_s@@00HH@Z 200d1ff0 f   g_combat.obj
 0001:000d1040       ?RaySphereIntersections@@YAHQAMM00QAY02M@Z 200d2040 f   g_combat.obj
 0001:000d1660       ?ScorePlum@@YAXPAUgentity_s@@QAMH@Z 200d2660 f   g_combat.obj
 0001:000d16e0       ?TossClientItems@@YAXPAUgentity_s@@@Z 200d26e0 f   g_combat.obj
 0001:000d1a10       ?TossClientWeapon@@YAXPAUgentity_s@@QAMM@Z 200d2a10 f   g_combat.obj
 0001:000d2190       ?body_die@@YAXPAUgentity_s@@00HH@Z 200d3190 f   g_combat.obj
 0001:000d24c0       ?meditateProtect@@YAHPAUgentity_s@@@Z 200d34c0 f   g_combat.obj
 0001:000d25c0       ?player_die@@YAXPAUgentity_s@@00HH@Z 200d35c0 f   g_combat.obj
 0001:000d4fd0       ?DefenderThink@@YAXPAUgentity_s@@@Z 200d5fd0 f   g_defender.obj
 0001:000d5630       ?SP_defender@@YAXPAUgentity_s@@@Z 200d6630 f   g_defender.obj
 0001:000d5db0       ?G_RunExPhys@@YAXPAUgentity_s@@MMMHPAHH@Z 200d6db0 f   g_exphysics.obj
 0001:000d70b0       ?SP_ghost_exit@@YAXPAUgentity_s@@@Z 200d80b0 f   g_ghost.obj
 0001:000d7520       ?WP_RemoveTrickedEnt@@YAXPAUforcedata_s@@H@Z 200d8520 f   g_ghost.obj
 0001:000d7610       ?ghost_exit_touch@@YAXPAUgentity_s@@0PAUtrace_t@@@Z 200d8610 f   g_ghost.obj
 0001:000d77b0       ?isGhost@@YAHPAUgentity_s@@@Z 200d87b0 f   g_ghost.obj
 0001:000d7810       ?updateGhost@@YAXPAUgentity_s@@@Z 200d8810 f   g_ghost.obj
 0001:000d7970       ?Blocked_Mover@@YAXPAUgentity_s@@0@Z 200d8970 f   g_ICARUScb.obj
 0001:000d7a40       ?G_DebugPrint@@YAXHPBDZZ   200d8a40 f   g_ICARUScb.obj
 0001:000d7be0       ?MoveOwner@@YAXPAUgentity_s@@@Z 200d8be0 f   g_ICARUScb.obj
 0001:000d8080       ?Q3_GetFloat@@YAHHHPBDPAM@Z 200d9080 f   g_ICARUScb.obj
 0001:000d8c30       ?Q3_GetString@@YAHHHPBDPAPAD@Z 200d9c30 f   g_ICARUScb.obj
 0001:000d9410       ?Q3_GetTag@@YAHHPBDHQAM@Z  200da410 f   g_ICARUScb.obj
 0001:000d94b0       ?Q3_GetVector@@YAHHHPBDQAM@Z 200da4b0 f   g_ICARUScb.obj
 0001:000d9740       ?Q3_Kill@@YAXHPBD@Z        200da740 f   g_ICARUScb.obj
 0001:000d98b0       ?Q3_Lerp2Angles@@YAXHHQAMM@Z 200da8b0 f   g_ICARUScb.obj
 0001:000d9b50       ?Q3_Lerp2End@@YAXHHM@Z     200dab50 f   g_ICARUScb.obj
 0001:000d9cb0       ?Q3_Lerp2Origin@@YAXHHQAMM@Z 200dacb0 f   g_ICARUScb.obj
 0001:000da060       ?Q3_Lerp2Pos@@YAXHHQAM0M@Z 200db060 f   g_ICARUScb.obj
 0001:000da5c0       ?Q3_Lerp2Start@@YAXHHM@Z   200db5c0 f   g_ICARUScb.obj
 0001:000da750       ?Q3_Play@@YAXHHPBD0@Z      200db750 f   g_ICARUScb.obj
 0001:000da930       ?Q3_PlaySound@@YAHHHPBD0@Z 200db930 f   g_ICARUScb.obj
 0001:000dabd0       ?Q3_Remove@@YAXHPBD@Z      200dbbd0 f   g_ICARUScb.obj
 0001:000dad30       ?Q3_RemoveEnt@@YAXPAUgentity_s@@@Z 200dbd30 f   g_ICARUScb.obj
 0001:000daee0       ?Q3_Set@@YAHHHPBD0@Z       200dbee0 f   g_ICARUScb.obj
 0001:000dede0       ?Q3_SetICARUSFreeze@@YAXHPBDH@Z 200dfde0 f   g_ICARUScb.obj
 0001:000df3d0       ?Q3_SetLoopSound@@YAXHPBD@Z 200e03d0 f   g_ICARUScb.obj
 0001:000e00c0       ?Q3_SetParm@@YAXHHPBD@Z    200e10c0 f   g_ICARUScb.obj
 0001:000e0e90       ?Q3_SetViewEntity@@YAXHPBD@Z 200e1e90 f   g_ICARUScb.obj
 0001:000e12c0       ?Q3_TaskIDClear@@YAXPAH@Z  200e22c0 f   g_ICARUScb.obj
 0001:000e12e0       ?Q3_Use@@YAXHPBD@Z         200e22e0 f   g_ICARUScb.obj
 0001:000e14a0       ?SolidifyOwner@@YAXPAUgentity_s@@@Z 200e24a0 f   g_ICARUScb.obj
 0001:000e1580       ?anglerCallback@@YAXPAUgentity_s@@@Z 200e2580 f   g_ICARUScb.obj
 0001:000e1800       ?moveAndRotateCallback@@YAXPAUgentity_s@@@Z 200e2800 f   g_ICARUScb.obj
 0001:000e1840       ?moverCallback@@YAXPAUgentity_s@@@Z 200e2840 f   g_ICARUScb.obj
 0001:000e1920       ?Add_Ammo@@YAXPAUgentity_s@@HH@Z 200e2920 f   g_items.obj
 0001:000e1ea0       ?CheckItemCanBePickedUpByNPC@@YAHPAUgentity_s@@0@Z 200e2ea0 f   g_items.obj
 0001:000e1fb0       ?ClearRegisteredItems@@YAXXZ 200e2fb0 f   g_items.obj
 0001:000e2060       ?CreateShield@@YAXPAUgentity_s@@@Z 200e3060 f   g_items.obj
 0001:000e2b20       ?Drop_Item@@YAPAUgentity_s@@PAU1@PAUgitem_s@@M@Z 200e3b20 f   g_items.obj
 0001:000e2d30       ?EWebDie@@YAXPAUgentity_s@@00HH@Z 200e3d30 f   g_items.obj
 0001:000e2f90       ?EWebDisattach@@YAXPAUgentity_s@@0@Z 200e3f90 f   g_items.obj
 0001:000e3060       ?EWebFire@@YAXPAUgentity_s@@0@Z 200e4060 f   g_items.obj
 0001:000e3320       ?EWebPain@@YAXPAUgentity_s@@0H@Z 200e4320 f   g_items.obj
 0001:000e33a0       ?EWebPositionUser@@YAXPAUgentity_s@@0@Z 200e43a0 f   g_items.obj
 0001:000e3a20       ?EWebPrecache@@YAXXZ       200e4a20 f   g_items.obj
 0001:000e3a70       ?EWebThink@@YAXPAUgentity_s@@@Z 200e4a70 f   g_items.obj
 0001:000e3df0       ?EWebUpdateBoneAngles@@YAXPAUgentity_s@@0@Z 200e4df0 f   g_items.obj
 0001:000e40b0       ?EWeb_Create@@YAPAUgentity_s@@PAU1@@Z 200e50b0 f   g_items.obj
 0001:000e4ae0       ?EWeb_SetBoneAngles@@YAXPAUgentity_s@@PADQAM@Z 200e5ae0 f   g_items.obj
 0001:000e4d60       ?EWeb_SetBoneAnim@@YAXPAUgentity_s@@HH@Z 200e5d60 f   g_items.obj
 0001:000e4e90       ?FinishSpawningItem@@YAXPAUgentity_s@@@Z 200e5e90 f   g_items.obj
 0001:000e5650       ?G_BounceItem@@YAXPAUgentity_s@@PAUtrace_t@@@Z 200e6650 f   g_items.obj
 0001:000e5c00       ?G_CheckTeamItems@@YAXXZ   200e6c00 f   g_items.obj
 0001:000e5d20       ?G_ItemDisabled@@YAHPAUgitem_s@@@Z 200e6d20 f   g_items.obj
 0001:000e5d90       ?G_PrecacheDispensers@@YAXXZ 200e6d90 f   g_items.obj
 0001:000e5e00       ?G_RunItem@@YAXPAUgentity_s@@@Z 200e6e00 f   g_items.obj
 0001:000e60f0       ?G_SpawnItem@@YAXPAUgentity_s@@PAUgitem_s@@@Z 200e70f0 f   g_items.obj
 0001:000e64b0       ?G_SpecialSpawnItem@@YAXPAUgentity_s@@PAUgitem_s@@@Z 200e74b0 f   g_items.obj
 0001:000e66d0       ?ItemUse_Binoculars@@YAXPAUgentity_s@@@Z 200e76d0 f   g_items.obj
 0001:000e67d0       ?ItemUse_Jetpack@@YAXPAUgentity_s@@@Z 200e77d0 f   g_items.obj
 0001:000e69b0       ?ItemUse_MedPack@@YAXPAUgentity_s@@@Z 200e79b0 f   g_items.obj
 0001:000e69e0       ?ItemUse_MedPack_Big@@YAXPAUgentity_s@@@Z 200e79e0 f   g_items.obj
 0001:000e6a10       ?ItemUse_Seeker@@YAXPAUgentity_s@@@Z 200e7a10 f   g_items.obj
 0001:000e6c00       ?ItemUse_Sentry@@YAXPAUgentity_s@@@Z 200e7c00 f   g_items.obj
 0001:000e72f0       ?ItemUse_Shield@@YAXPAUgentity_s@@@Z 200e82f0 f   g_items.obj
 0001:000e7350       ?ItemUse_UseCloak@@YAXPAUgentity_s@@@Z 200e8350 f   g_items.obj
 0001:000e7550       ?ItemUse_UseDisp@@YAXPAUgentity_s@@H@Z 200e8550 f   g_items.obj
 0001:000e76d0       ?ItemUse_UseEWeb@@YAXPAUgentity_s@@@Z 200e86d0 f   g_items.obj
 0001:000e7820       ?Jetpack_Off@@YAXPAUgentity_s@@@Z 200e8820 f   g_items.obj
 0001:000e78a0       ?Jetpack_On@@YAXPAUgentity_s@@@Z 200e88a0 f   g_items.obj
 0001:000e79c0       ?LaunchItem@@YAPAUgentity_s@@PAUgitem_s@@QAM1@Z 200e89c0 f   g_items.obj
 0001:000e7e40       ?MaxAmmo@@YAHPAUgentity_s@@H@Z 200e8e40 f   g_items.obj
 0001:000e8140       ?Pickup_Ammo@@YAHPAUgentity_s@@0@Z 200e9140 f   g_items.obj
 0001:000e8370       ?Pickup_Armor@@YAHPAUgentity_s@@0@Z 200e9370 f   g_items.obj
 0001:000e84b0       ?Pickup_Health@@YAHPAUgentity_s@@0@Z 200e94b0 f   g_items.obj
 0001:000e8620       ?Pickup_Holdable@@YAHPAUgentity_s@@0@Z 200e9620 f   g_items.obj
 0001:000e8720       ?Pickup_Powerup@@YAHPAUgentity_s@@0@Z 200e9720 f   g_items.obj
 0001:000e8bb0       ?Pickup_Weapon@@YAHPAUgentity_s@@0@Z 200e9bb0 f   g_items.obj
 0001:000e8df0       ?Pickup_Ysalamiri@@YAHPAUgentity_s@@0@Z 200e9df0 f   g_items.obj
 0001:000e8eb0       ?PlaceShield@@YAHPAUgentity_s@@@Z 200e9eb0 f   g_items.obj
 0001:000e96f0       ?RegisterItem@@YAXPAUgitem_s@@@Z 200ea6f0 f   g_items.obj
 0001:000e9740       ?RespawnItem@@YAXPAUgentity_s@@@Z 200ea740 f   g_items.obj
 0001:000e9930       ?SP_PAS@@YAXPAUgentity_s@@@Z 200ea930 f   g_items.obj
 0001:000e9b10       ?SaveRegisteredItems@@YAXXZ 200eab10 f   g_items.obj
 0001:000e9c20       ?SentryTouch@@YAXPAUgentity_s@@0PAUtrace_t@@@Z 200eac20 f   g_items.obj
 0001:000e9c40       ?ShieldDie@@YAXPAUgentity_s@@00HH@Z 200eac40 f   g_items.obj
 0001:000e9c80       ?ShieldGoNotSolid@@YAXPAUgentity_s@@@Z 200eac80 f   g_items.obj
 0001:000e9d40       ?ShieldGoSolid@@YAXPAUgentity_s@@@Z 200ead40 f   g_items.obj
 0001:000e9f10       ?ShieldPain@@YAXPAUgentity_s@@0H@Z 200eaf10 f   g_items.obj
 0001:000e9f80       ?ShieldRemove@@YAXPAUgentity_s@@@Z 200eaf80 f   g_items.obj
 0001:000ea010       ?ShieldThink@@YAXPAUgentity_s@@@Z 200eb010 f   g_items.obj
 0001:000ea1b0       ?ShieldTouch@@YAXPAUgentity_s@@0PAUtrace_t@@@Z 200eb1b0 f   g_items.obj
 0001:000ea2f0       ?ShieldUse@@YAXPAUgentity_s@@00@Z 200eb2f0 f   g_items.obj
 0001:000ea570       ?SpecialItemThink@@YAXPAUgentity_s@@@Z 200eb570 f   g_items.obj
 0001:000ea6d0       ?Touch_Item@@YAXPAUgentity_s@@0PAUtrace_t@@@Z 200eb6d0 f   g_items.obj
 0001:000eb4c0       ?Use_Item@@YAXPAUgentity_s@@00@Z 200ec4c0 f   g_items.obj
 0001:000eb640       ?adjustRespawnTime@@YAHMHH@Z 200ec640 f   g_items.obj
 0001:000eb7c0       ?pas_adjust_enemy@@YAXPAUgentity_s@@@Z 200ec7c0 f   g_items.obj
 0001:000ec240       ?pas_fire@@YAXPAUgentity_s@@@Z 200ed240 f   g_items.obj
 0001:000ec580       ?pas_think@@YAXPAUgentity_s@@@Z 200ed580 f   g_items.obj
 0001:000ed320       ?sentryExpire@@YAXPAUgentity_s@@@Z 200ee320 f   g_items.obj
 0001:000ed360       ?turret_die@@YAXPAUgentity_s@@00HH@Z 200ee360 f   g_items.obj
 0001:000ed540       ?loadLingoFilter@@YAXXZ    200ee540 f   g_lingoCleaner.obj
 0001:000ed750       ?profanityCheck@@YAHPBD@Z  200ee750 f   g_lingoCleaner.obj
 0001:000ed8b0       ?takeAction@@YAHPAUgentity_s@@H@Z 200ee8b0 f   g_lingoCleaner.obj
 0001:000edd10       ?CalculateAwards@@YAXPAUgentity_s@@PAD@Z 200eed10 f   g_log.obj
 0001:000ee250       ?CalculateDemolitionist@@YAHPAUgentity_s@@PAH@Z 200ef250 f   g_log.obj
 0001:000ee4c0       ?CalculateEfficiency@@YAHPAUgentity_s@@PAH@Z 200ef4c0 f   g_log.obj
 0001:000ee640       ?CalculateLogistics@@YAHPAUgentity_s@@PAH@Z 200ef640 f   g_log.obj
 0001:000ee820       ?CalculateSection31Award@@YAHPAUgentity_s@@@Z 200ef820 f   g_log.obj
 0001:000ee900       ?CalculateSharpshooter@@YAHPAUgentity_s@@PAH@Z 200ef900 f   g_log.obj
 0001:000eea80       ?CalculateStreak@@YAHPAUgentity_s@@@Z 200efa80 f   g_log.obj
 0001:000eeaa0       ?CalculateTactician@@YAHPAUgentity_s@@PAH@Z 200efaa0 f   g_log.obj
 0001:000eee10       ?CalculateTeamAward@@YAHPAUgentity_s@@@Z 200efe10 f   g_log.obj
 0001:000eef10       ?CalculateTeamCarrier@@YAHPAUgentity_s@@@Z 200eff10 f   g_log.obj
 0001:000ef040       ?CalculateTeamDefender@@YAHPAUgentity_s@@@Z 200f0040 f   g_log.obj
 0001:000ef170       ?CalculateTeamInterceptor@@YAHPAUgentity_s@@@Z 200f0170 f   g_log.obj
 0001:000ef2c0       ?CalculateTeamMVP@@YAHPAUgentity_s@@@Z 200f02c0 f   g_log.obj
 0001:000ef400       ?CalculateTeamMVPByRank@@YAHPAUgentity_s@@@Z 200f0400 f   g_log.obj
 0001:000ef570       ?CalculateTeamRedShirt@@YAHPAUgentity_s@@@Z 200f0570 f   g_log.obj
 0001:000ef6d0       ?CalculateTeamWarrior@@YAHPAUgentity_s@@@Z 200f06d0 f   g_log.obj
 0001:000ef810       ?CalculateUntouchable@@YAHPAUgentity_s@@@Z 200f0810 f   g_log.obj
 0001:000ef8f0       ?G_ClearClientLog@@YAXH@Z  200f08f0 f   g_log.obj
 0001:000efb70       ?G_LogWeaponDamage@@YAXHHH@Z 200f0b70 f   g_log.obj
 0001:000efbd0       ?G_LogWeaponDeath@@YAXHH@Z 200f0bd0 f   g_log.obj
 0001:000efc30       ?G_LogWeaponFire@@YAXHH@Z  200f0c30 f   g_log.obj
 0001:000efd10       ?G_LogWeaponFrag@@YAXHH@Z  200f0d10 f   g_log.obj
 0001:000efd80       ?G_LogWeaponInit@@YAXXZ    200f0d80 f   g_log.obj
 0001:000efe90       ?G_LogWeaponItem@@YAXHH@Z  200f0e90 f   g_log.obj
 0001:000efef0       ?G_LogWeaponKill@@YAXHH@Z  200f0ef0 f   g_log.obj
 0001:000eff50       ?G_LogWeaponOutput@@YAXXZ  200f0f50 f   g_log.obj
 0001:000f24e0       ?G_LogWeaponPickup@@YAXHH@Z 200f34e0 f   g_log.obj
 0001:000f2530       ?G_LogWeaponPowerup@@YAXHH@Z 200f3530 f   g_log.obj
 0001:000f2590       ?GetFavoriteTargetForClient@@YAHH@Z 200f3590 f   g_log.obj
 0001:000f2630       ?GetFavoriteWeaponForClient@@YAHH@Z 200f3630 f   g_log.obj
 0001:000f2770       ?GetMaxDeathsForClient@@YAHH@Z 200f3770 f   g_log.obj
 0001:000f2800       ?GetMaxKillsForClient@@YAHH@Z 200f3800 f   g_log.obj
 0001:000f2890       ?GetWorstEnemyForClient@@YAHH@Z 200f3890 f   g_log.obj
 0001:000f2960       ?AddPowerDuelPlayers@@YAXXZ 200f3960 f   g_main.obj
 0001:000f2b60       ?AddTournamentPlayer@@YAXXZ 200f3b60 f   g_main.obj
 0001:000f2cb0       ?AdjustTournamentScores@@YAXXZ 200f3cb0 f   g_main.obj
 0001:000f3190       ?BG_GetTime@@YAHXZ         200f4190 f   g_main.obj
 0001:000f31b0       ?BeginIntermission@@YAXXZ  200f41b0 f   g_main.obj
 0001:000f3300       ?CalculateRanks@@YAXXZ     200f4300 f   g_main.obj
 0001:000f3b30       ?CheckCvars@@YAXXZ         200f4b30 f   g_main.obj
 0001:000f4490       ?CheckExitRules@@YAXXZ     200f5490 f   g_main.obj
 0001:000f4da0       ?CheckIntermissionExit@@YAXXZ 200f5da0 f   g_main.obj
 0001:000f5930       ?CheckTeamLeader@@YAXH@Z   200f6930 f   g_main.obj
 0001:000f5ab0       ?CheckTeamVote@@YAXH@Z     200f6ab0 f   g_main.obj
 0001:000f5ca0       ?CheckTournament@@YAXXZ    200f6ca0 f   g_main.obj
 0001:000f6660       ?CheckVote@@YAXXZ          200f7660 f   g_main.obj
 0001:000f6c10       ?Com_Error@@YAXHPBDZZ      200f7c10 f   g_main.obj
 0001:000f6c90       ?Com_Printf@@YAXPBDZZ      200f7c90 f   g_main.obj
 0001:000f6d10       ?DuelLimitHit@@YAHXZ       200f7d10 f   g_main.obj
 0001:000f6da0       ?DuelResetWinsLosses@@YAXXZ 200f7da0 f   g_main.obj
 0001:000f6e20       ?ExitLevel@@YAXXZ          200f7e20 f   g_main.obj
 0001:000f7020       ?FindIntermissionPoint@@YAXXZ 200f8020 f   g_main.obj
 0001:000f7470       ?G_CanResetDuelists@@YAHXZ 200f8470 f   g_main.obj
 0001:000f7530       ?G_Error@@YAXPBDZZ         200f8530 f   g_main.obj
 0001:000f7560       ?G_FindTeams@@YAXXZ        200f8560 f   g_main.obj
 0001:000f77c0       ?G_GetStringEdString@@YAPBDPAD0@Z 200f87c0 f   g_main.obj
 0001:000f7800       ?G_InitGame@@YAXHHH@Z      200f8800 f   g_main.obj
 0001:000f8930       ?G_KickAllBots@@YAXXZ      200f9930 f   g_main.obj
 0001:000f8a20       ?G_LogPrintf@@YAXPBDZZ     200f9a20 f   g_main.obj
 0001:000f8ad0       ?G_PowerDuelCount@@YAXPAH0H@Z 200f9ad0 f   g_main.obj
 0001:000f8b90       ?G_Printf@@YAXPBDZZ        200f9b90 f   g_main.obj
 0001:000f8c00       ?G_RegisterCvars@@YAXXZ    200f9c00 f   g_main.obj
 0001:000f9480       ?G_RemapTeamShaders@@YAXXZ 200fa480 f   g_main.obj
 0001:000f94a0       ?G_RemoveDuelist@@YAXH@Z   200fa4a0 f   g_main.obj
 0001:000f9550       ?G_ResetDuelists@@YAXXZ    200fa550 f   g_main.obj
 0001:000f9640       ?G_RunFrame@@YAXH@Z        200fa640 f   g_main.obj
 0001:000fb800       ?G_RunThink@@YAXPAUgentity_s@@@Z 200fc800 f   g_main.obj
 0001:000fb8c0       ?G_ShutdownGame@@YAXH@Z    200fc8c0 f   g_main.obj
 0001:000fbb20       ?G_UpdateCvars@@YAXXZ      200fcb20 f   g_main.obj
 0001:000fbc20       ?Lmd_LogfilePrintf@@YAXHHPBDZZ 200fcc20 f   g_main.obj
 0001:000fbdf0       ?LogExit@@YAXPBD@Z         200fcdf0 f   g_main.obj
 0001:000fbf90       ?MoveClientToIntermission@@YAXPAUgentity_s@@@Z 200fcf90 f   g_main.obj
 0001:000fc200       ?NAV_CheckCalcPaths@@YAXXZ 200fd200 f   g_main.obj
 0001:000fc310       ?PrintTeam@@YAXHPAD@Z      200fd310 f   g_main.obj
 0001:000fc380       ?RemoveDuelDrawLoser@@YAXXZ 200fd380 f   g_main.obj
 0001:000fc570       ?RemovePowerDuelLosers@@YAXXZ 200fd570 f   g_main.obj
 0001:000fc6f0       ?RemoveTournamentLoser@@YAXXZ 200fd6f0 f   g_main.obj
 0001:000fc770       ?RemoveTournamentWinner@@YAXXZ 200fd770 f   g_main.obj
 0001:000fc7f0       ?ScoreIsTied@@YAHXZ        200fd7f0 f   g_main.obj
 0001:000fc8f0       ?SendScoreboardMessageToAllClients@@YAXXZ 200fd8f0 f   g_main.obj
 0001:000fc970       ?SetLeader@@YAXHH@Z        200fd970 f   g_main.obj
 0001:000fcb60       ?SortRanks@@YAHPBX0@Z      200fdb60 f   g_main.obj
 0001:000fce40       ?strrchr@@YAPADPADH@Z      200fde40 f i g_main.obj
 0001:000fce70       _vmMain                    200fde70 f   g_main.obj
 0001:000fd7a0       ?EnergyAmmoStationSettings@@YAXPAUgentity_s@@@Z 200fe7a0 f   g_misc.obj
 0001:000fd7e0       ?EnergyHealthStationSettings@@YAXPAUgentity_s@@@Z 200fe7e0 f   g_misc.obj
 0001:000fd820       ?EnergyShieldStationSettings@@YAXPAUgentity_s@@@Z 200fe820 f   g_misc.obj
 0001:000fd900       ?FakeBodyThink_Camera@@YAXPAUgentity_s@@@Z 200fe900 f   g_misc.obj
 0001:000fda20       ?FirstFreeRefTag@@YAPAUreference_tag_s@@PAUtagOwner_s@@@Z 200fea20 f   g_misc.obj
 0001:000fdac0       ?FirstFreeTagOwner@@YAPAUtagOwner_s@@XZ 200feac0 f   g_misc.obj
 0001:000fdb30       ?G_ClientForShooter@@YAPAUgclient_s@@XZ 200feb30 f   g_misc.obj
 0001:000fdb80       ?G_PortalifyEntities@@YAXPAUgentity_s@@@Z 200feb80 f   g_misc.obj
 0001:000fdcf0       ?HolocronPopOut@@YAXPAUgentity_s@@@Z 200fecf0 f   g_misc.obj
 0001:000fde30       ?HolocronRespawn@@YAXPAUgentity_s@@@Z 200fee30 f   g_misc.obj
 0001:000fde70       ?HolocronThink@@YAXPAUgentity_s@@@Z 200fee70 f   g_misc.obj
 0001:000fea00       ?HolocronTouch@@YAXPAUgentity_s@@0PAUtrace_t@@@Z 200ffa00 f   g_misc.obj
 0001:000fed90       ?InitShooter@@YAXPAUgentity_s@@H@Z 200ffd90 f   g_misc.obj
 0001:000fef20       ?SP_CreateRain@@YAXPAUgentity_s@@@Z 200fff20 f   g_misc.obj
 0001:000fefc0       ?SP_CreateSnow@@YAXPAUgentity_s@@@Z 200fffc0 f   g_misc.obj
 0001:000ff010       ?SP_CreateSpaceDust@@YAXPAUgentity_s@@@Z 20100010 f   g_misc.obj
 0001:000ff050       ?SP_CreateWind@@YAXPAUgentity_s@@@Z 20100050 f   g_misc.obj
 0001:000ff1d0       ?SP_fx_runner@@YAXPAUgentity_s@@@Z 201001d0 f   g_misc.obj
 0001:000ff5d0       ?SP_info_camp@@YAXPAUgentity_s@@@Z 201005d0 f   g_misc.obj
 0001:000ff600       ?SP_info_notnull@@YAXPAUgentity_s@@@Z 20100600 f   g_misc.obj
 0001:000ff630       ?SP_info_null@@YAXPAUgentity_s@@@Z 20100630 f   g_misc.obj
 0001:000ff660       ?SP_light@@YAXPAUgentity_s@@@Z 20100660 f   g_misc.obj
 0001:000ff7a0       ?SP_misc_G2model@@YAXPAUgentity_s@@@Z 201007a0 f   g_misc.obj
 0001:000ff7d0       ?SP_misc_ammo_floor_unit@@YAXPAUgentity_s@@@Z 201007d0 f   g_misc.obj
 0001:000ffdc0       ?SP_misc_bsp@@YAXPAUgentity_s@@@Z 20100dc0 f   g_misc.obj
 0001:001002b0       ?SP_misc_camera@@YAXPAUgentity_s@@@Z 201012b0 f   g_misc.obj
 0001:00100460       ?SP_misc_exploding_crate@@YAXPAUgentity_s@@@Z 20101460 f   g_misc.obj
 0001:001005f0       ?SP_misc_faller@@YAXPAUgentity_s@@@Z 201015f0 f   g_misc.obj
 0001:00100740       ?SP_misc_holocron@@YAXPAUgentity_s@@@Z 20101740 f   g_misc.obj
 0001:00100d50       ?SP_misc_maglock@@YAXPAUgentity_s@@@Z 20101d50 f   g_misc.obj
 0001:00100de0       ?SP_misc_model@@YAXPAUgentity_s@@@Z 20101de0 f   g_misc.obj
 0001:00100e10       ?SP_misc_model_ammo_power_converter@@YAXPAUgentity_s@@@Z 20101e10 f   g_misc.obj
 0001:00101130       ?SP_misc_model_breakable@@YAXPAUgentity_s@@@Z 20102130 f   g_misc.obj
 0001:001015d0       ?SP_misc_model_health_power_converter@@YAXPAUgentity_s@@@Z 201025d0 f   g_misc.obj
 0001:00101910       ?SP_misc_model_shield_power_converter@@YAXPAUgentity_s@@@Z 20102910 f   g_misc.obj
 0001:00101c20       ?SP_misc_model_static@@YAXPAUgentity_s@@@Z 20102c20 f   g_misc.obj
 0001:00101c50       ?SP_misc_portal_camera@@YAXPAUgentity_s@@@Z 20102c50 f   g_misc.obj
 0001:00101d80       ?SP_misc_portal_surface@@YAXPAUgentity_s@@@Z 20102d80 f   g_misc.obj
 0001:00101f40       ?SP_misc_security_panel@@YAXPAUgentity_s@@@Z 20102f40 f   g_misc.obj
 0001:00102170       ?SP_misc_shield_floor_unit@@YAXPAUgentity_s@@@Z 20103170 f   g_misc.obj
 0001:00102760       ?SP_misc_skyportal@@YAXPAUgentity_s@@@Z 20103760 f   g_misc.obj
 0001:00102950       ?SP_misc_skyportal_orient@@YAXPAUgentity_s@@@Z 20103950 f   g_misc.obj
 0001:00102970       ?SP_misc_slotmachine@@YAXPAUgentity_s@@@Z 20103970 f   g_misc.obj
 0001:00102b40       ?SP_misc_teleporter_dest@@YAXPAUgentity_s@@@Z 20103b40 f   g_misc.obj
 0001:00102b60       ?SP_misc_weapon_shooter@@YAXPAUgentity_s@@@Z 20103b60 f   g_misc.obj
 0001:00102df0       ?SP_misc_weather_zone@@YAXPAUgentity_s@@@Z 20103df0 f   g_misc.obj
 0001:00102e20       ?SP_reference_tag@@YAXPAUgentity_s@@@Z 20103e20 f   g_misc.obj
 0001:00102e80       ?SP_shooter_blaster@@YAXPAUgentity_s@@@Z 20103e80 f   g_misc.obj
 0001:00102eb0       ?SP_target_escapetrig@@YAXPAUgentity_s@@@Z 20103eb0 f   g_misc.obj
 0001:00102f80       ?SP_target_screenshake@@YAXPAUgentity_s@@@Z 20103f80 f   g_misc.obj
 0001:00103010       ?SP_terrain@@YAXPAUgentity_s@@@Z 20104010 f   g_misc.obj
 0001:001037e0       ?TAG_Add@@YAPAUreference_tag_s@@PBD0QAM1HH@Z 201047e0 f   g_misc.obj
 0001:00103ae0       ?TAG_Find@@YAPAUreference_tag_s@@PBD0@Z 20104ae0 f   g_misc.obj
 0001:00103c70       ?TAG_FindOwner@@YAPAUtagOwner_s@@PBD@Z 20104c70 f   g_misc.obj
 0001:00103cf0       ?TAG_GetAngles@@YAHPBD0QAM@Z 20104cf0 f   g_misc.obj
 0001:00103da0       ?TAG_GetFlags@@YAHPBD0@Z   20104da0 f   g_misc.obj
 0001:00103e10       ?TAG_GetOrigin2@@YAHPBD0QAM@Z 20104e10 f   g_misc.obj
 0001:00103ec0       ?TAG_GetOrigin@@YAHPBD0QAM@Z 20104ec0 f   g_misc.obj
 0001:00103fd0       ?TAG_GetRadius@@YAHPBD0@Z  20104fd0 f   g_misc.obj
 0001:00104040       ?TAG_Init@@YAXXZ           20105040 f   g_misc.obj
 0001:001040e0       ?TeleportPlayer@@YAXPAUgentity_s@@QAM1H@Z 201050e0 f   g_misc.obj
 0001:001044f0       ?Use_Shooter@@YAXPAUgentity_s@@00@Z 201054f0 f   g_misc.obj
 0001:00104940       ?Use_Target_Escapetrig@@YAXPAUgentity_s@@00@Z 20105940 f   g_misc.obj
 0001:00104b00       ?Use_Target_Screenshake@@YAXPAUgentity_s@@00@Z 20105b00 f   g_misc.obj
 0001:00104b70       ?ammo_generic_power_converter_use@@YAXPAUgentity_s@@00@Z 20105b70 f   g_misc.obj
 0001:00105040       ?ammo_power_converter_use@@YAXPAUgentity_s@@00@Z 20106040 f   g_misc.obj
 0001:00105250       ?camera_disconnect@@YAXPAUgentity_s@@00QAM@Z 20106250 f   g_misc.obj
 0001:00105690       ?check_recharge@@YAXPAUgentity_s@@@Z 20106690 f   g_misc.obj
 0001:00105810       ?faller_think@@YAXPAUgentity_s@@@Z 20106810 f   g_misc.obj
 0001:00105a10       ?faller_touch@@YAXPAUgentity_s@@0PAUtrace_t@@@Z 20106a10 f   g_misc.obj
 0001:00105b50       ?fx_runner_link@@YAXPAUgentity_s@@@Z 20106b50 f   g_misc.obj
 0001:00105eb0       ?fx_runner_think@@YAXPAUgentity_s@@@Z 20106eb0 f   g_misc.obj
 0001:001061c0       ?fx_runner_use@@YAXPAUgentity_s@@00@Z 201071c0 f   g_misc.obj
 0001:00106490       ?health_power_converter_use@@YAXPAUgentity_s@@00@Z 20107490 f   g_misc.obj
 0001:00106610       ?locateCamera@@YAXPAUgentity_s@@@Z 20107610 f   g_misc.obj
 0001:001068c0       ?maglock_die@@YAXPAUgentity_s@@00HH@Z 201078c0 f   g_misc.obj
 0001:00106970       ?maglock_link@@YAXPAUgentity_s@@@Z 20107970 f   g_misc.obj
 0001:00106ec0       ?misc_camera_think@@YAXPAUgentity_s@@@Z 20107ec0 f   g_misc.obj
 0001:001071d0       ?misc_camera_use@@YAXPAUgentity_s@@00@Z 201081d0 f   g_misc.obj
 0001:001075f0       ?misc_dlight_use@@YAXPAUgentity_s@@00@Z 201085f0 f   g_misc.obj
 0001:00107660       ?misc_faller_create@@YAXPAUgentity_s@@00@Z 20108660 f   g_misc.obj
 0001:001079a0       ?misc_faller_think@@YAXPAUgentity_s@@@Z 201089a0 f   g_misc.obj
 0001:00107cc0       ?misc_model_breakable_pay@@YAXPAUgentity_s@@00@Z 20108cc0 f   g_misc.obj
 0001:00107ff0       ?misc_model_breakable_touch@@YAXPAUgentity_s@@0PAUtrace_t@@@Z 20108ff0 f   g_misc.obj
 0001:001080b0       ?misc_model_breakable_use@@YAXPAUgentity_s@@00@Z 201090b0 f   g_misc.obj
 0001:00108240       ?misc_security_panel_use@@YAXPAUgentity_s@@00@Z 20109240 f   g_misc.obj
 0001:001082c0       ?misc_slotmachine_use@@YAXPAUgentity_s@@00@Z 201092c0 f   g_misc.obj
 0001:001088b0       ?misc_weapon_shooter_aim@@YAXPAUgentity_s@@@Z 201098b0 f   g_misc.obj
 0001:00108c20       ?misc_weapon_shooter_fire@@YAXPAUgentity_s@@@Z 20109c20 f   g_misc.obj
 0001:00108cb0       ?misc_weapon_shooter_use@@YAXPAUgentity_s@@00@Z 20109cb0 f   g_misc.obj
 0001:00108d00       ?ref_link@@YAXPAUgentity_s@@@Z 20109d00 f   g_misc.obj
 0001:00108ef0       ?shield_power_converter_use@@YAXPAUgentity_s@@00@Z 20109ef0 f   g_misc.obj
 0001:001092c0       ?CreateMissile@@YAPAUgentity_s@@QAM0MHPAU1@H@Z 2010a2c0 f   g_missile.obj
 0001:00109540       ?G_BounceMissile@@YAXPAUgentity_s@@PAUtrace_t@@@Z 2010a540 f   g_missile.obj
 0001:00109be0       ?G_BounceProjectile@@YAXQAM000@Z 2010abe0 f   g_missile.obj
 0001:00109f10       ?G_DeflectMissile@@YAXPAUgentity_s@@0QAM@Z 2010af10 f   g_missile.obj
 0001:0010a470       ?G_ExplodeMissile@@YAXPAUgentity_s@@@Z 2010b470 f   g_missile.obj
 0001:0010a790       ?G_MissileBounceEffect@@YAXPAUgentity_s@@QAM1@Z 2010b790 f   g_missile.obj
 0001:0010a950       ?G_MissileImpact@@YAXPAUgentity_s@@PAUtrace_t@@@Z 2010b950 f   g_missile.obj
 0001:0010c190       ?G_ReflectMissile@@YAXPAUgentity_s@@0QAM@Z 2010d190 f   g_missile.obj
 0001:0010cc10       ?G_RunMissile@@YAXPAUgentity_s@@@Z 2010dc10 f   g_missile.obj
 0001:0010d690       ?G_RunStuckMissile@@YAXPAUgentity_s@@@Z 2010e690 f   g_missile.obj
 0001:0010d9c0       ?Blocked_Door@@YAXPAUgentity_s@@0@Z 2010e9c0 f   g_mover.obj
 0001:0010db80       ?CalcTeamDoorCenter@@YAXPAUgentity_s@@QAM@Z 2010eb80 f   g_mover.obj
 0001:0010e150       ?FreeDoorTrigger@@YAXPAUgentity_s@@@Z 2010f150 f   g_mover.obj
 0001:0010e1c0       ?G_Chunks@@YAXHQAMQBM11MHHHM@Z 2010f1c0 f   g_mover.obj
 0001:0010e420       ?G_CreateRotationMatrix@@YAXQAMQAY02M@Z 2010f420 f   g_mover.obj
 0001:0010e490       ?G_EntIsBreakable@@YAHH@Z  2010f490 f   g_mover.obj
 0001:0010e580       ?G_EntIsDoor@@YAHH@Z       2010f580 f   g_mover.obj
 0001:0010e610       ?G_EntIsRemovableUsable@@YAHH@Z 2010f610 f   g_mover.obj
 0001:0010e6b0       ?G_EntIsUnlockedDoor@@YAHH@Z 2010f6b0 f   g_mover.obj
 0001:0010e910       ?G_FindDoorTrigger@@YAPAUgentity_s@@PAU1@@Z 2010f910 f   g_mover.obj
 0001:0010eaa0       ?G_MiscModelExplosion@@YAXQAM0HH@Z 2010faa0 f   g_mover.obj
 0001:0010ed30       ?G_MoverPush@@YAHPAUgentity_s@@QAM1PAPAU1@@Z 2010fd30 f   g_mover.obj
 0001:0010f890       ?G_MoverTeam@@YAXPAUgentity_s@@@Z 20110890 f   g_mover.obj
 0001:0010fc90       ?G_PlayDoorLoopSound@@YAXPAUgentity_s@@@Z 20110c90 f   g_mover.obj
 0001:0010fd20       ?G_PlayDoorSound@@YAXPAUgentity_s@@H@Z 20110d20 f   g_mover.obj
 0001:0010fda0       ?G_RotatePoint@@YAXQAMQAY02M@Z 20110da0 f   g_mover.obj
 0001:00110030       ?G_RunMover@@YAXPAUgentity_s@@@Z 20111030 f   g_mover.obj
 0001:00110090       ?G_TestEntityPosition@@YAPAUgentity_s@@PAU1@@Z 20111090 f   g_mover.obj
 0001:00110260       ?G_TransposeMatrix@@YAXQAY02M0@Z 20111260 f   g_mover.obj
 0001:001102e0       ?G_TryPushingEntity@@YAHPAUgentity_s@@0QAM1@Z 201112e0 f   g_mover.obj
 0001:001110e0       ?GlassDie@@YAXPAUgentity_s@@00HH@Z 201120e0 f   g_mover.obj
 0001:00111390       ?GlassDie_Old@@YAXPAUgentity_s@@00HH@Z 20112390 f   g_mover.obj
 0001:001115e0       ?GlassPain@@YAXPAUgentity_s@@0H@Z 201125e0 f   g_mover.obj
 0001:00111600       ?GlassUse@@YAXPAUgentity_s@@00@Z 20112600 f   g_mover.obj
 0001:00111e90       ?InitMover@@YAXPAUgentity_s@@@Z 20112e90 f   g_mover.obj
 0001:00112200       ?InitMoverTrData@@YAXPAUgentity_s@@@Z 20113200 f   g_mover.obj
 0001:001126a0       ?LockDoors@@YAXQAUgentity_s@@@Z 201136a0 f   g_mover.obj
 0001:00112700       ?MatchTeam@@YAXPAUgentity_s@@HH@Z 20113700 f   g_mover.obj
 0001:00112750       ?Reached_BinaryMover@@YAXPAUgentity_s@@@Z 20113750 f   g_mover.obj
 0001:00112970       ?Reached_Train@@YAXPAUgentity_s@@@Z 20113970 f   g_mover.obj
 0001:00112d60       ?ReturnToPos1@@YAXPAUgentity_s@@@Z 20113d60 f   g_mover.obj
 0001:00112df0       ?SP_func_bobbing@@YAXPAUgentity_s@@@Z 20113df0 f   g_mover.obj
 0001:001130a0       ?SP_func_breakable@@YAXPAUgentity_s@@@Z 201140a0 f   g_mover.obj
 0001:00113470       ?SP_func_button@@YAXPAUgentity_s@@@Z 20114470 f   g_mover.obj
 0001:00113980       ?SP_func_door@@YAXPAUgentity_s@@@Z 20114980 f   g_mover.obj
 0001:001142d0       ?SP_func_glass@@YAXPAUgentity_s@@@Z 201152d0 f   g_mover.obj
 0001:00114530       ?SP_func_pendulum@@YAXPAUgentity_s@@@Z 20115530 f   g_mover.obj
 0001:00114880       ?SP_func_plat@@YAXPAUgentity_s@@@Z 20115880 f   g_mover.obj
 0001:00114bf0       ?SP_func_rotating@@YAXPAUgentity_s@@@Z 20115bf0 f   g_mover.obj
 0001:001150e0       ?SP_func_static@@YAXPAUgentity_s@@@Z 201160e0 f   g_mover.obj
 0001:001153c0       ?SP_func_train@@YAXPAUgentity_s@@@Z 201163c0 f   g_mover.obj
 0001:00115610       ?SP_func_usable@@YAXPAUgentity_s@@@Z 20116610 f   g_mover.obj
 0001:00115a10       ?SP_func_wall@@YAXPAUgentity_s@@@Z 20116a10 f   g_mover.obj
 0001:00115d30       ?SP_path_corner@@YAXPAUgentity_s@@@Z 20116d30 f   g_mover.obj
 0001:00115d90       ?SP_rail_lane@@YAXPAUgentity_s@@@Z 20116d90 f   g_mover.obj
 0001:00115e80       ?SP_rail_mover@@YAXPAUgentity_s@@@Z 20116e80 f   g_mover.obj
 0001:00116090       ?SP_rail_track@@YAXPAUgentity_s@@@Z 20117090 f   g_mover.obj
 0001:00116180       ?SP_target_fixdoor@@YAXPAUgentity_s@@@Z 20117180 f   g_mover.obj
 0001:001161c0       ?SetMoverState@@YAXPAUgentity_s@@W4moverState_t@@H@Z 201171c0 f   g_mover.obj
 0001:00116d90       ?SpawnPlatTrigger@@YAXPAUgentity_s@@@Z 20117d90 f   g_mover.obj
 0001:00117240       ?Think_BeginMoving@@YAXPAUgentity_s@@@Z 20118240 f   g_mover.obj
 0001:001172a0       ?Think_MatchTeam@@YAXPAUgentity_s@@@Z 201182a0 f   g_mover.obj
 0001:001172e0       ?Think_SetupTrainTargets@@YAXPAUgentity_s@@@Z 201182e0 f   g_mover.obj
 0001:00117470       ?Think_SpawnNewDoorTrigger@@YAXPAUgentity_s@@@Z 20118470 f   g_mover.obj
 0001:00117860       ?Touch_Button@@YAXPAUgentity_s@@0PAUtrace_t@@@Z 20118860 f   g_mover.obj
 0001:001178b0       ?Touch_DoorTrigger@@YAXPAUgentity_s@@0PAUtrace_t@@@Z 201188b0 f   g_mover.obj
 0001:00117eb0       ?Touch_Plat@@YAXPAUgentity_s@@0PAUtrace_t@@@Z 20118eb0 f   g_mover.obj
 0001:00117f20       ?Touch_PlatCenterTrigger@@YAXPAUgentity_s@@0PAUtrace_t@@@Z 20118f20 f   g_mover.obj
 0001:00117f80       ?UnLockDoors@@YAXQAUgentity_s@@@Z 20118f80 f   g_mover.obj
 0001:00118020       ?Use_BinaryMover@@YAXPAUgentity_s@@00@Z 20119020 f   g_mover.obj
 0001:001181d0       ?Use_BinaryMover_Go@@YAXPAUgentity_s@@@Z 201191d0 f   g_mover.obj
 0001:001192b0       ?acos@@YAMM@Z              2011a2b0 f i g_mover.obj
 0001:001192e0       ?boxEmpty@@YAHPAUgentity_s@@QBM1@Z 2011a2e0 f   g_mover.obj
 0001:00119710       ?find_target@@YAPAUgentity_s@@PAU1@@Z 2011a710 f   g_mover.obj
 0001:001197e0       ?fixdoor@@YAXPAUgentity_s@@@Z 2011a7e0 f   g_mover.obj
 0001:001198d0       ?funcBBrushDie@@YAXPAUgentity_s@@00HH@Z 2011a8d0 f   g_mover.obj
 0001:00119990       ?funcBBrushDieGo@@YAXPAUgentity_s@@@Z 2011a990 f   g_mover.obj
 0001:0011a350       ?funcBBrushPain@@YAXPAUgentity_s@@0H@Z 2011b350 f   g_mover.obj
 0001:0011aa60       ?funcBBrushTouch@@YAXPAUgentity_s@@0PAUtrace_t@@@Z 2011ba60 f   g_mover.obj
 0001:0011aa80       ?funcBBrushUse@@YAXPAUgentity_s@@00@Z 2011ba80 f   g_mover.obj
 0001:0011ab30       ?func_rotating_use@@YAXPAUgentity_s@@00@Z 2011bb30 f   g_mover.obj
 0001:0011ac80       ?func_static_use@@YAXPAUgentity_s@@00@Z 2011bc80 f   g_mover.obj
 0001:0011ad00       ?func_usable_die@@YAXPAUgentity_s@@00HH@Z 2011bd00 f   g_mover.obj
 0001:0011ad40       ?func_usable_pain@@YAXPAUgentity_s@@0H@Z 2011bd40 f   g_mover.obj
 0001:0011ad70       ?func_usable_think@@YAXPAUgentity_s@@@Z 2011bd70 f   g_mover.obj
 0001:0011add0       ?func_usable_use@@YAXPAUgentity_s@@00@Z 2011bdd0 f   g_mover.obj
 0001:0011b090       ?func_wait_return_solid@@YAXPAUgentity_s@@@Z 2011c090 f   g_mover.obj
 0001:0011b2d0       ?rail_lane_init@@YAXPAUgentity_s@@@Z 2011c2d0 f   g_mover.obj
 0001:0011b6d0       ?rail_lane_think@@YAXPAUgentity_s@@@Z 2011c6d0 f   g_mover.obj
 0001:0011b7a0       ?rail_lane_use@@YAXPAUgentity_s@@00@Z 2011c7a0 f   g_mover.obj
 0001:0011b840       ?rail_mover_init@@YAXPAUgentity_s@@@Z 2011c840 f   g_mover.obj
 0001:0011b9e0       ?rail_mover_think@@YAXPAUgentity_s@@@Z 2011c9e0 f   g_mover.obj
 0001:0011c100       ?rail_track_init@@YAXPAUgentity_s@@@Z 2011d100 f   g_mover.obj
 0001:0011c440       ?rail_track_think@@YAXPAUgentity_s@@@Z 2011d440 f   g_mover.obj
 0001:0011c9e0       ?rail_track_use@@YAXPAUgentity_s@@00@Z 2011d9e0 f   g_mover.obj
 0001:0011ca70       ?use_wall@@YAXPAUgentity_s@@00@Z 2011da70 f   g_mover.obj
 0001:0011cb30       _acosf                     2011db30 f i g_mover.obj
 0001:0011cf20       ?FlyingCreature@@YAHPAUgentity_s@@@Z 2011df20 f   g_nav.obj
 0001:0011cf70       ?G_Cube@@YAXQAM00M@Z       2011df70 f   g_nav.obj
 0001:0011cf90       ?G_CubeOutline@@YAXQAM0HIM@Z 2011df90 f   g_nav.obj
 0001:0011cfb0       ?G_DrawCombatPoint@@YAXQAMH@Z 2011dfb0 f   g_nav.obj
 0001:0011cfd0       ?G_DrawEdge@@YAXQAM0H@Z    2011dfd0 f   g_nav.obj
 0001:0011cff0       ?G_DrawNode@@YAXQAMH@Z     2011dff0 f   g_nav.obj
 0001:0011d010       ?G_Line@@YAXQAM00M@Z       2011e010 f   g_nav.obj
 0001:0011d030       ?NAV_AvoidCollision@@YAHPAUgentity_s@@0PAUnavInfo_s@@@Z 2011e030 f   g_nav.obj
 0001:0011d3c0       ?NAV_Bypass@@YAHPAUgentity_s@@0QAMM1@Z 2011e3c0 f   g_nav.obj
 0001:0011db10       ?NAV_CalculatePaths@@YAXPBDH@Z 2011eb10 f   g_nav.obj
 0001:0011dd40       ?NAV_CheckAhead@@YAHPAUgentity_s@@QAMPAUtrace_t@@H@Z 2011ed40 f   g_nav.obj
 0001:0011e0e0       ?NAV_ClearBlockedInfo@@YAXPAUgentity_s@@@Z 2011f0e0 f   g_nav.obj
 0001:0011e130       ?NAV_ClearPathToPoint@@YAHPAUgentity_s@@QAM11HH@Z 2011f130 f   g_nav.obj
 0001:0011ec80       ?NAV_ClearStoredWaypoints@@YAXXZ 2011fc80 f   g_nav.obj
 0001:0011eca0       ?NAV_FindClosestWaypointForEnt@@YAHPAUgentity_s@@H@Z 2011fca0 f   g_nav.obj
 0001:0011ece0       ?NAV_FindClosestWaypointForPoint2@@YAHQAM@Z 2011fce0 f   g_nav.obj
 0001:0011ee50       ?NAV_FindClosestWaypointForPoint@@YAHPAUgentity_s@@QAM@Z 2011fe50 f   g_nav.obj
 0001:0011f000       ?NAV_FindPlayerWaypoint@@YAXH@Z 20120000 f   g_nav.obj
 0001:0011f060       ?NAV_GetNearestNode@@YAHPAUgentity_s@@H@Z 20120060 f   g_nav.obj
 0001:0011f090       ?NAV_GetStoredWaypoint@@YAHPAD@Z 20120090 f   g_nav.obj
 0001:0011f150       ?NAV_HitNavGoal@@YAHQAM000HH@Z 20120150 f   g_nav.obj
 0001:0011f750       ?NAV_MicroError@@YAHQAM0@Z 20120750 f   g_nav.obj
 0001:0011f7c0       ?NAV_MoveBlocker@@YAHPAUgentity_s@@QAM@Z 201207c0 f   g_nav.obj
 0001:0011f950       ?NAV_MoveToGoal@@YAHPAUgentity_s@@PAUnavInfo_s@@@Z 20120950 f   g_nav.obj
 0001:0011ff10       ?NAV_ResolveBlock@@YAHPAUgentity_s@@0QAM@Z 20120f10 f   g_nav.obj
 0001:0011ff80       ?NAV_ResolveEntityCollision@@YAHPAUgentity_s@@0QAM1@Z 20120f80 f   g_nav.obj
 0001:001201b0       ?NAV_SetBlockedInfo@@YAXPAUgentity_s@@H@Z 201211b0 f   g_nav.obj
 0001:00120200       ?NAV_ShowDebugInfo@@YAXXZ  20121200 f   g_nav.obj
 0001:001203b0       ?NAV_Shutdown@@YAXXZ       201213b0 f   g_nav.obj
 0001:001203d0       ?NAV_StackedCanyon@@YAHPAUgentity_s@@0QAM@Z 201213d0 f   g_nav.obj
 0001:00120d00       ?NAV_Steer@@YAHPAUgentity_s@@QAMM@Z 20121d00 f   g_nav.obj
 0001:00121170       ?NAV_StoreWaypoint@@YAXPAUgentity_s@@@Z 20122170 f   g_nav.obj
 0001:00121300       ?NAV_TestBestNode@@YAHPAUgentity_s@@HHH@Z 20122300 f   g_nav.obj
 0001:00121ae0       ?NAV_TestForBlocked@@YAHPAUgentity_s@@00MPAH@Z 20122ae0 f   g_nav.obj
 0001:00121bb0       ?NAV_TrueCollision@@YAHPAUgentity_s@@0QAM1@Z 20122bb0 f   g_nav.obj
 0001:00122180       ?NAV_WaypointsTooFar@@YAHPAUgentity_s@@0@Z 20123180 f   g_nav.obj
 0001:00122400       ?NPC_Blocked@@YAXPAUgentity_s@@0@Z 20123400 f   g_nav.obj
 0001:00122530       ?NPC_SetMoveGoal@@YAXPAUgentity_s@@QAMHHH0@Z 20123530 f   g_nav.obj
 0001:00122990       ?SP_waypoint@@YAXPAUgentity_s@@@Z 20123990 f   g_nav.obj
 0001:00122bf0       ?SP_waypoint_navgoal@@YAXPAUgentity_s@@@Z 20123bf0 f   g_nav.obj
 0001:00122e30       ?SP_waypoint_navgoal_1@@YAXPAUgentity_s@@@Z 20123e30 f   g_nav.obj
 0001:00123020       ?SP_waypoint_navgoal_2@@YAXPAUgentity_s@@@Z 20124020 f   g_nav.obj
 0001:00123210       ?SP_waypoint_navgoal_4@@YAXPAUgentity_s@@@Z 20124210 f   g_nav.obj
 0001:00123400       ?SP_waypoint_navgoal_8@@YAXPAUgentity_s@@@Z 20124400 f   g_nav.obj
 0001:001235f0       ?SP_waypoint_small@@YAXPAUgentity_s@@@Z 201245f0 f   g_nav.obj
 0001:00123870       ?Svcmd_Nav_f@@YAXXZ        20124870 f   g_nav.obj
 0001:00123db0       ?TAG_ShowTags@@YAXH@Z      20124db0 f   g_nav.obj
 0001:00123fd0       ?waypoint_getRadius@@YAIPAUgentity_s@@@Z 20124fd0 f   g_nav.obj
 0001:00124060       ?waypoint_testDirection@@YAIQAMMI@Z 20125060 f   g_nav.obj
 0001:001244f0       ?NAVNEW_AvoidCollision@@YAHPAUgentity_s@@0PAUnavInfo_s@@HH@Z 201254f0 f   g_navnew.obj
 0001:001248e0       ?NAVNEW_Bypass@@YAHPAUgentity_s@@0QAMM1H@Z 201258e0 f   g_navnew.obj
 0001:00124a10       ?NAVNEW_CheckDoubleBlock@@YAHPAUgentity_s@@0QAM@Z 20125a10 f   g_navnew.obj
 0001:00124a60       ?NAVNEW_ClearPathBetweenPoints@@YAHQAM000HH@Z 20125a60 f   g_navnew.obj
 0001:00124ae0       ?NAVNEW_DanceWithBlocker@@YAHPAUgentity_s@@0QAM1@Z 20125ae0 f   g_navnew.obj
 0001:00124e70       ?NAVNEW_MoveToGoal@@YAHPAUgentity_s@@PAUnavInfo_s@@@Z 20125e70 f   g_navnew.obj
 0001:00125880       ?NAVNEW_PushBlocker@@YAXPAUgentity_s@@0QAMH@Z 20126880 f   g_navnew.obj
 0001:00126180       ?NAVNEW_ResolveEntityCollision@@YAHPAUgentity_s@@0QAM1H@Z 20127180 f   g_navnew.obj
 0001:00126390       ?NAVNEW_SidestepBlocker@@YAHPAUgentity_s@@0QAMM11@Z 20127390 f   g_navnew.obj
 0001:00126f00       ?NAVNEW_TestNodeConnectionBlocked@@YAHHHPAUgentity_s@@HHH@Z 20127f00 f   g_navnew.obj
 0001:001272d0       ?NAV_CheckNodeFailedForEnt@@YAHPAUgentity_s@@H@Z 201282d0 f   g_navnew.obj
 0001:00127330       ?NPC_ClearBlocked@@YAXPAUgentity_s@@@Z 20128330 f   g_navnew.obj
 0001:00127370       ?NPC_SetBlocked@@YAXPAUgentity_s@@0@Z 20128370 f   g_navnew.obj
 0001:001274c0       ?G_BounceObject@@YAXPAUgentity_s@@PAUtrace_t@@@Z 201284c0 f   g_object.obj
 0001:00127bb0       ?G_RunObject@@YAXPAUgentity_s@@@Z 20128bb0 f   g_object.obj
 0001:00128660       ?G_StartObjectMoving@@YAXPAUgentity_s@@QAMMW4trType_t@@@Z 20129660 f   g_object.obj
 0001:001287f0       ?G_StopObjectMoving@@YAXPAUgentity_s@@@Z 201297f0 f   g_object.obj
 0001:00128a10       ?AddSiegeWinningTeamPoints@@YAXHH@Z 20129a10 f   g_saga.obj
 0001:00128ae0       ?BroadcastObjectiveCompletion@@YAXHHHH@Z 20129ae0 f   g_saga.obj
 0001:00128b80       ?G_SiegeClientExData@@YAXPAUgentity_s@@@Z 20129b80 f   g_saga.obj
 0001:00128df0       ?G_SiegeGetCompletionStatus@@YAHHH@Z 20129df0 f   g_saga.obj
 0001:00128f10       ?G_SiegeRegisterWeaponsAndHoldables@@YAXH@Z 20129f10 f   g_saga.obj
 0001:00129040       ?G_SiegeSetObjectiveComplete@@YAXHHH@Z 2012a040 f   g_saga.obj
 0001:00129170       ?G_ValidateSiegeClassForTeam@@YAXPAUgentity_s@@H@Z 2012a170 f   g_saga.obj
 0001:00129300       ?InitSiegeMode@@YAXXZ      2012a300 f   g_saga.obj
 0001:00129ce0       ?SP_info_siege_decomplete@@YAXPAUgentity_s@@@Z 2012ace0 f   g_saga.obj
 0001:00129db0       ?SP_info_siege_objective@@YAXPAUgentity_s@@@Z 2012adb0 f   g_saga.obj
 0001:00129f60       ?SP_info_siege_radaricon@@YAXPAUgentity_s@@@Z 2012af60 f   g_saga.obj
 0001:0012a080       ?SP_misc_siege_item@@YAXPAUgentity_s@@@Z 2012b080 f   g_saga.obj
 0001:0012a8d0       ?SP_target_siege_end@@YAXPAUgentity_s@@@Z 2012b8d0 f   g_saga.obj
 0001:0012a920       ?SetTeamQuick@@YAXPAUgentity_s@@HH@Z 2012b920 f   g_saga.obj
 0001:0012ab00       ?SiegeBeginRound@@YAXH@Z   2012bb00 f   g_saga.obj
 0001:0012ad40       ?SiegeBroadcast_OBJECTIVECOMPLETE@@YAXHHH@Z 2012bd40 f   g_saga.obj
 0001:0012ae20       ?SiegeBroadcast_ROUNDOVER@@YAXHH@Z 2012be20 f   g_saga.obj
 0001:0012aef0       ?SiegeCheckTimers@@YAXXZ   2012bef0 f   g_saga.obj
 0001:0012b240       ?SiegeClearSwitchData@@YAXXZ 2012c240 f   g_saga.obj
 0001:0012b280       ?SiegeDoTeamAssign@@YAXXZ  2012c280 f   g_saga.obj
 0001:0012b3d0       ?SiegeIconUse@@YAXPAUgentity_s@@00@Z 2012c3d0 f   g_saga.obj
 0001:0012b450       ?SiegeItemDie@@YAXPAUgentity_s@@00HH@Z 2012c450 f   g_saga.obj
 0001:0012b5a0       ?SiegeItemPain@@YAXPAUgentity_s@@0H@Z 2012c5a0 f   g_saga.obj
 0001:0012b5d0       ?SiegeItemRemoveOwner@@YAXPAUgentity_s@@0@Z 2012c5d0 f   g_saga.obj
 0001:0012b7e0       ?SiegeItemThink@@YAXPAUgentity_s@@@Z 2012c7e0 f   g_saga.obj
 0001:0012bd00       ?SiegeItemTouch@@YAXPAUgentity_s@@0PAUtrace_t@@@Z 2012cd00 f   g_saga.obj
 0001:0012bff0       ?SiegeItemUse@@YAXPAUgentity_s@@00@Z 2012cff0 f   g_saga.obj
 0001:0012c1b0       ?SiegeObjectiveCompleted@@YAXHHHH@Z 2012d1b0 f   g_saga.obj
 0001:0012c2a0       ?SiegeRespawn@@YAXPAUgentity_s@@@Z 2012d2a0 f   g_saga.obj
 0001:0012c350       ?SiegeRoundComplete@@YAXHH@Z 2012d350 f   g_saga.obj
 0001:0012c6d0       ?SiegeSetCompleteData@@YAXH@Z 2012d6d0 f   g_saga.obj
 0001:0012c710       ?SiegeTeamSwitch@@YAXHH@Z  2012d710 f   g_saga.obj
 0001:0012c790       ?UseSiegeTarget@@YAXPAUgentity_s@@0PAD@Z 2012d790 f   g_saga.obj
 0001:0012c880       ?decompTriggerUse@@YAXPAUgentity_s@@00@Z 2012d880 f   g_saga.obj
 0001:0012ca60       ?siegeEndUse@@YAXPAUgentity_s@@00@Z 2012da60 f   g_saga.obj
 0001:0012ca90       ?siegeTriggerUse@@YAXPAUgentity_s@@00@Z 2012da90 f   g_saga.obj
 0001:0012cd80       ?G_InitSessionData@@YAXPAUgclient_s@@PADHH@Z 2012dd80 f   g_session.obj
 0001:0012d0c0       ?G_InitWorldSession@@YAXXZ 2012e0c0 f   g_session.obj
 0001:0012d160       ?G_ReadSessionData@@YAXPAUgclient_s@@@Z 2012e160 f   g_session.obj
 0001:0012d540       ?G_WriteClientSessionData@@YAXPAUgclient_s@@@Z 2012e540 f   g_session.obj
 0001:0012d8b0       ?G_WriteSessionData@@YAXXZ 2012e8b0 f   g_session.obj
 0001:0012d950       ?SP_item_botroam@@YAXPAUgentity_s@@@Z 2012e950 f   g_spawn.obj
 0001:0012d970       ?SP_gametype_item@@YAXPAUgentity_s@@@Z 2012e970 f   g_spawn.obj
 0001:0012db80       ?AddSpawnField@@YAXPAD0@Z  2012eb80 f   g_spawn.obj
 0001:0012dc80       ?Cmd_Entityinfo_t@@YAXPAUgentity_s@@H@Z 2012ec80 f   g_spawn.obj
 0001:0012e490       ?EntitySpawnError@@YAXPBD@Z 2012f490 f   g_spawn.obj
 0001:0012e4f0       ?G_AddSpawnVarToken@@YAPADPBD@Z 2012f4f0 f   g_spawn.obj
 0001:0012e5a0       ?G_NewString@@YAPADPBD@Z   2012f5a0 f   g_spawn.obj
 0001:0012e690       ?G_ParseSpawnVars@@YAHH@Z  2012f690 f   g_spawn.obj
 0001:0012e890       ?G_PrecacheSoundsets@@YAXXZ 2012f890 f   g_spawn.obj
 0001:0012e980       ?G_SpawnFloat@@YAHPBD0PAM@Z 2012f980 f   g_spawn.obj
 0001:0012e9f0       ?G_SpawnGEntityFromSpawnVars@@YAPAUgentity_s@@H@Z 2012f9f0 f   g_spawn.obj
 0001:0012ea20       ?G_SpawnGEntityPtrFromSpawnVars@@YAPAUgentity_s@@PAU1@PAUSpawnData_s@@H@Z 2012fa20 f   g_spawn.obj
 0001:0012f3a0       ?G_SpawnInt@@YAHPBD0PAH@Z  201303a0 f   g_spawn.obj
 0001:0012f410       ?G_SpawnString@@YAHPBD0PAPAD@Z 20130410 f   g_spawn.obj
 0001:0012f4e0       ?G_SpawnVector@@YAHPBD0QAM@Z 201304e0 f   g_spawn.obj
 0001:0012f570       ?G_SubBSP_SpawnEntitiesFromString@@YAXXZ 20130570 f   g_spawn.obj
 0001:001301b0       ?InitializeSpawnTable@@YAXXZ 201311b0 f   g_spawn.obj
 0001:00130220       ?Lmd_AddSpawnableEntry@@YAXUspawn_t@@@Z 20131220 f   g_spawn.obj
 0001:001302e0       ?SP_bsp_worldspawn@@YAHXZ  201312e0 f   g_spawn.obj
 0001:00130300       ?SP_worldspawn@@YAXXZ      20131300 f   g_spawn.obj
 0001:001309d0       ?fmod@@YAMMM@Z             201319d0 f i g_spawn.obj
 0001:00130a10       ?getField@@YAPAUBG_field_t@@PBD@Z 20131a10 f   g_spawn.obj
 0001:00130a90       ?isValidClassname@@YAHPBD@Z 20131a90 f   g_spawn.obj
 0001:00130b50       _fmodf                     20131b50 f i g_spawn.obj
 0001:00130ba0       ?strap_G2API_AnimateG2Models@@YAXPAXHPAUsharedRagDollUpdateParams_t@@@Z 20131ba0 f   g_strap.obj
 0001:00130bd0       ?strap_G2API_GetBoltMatrix@@YAHPAXHHPAUmdxaBone_t@@QBM2HPAHQAM@Z 20131bd0 f   g_strap.obj
 0001:00130c20       ?strap_G2API_GetBoltMatrix_NoRecNoRot@@YAHPAXHHPAUmdxaBone_t@@QBM2HPAHQAM@Z 20131c20 f   g_strap.obj
 0001:00130c70       ?strap_G2API_GetBoltMatrix_NoReconstruct@@YAHPAXHHPAUmdxaBone_t@@QBM2HPAHQAM@Z 20131c70 f   g_strap.obj
 0001:00130cc0       ?strap_G2API_GetBoneAnim@@YAHPAXPBDHPAMPAH3323H@Z 20131cc0 f   g_strap.obj
 0001:00130d10       ?strap_G2API_IKMove@@YAHPAXHPAUsharedIKMoveParams_t@@@Z 20131d10 f   g_strap.obj
 0001:00130d40       ?strap_G2API_SetBoneAngles@@YAHPAXHPBDQBMHHHHPAHHH@Z 20131d40 f   g_strap.obj
 0001:00130da0       ?strap_G2API_SetBoneAnim@@YAHPAXHPBDHHHMHMH@Z 20131da0 f   g_strap.obj
 0001:00130e10       ?strap_G2API_SetBoneIKState@@YAHPAXHPBDHPAUsharedSetBoneIKStateParams_t@@@Z 20131e10 f   g_strap.obj
 0001:00130e50       ?strap_G2API_SetRagDoll@@YAXPAXPAUsharedRagDollParams_t@@@Z 20131e50 f   g_strap.obj
 0001:00130e80       ?strap_TrueFree@@YAXPAPAX@Z 20131e80 f   g_strap.obj
 0001:00130eb0       ?strap_TrueMalloc@@YAXPAPAXH@Z 20131eb0 f   g_strap.obj
 0001:00130ee0       ?ConsoleCommand@@YAHXZ     20131ee0 f   g_svcmds.obj
 0001:00132f50       ?Svcmd_CopyLog_f@@YAXXZ    20133f50 f   g_svcmds.obj
 0001:00133140       ?Svcmd_DeleteNick_f@@YAXXZ 20134140 f   g_svcmds.obj
 0001:00133240       ?Svcmd_ForceTeam_f@@YAXXZ  20134240 f   g_svcmds.obj
 0001:001332c0       ?PASSFLOAT@@YAHM@Z         201342c0 f   g_syscalls.obj
 0001:001332f0       ?trap_AAS_AlternativeRouteGoals@@YAHQAMH0HHPAXHH@Z 201342f0 f   g_syscalls.obj
 0001:00133340       ?trap_AAS_AreaInfo@@YAHHPAX@Z 20134340 f   g_syscalls.obj
 0001:00133370       ?trap_AAS_AreaReachability@@YAHH@Z 20134370 f   g_syscalls.obj
 0001:001333a0       ?trap_AAS_AreaTravelTimeToGoalArea@@YAHHQAMHH@Z 201343a0 f   g_syscalls.obj
 0001:001333e0       ?trap_AAS_BBoxAreas@@YAHQAM0PAHH@Z 201343e0 f   g_syscalls.obj
 0001:00133420       ?trap_AAS_EnableRoutingArea@@YAHHH@Z 20134420 f   g_syscalls.obj
 0001:00133450       ?trap_AAS_EntityInfo@@YAXHPAX@Z 20134450 f   g_syscalls.obj
 0001:00133480       ?trap_AAS_FloatForBSPEpairKey@@YAHHPADPAM@Z 20134480 f   g_syscalls.obj
 0001:001334c0       ?trap_AAS_Initialized@@YAHXZ 201344c0 f   g_syscalls.obj
 0001:001334f0       ?trap_AAS_IntForBSPEpairKey@@YAHHPADPAH@Z 201344f0 f   g_syscalls.obj
 0001:00133530       ?trap_AAS_NextBSPEntity@@YAHH@Z 20134530 f   g_syscalls.obj
 0001:00133560       ?trap_AAS_PointAreaNum@@YAHQAM@Z 20134560 f   g_syscalls.obj
 0001:00133590       ?trap_AAS_PointContents@@YAHQAM@Z 20134590 f   g_syscalls.obj
 0001:001335c0       ?trap_AAS_PointReachabilityAreaIndex@@YAHQAM@Z 201345c0 f   g_syscalls.obj
 0001:001335f0       ?trap_AAS_PredictClientMovement@@YAHPAXHQAMHH11HHMHHH@Z 201345f0 f   g_syscalls.obj
 0001:00133670       ?trap_AAS_PredictRoute@@YAHPAXHQAMHHHHHHHH@Z 20134670 f   g_syscalls.obj
 0001:001336d0       ?trap_AAS_PresenceTypeBoundingBox@@YAXHQAM0@Z 201346d0 f   g_syscalls.obj
 0001:00133710       ?trap_AAS_Swimming@@YAHQAM@Z 20134710 f   g_syscalls.obj
 0001:00133740       ?trap_AAS_Time@@YAMXZ      20134740 f   g_syscalls.obj
 0001:00133770       ?trap_AAS_TraceAreas@@YAHQAM0PAHPAY02MH@Z 20134770 f   g_syscalls.obj
 0001:001337b0       ?trap_AAS_ValueForBSPEpairKey@@YAHHPAD0H@Z 201347b0 f   g_syscalls.obj
 0001:001337f0       ?trap_AAS_VectorForBSPEpairKey@@YAHHPADQAM@Z 201347f0 f   g_syscalls.obj
 0001:00133830       ?trap_AdjustAreaPortalState@@YAXPAUgentity_s@@H@Z 20134830 f   g_syscalls.obj
 0001:00133860       ?trap_AreasConnected@@YAHHH@Z 20134860 f   g_syscalls.obj
 0001:00133890       ?trap_Argc@@YAHXZ          20134890 f   g_syscalls.obj
 0001:001338c0       ?trap_Argv@@YAXHPADH@Z     201348c0 f   g_syscalls.obj
 0001:00133960       ?trap_BotAddAvoidSpot@@YAXHQAMMH@Z 20134960 f   g_syscalls.obj
 0001:001339b0       ?trap_BotAllocChatState@@YAHXZ 201349b0 f   g_syscalls.obj
 0001:001339e0       ?trap_BotAllocGoalState@@YAHH@Z 201349e0 f   g_syscalls.obj
 0001:00133a10       ?trap_BotAllocMoveState@@YAHXZ 20134a10 f   g_syscalls.obj
 0001:00133a40       ?trap_BotAllocWeaponState@@YAHXZ 20134a40 f   g_syscalls.obj
 0001:00133a70       ?trap_BotAllocateClient@@YAHXZ 20134a70 f   g_syscalls.obj
 0001:00133aa0       ?trap_BotAvoidGoalTime@@YAMHH@Z 20134aa0 f   g_syscalls.obj
 0001:00133ae0       ?trap_BotChatLength@@YAHH@Z 20134ae0 f   g_syscalls.obj
 0001:00133b10       ?trap_BotChooseBestFightWeapon@@YAHHPAH@Z 20134b10 f   g_syscalls.obj
 0001:00133b40       ?trap_BotChooseLTGItem@@YAHHQAMPAHH@Z 20134b40 f   g_syscalls.obj
 0001:00133b80       ?trap_BotChooseNBGItem@@YAHHQAMPAHHPAXM@Z 20134b80 f   g_syscalls.obj
 0001:00133be0       ?trap_BotDumpAvoidGoals@@YAXH@Z 20134be0 f   g_syscalls.obj
 0001:00133c10       ?trap_BotDumpGoalStack@@YAXH@Z 20134c10 f   g_syscalls.obj
 0001:00133c40       ?trap_BotEmptyGoalStack@@YAXH@Z 20134c40 f   g_syscalls.obj
 0001:00133c70       ?trap_BotEnterChat@@YAXHHH@Z 20134c70 f   g_syscalls.obj
 0001:00133cb0       ?trap_BotFindMatch@@YAHPADPAXK@Z 20134cb0 f   g_syscalls.obj
 0001:00133cf0       ?trap_BotFreeCharacter@@YAXH@Z 20134cf0 f   g_syscalls.obj
 0001:00133d20       ?trap_BotFreeChatState@@YAXH@Z 20134d20 f   g_syscalls.obj
 0001:00133d50       ?trap_BotFreeClient@@YAXH@Z 20134d50 f   g_syscalls.obj
 0001:00133d80       ?trap_BotFreeGoalState@@YAXH@Z 20134d80 f   g_syscalls.obj
 0001:00133db0       ?trap_BotFreeItemWeights@@YAXH@Z 20134db0 f   g_syscalls.obj
 0001:00133de0       ?trap_BotFreeMoveState@@YAXH@Z 20134de0 f   g_syscalls.obj
 0001:00133e10       ?trap_BotFreeWeaponState@@YAXH@Z 20134e10 f   g_syscalls.obj
 0001:00133e40       ?trap_BotGetChatMessage@@YAXHPADH@Z 20134e40 f   g_syscalls.obj
 0001:00133e80       ?trap_BotGetLevelItemGoal@@YAHHPADPAX@Z 20134e80 f   g_syscalls.obj
 0001:00133ec0       ?trap_BotGetMapLocationGoal@@YAHPADPAX@Z 20134ec0 f   g_syscalls.obj
 0001:00133ef0       ?trap_BotGetNextCampSpotGoal@@YAHHPAX@Z 20134ef0 f   g_syscalls.obj
 0001:00133f20       ?trap_BotGetSecondGoal@@YAHHPAX@Z 20134f20 f   g_syscalls.obj
 0001:00133f50       ?trap_BotGetServerCommand@@YAHHPADH@Z 20134f50 f   g_syscalls.obj
 0001:00133f90       ?trap_BotGetSnapshotEntity@@YAHHH@Z 20134f90 f   g_syscalls.obj
 0001:00133fc0       ?trap_BotGetTopGoal@@YAHHPAX@Z 20134fc0 f   g_syscalls.obj
 0001:00133ff0       ?trap_BotGetWeaponInfo@@YAXHHPAX@Z 20134ff0 f   g_syscalls.obj
 0001:00134030       ?trap_BotGoalName@@YAXHPADH@Z 20135030 f   g_syscalls.obj
 0001:00134070       ?trap_BotInitLevelItems@@YAXXZ 20135070 f   g_syscalls.obj
 0001:001340a0       ?trap_BotInitMoveState@@YAXHPAX@Z 201350a0 f   g_syscalls.obj
 0001:001340d0       ?trap_BotInitialChat@@YAXHPADH00000000@Z 201350d0 f   g_syscalls.obj
 0001:00134130       ?trap_BotInterbreedGoalFuzzyLogic@@YAXHHH@Z 20135130 f   g_syscalls.obj
 0001:00134170       ?trap_BotItemGoalInVisButNotVisible@@YAHHQAM0PAX@Z 20135170 f   g_syscalls.obj
 0001:001341b0       ?trap_BotLibDefine@@YAHPAD@Z 201351b0 f   g_syscalls.obj
 0001:001341e0       ?trap_BotLibLoadMap@@YAHPBD@Z 201351e0 f   g_syscalls.obj
 0001:00134210       ?trap_BotLibSetup@@YAHXZ   20135210 f   g_syscalls.obj
 0001:00134240       ?trap_BotLibShutdown@@YAHXZ 20135240 f   g_syscalls.obj
 0001:00134270       ?trap_BotLibStartFrame@@YAHM@Z 20135270 f   g_syscalls.obj
 0001:001342b0       ?trap_BotLibTest@@YAHHPADQAM1@Z 201352b0 f   g_syscalls.obj
 0001:001342f0       ?trap_BotLibUpdateEntity@@YAHHPAX@Z 201352f0 f   g_syscalls.obj
 0001:00134320       ?trap_BotLibVarGet@@YAHPAD0H@Z 20135320 f   g_syscalls.obj
 0001:00134360       ?trap_BotLibVarSet@@YAHPAD0@Z 20135360 f   g_syscalls.obj
 0001:00134390       ?trap_BotLoadCharacter@@YAHPADM@Z 20135390 f   g_syscalls.obj
 0001:001343e0       ?trap_BotLoadChatFile@@YAHHPAD0@Z 201353e0 f   g_syscalls.obj
 0001:00134420       ?trap_BotLoadItemWeights@@YAHHPAD@Z 20135420 f   g_syscalls.obj
 0001:00134450       ?trap_BotLoadWeaponWeights@@YAHHPAD@Z 20135450 f   g_syscalls.obj
 0001:00134480       ?trap_BotMatchVariable@@YAXPAXHPADH@Z 20135480 f   g_syscalls.obj
 0001:001344c0       ?trap_BotMoveInDirection@@YAHHQAMMH@Z 201354c0 f   g_syscalls.obj
 0001:00134510       ?trap_BotMoveToGoal@@YAXPAXH0H@Z 20135510 f   g_syscalls.obj
 0001:00134550       ?trap_BotMovementViewTarget@@YAHHPAXHMQAM@Z 20135550 f   g_syscalls.obj
 0001:001345b0       ?trap_BotMutateGoalFuzzyLogic@@YAXHM@Z 201355b0 f   g_syscalls.obj
 0001:001345f0       ?trap_BotNextConsoleMessage@@YAHHPAX@Z 201355f0 f   g_syscalls.obj
 0001:00134620       ?trap_BotNumConsoleMessages@@YAHH@Z 20135620 f   g_syscalls.obj
 0001:00134650       ?trap_BotNumInitialChats@@YAHHPAD@Z 20135650 f   g_syscalls.obj
 0001:00134680       ?trap_BotPopGoal@@YAXH@Z   20135680 f   g_syscalls.obj
 0001:001346b0       ?trap_BotPredictVisiblePosition@@YAHQAMHPAXH0@Z 201356b0 f   g_syscalls.obj
 0001:001346f0       ?trap_BotPushGoal@@YAXHPAX@Z 201356f0 f   g_syscalls.obj
 0001:00134720       ?trap_BotQueueConsoleMessage@@YAXHHPAD@Z 20135720 f   g_syscalls.obj
 0001:00134760       ?trap_BotReachabilityArea@@YAHQAMH@Z 20135760 f   g_syscalls.obj
 0001:00134790       ?trap_BotRemoveConsoleMessage@@YAXHH@Z 20135790 f   g_syscalls.obj
 0001:001347c0       ?trap_BotRemoveFromAvoidGoals@@YAXHH@Z 201357c0 f   g_syscalls.obj
 0001:001347f0       ?trap_BotReplaceSynonyms@@YAXPADK@Z 201357f0 f   g_syscalls.obj
 0001:00134820       ?trap_BotReplyChat@@YAHHPADHH00000000@Z 20135820 f   g_syscalls.obj
 0001:00134890       ?trap_BotResetAvoidGoals@@YAXH@Z 20135890 f   g_syscalls.obj
 0001:001348c0       ?trap_BotResetAvoidReach@@YAXH@Z 201358c0 f   g_syscalls.obj
 0001:001348f0       ?trap_BotResetGoalState@@YAXH@Z 201358f0 f   g_syscalls.obj
 0001:00134920       ?trap_BotResetLastAvoidReach@@YAXH@Z 20135920 f   g_syscalls.obj
 0001:00134950       ?trap_BotResetMoveState@@YAXH@Z 20135950 f   g_syscalls.obj
 0001:00134980       ?trap_BotResetWeaponState@@YAXH@Z 20135980 f   g_syscalls.obj
 0001:001349b0       ?trap_BotSaveGoalFuzzyLogic@@YAXHPAD@Z 201359b0 f   g_syscalls.obj
 0001:001349e0       ?trap_BotSetAvoidGoalTime@@YAXHHM@Z 201359e0 f   g_syscalls.obj
 0001:00134a30       ?trap_BotSetChatGender@@YAXHH@Z 20135a30 f   g_syscalls.obj
 0001:00134a60       ?trap_BotSetChatName@@YAXHPADH@Z 20135a60 f   g_syscalls.obj
 0001:00134aa0       ?trap_BotTouchingGoal@@YAHQAMPAX@Z 20135aa0 f   g_syscalls.obj
 0001:00134ad0       ?trap_BotUpdateEntityItems@@YAXXZ 20135ad0 f   g_syscalls.obj
 0001:00134b00       ?trap_BotUserCommand@@YAXHPAUusercmd_s@@@Z 20135b00 f   g_syscalls.obj
 0001:00134b30       ?trap_Bot_CalculatePaths@@YAXH@Z 20135b30 f   g_syscalls.obj
 0001:00134b60       ?trap_Bot_UpdateWaypoints@@YAXHPAPAUwpobject_s@@@Z 20135b60 f   g_syscalls.obj
 0001:00134b90       ?trap_CM_RegisterTerrain@@YAHPBD@Z 20135b90 f   g_syscalls.obj
 0001:00134bc0       ?trap_Characteristic_BFloat@@YAMHHMM@Z 20135bc0 f   g_syscalls.obj
 0001:00134c30       ?trap_Characteristic_BInteger@@YAHHHHH@Z 20135c30 f   g_syscalls.obj
 0001:00134c70       ?trap_Characteristic_Float@@YAMHH@Z 20135c70 f   g_syscalls.obj
 0001:00134cb0       ?trap_Characteristic_Integer@@YAHHH@Z 20135cb0 f   g_syscalls.obj
 0001:00134ce0       ?trap_Characteristic_String@@YAXHHPADH@Z 20135ce0 f   g_syscalls.obj
 0001:00134d20       ?trap_Cvar_Register@@YAXPAUvmCvar_t@@PBD1H@Z 20135d20 f   g_syscalls.obj
 0001:00134d60       ?trap_Cvar_Set@@YAXPBD0@Z  20135d60 f   g_syscalls.obj
 0001:00134d90       ?trap_Cvar_Update@@YAXPAUvmCvar_t@@@Z 20135d90 f   g_syscalls.obj
 0001:00134dc0       ?trap_Cvar_VariableIntegerValue@@YAHPBD@Z 20135dc0 f   g_syscalls.obj
 0001:00134df0       ?trap_Cvar_VariableStringBuffer@@YAXPBDPADH@Z 20135df0 f   g_syscalls.obj
 0001:00134e20       ?trap_DebugPolygonCreate@@YAHHHPAY02M@Z 20135e20 f   g_syscalls.obj
 0001:00134e50       ?trap_DebugPolygonDelete@@YAXH@Z 20135e50 f   g_syscalls.obj
 0001:00134e80       ?trap_DropClient@@YAXHPBD@Z 20135e80 f   g_syscalls.obj
 0001:00134eb0       ?trap_EA_Action@@YAXHH@Z   20135eb0 f   g_syscalls.obj
 0001:00134ee0       ?trap_EA_Alt_Attack@@YAXH@Z 20135ee0 f   g_syscalls.obj
 0001:00134f10       ?trap_EA_Attack@@YAXH@Z    20135f10 f   g_syscalls.obj
 0001:00134f40       ?trap_EA_Command@@YAXHPAD@Z 20135f40 f   g_syscalls.obj
 0001:00134f70       ?trap_EA_Crouch@@YAXH@Z    20135f70 f   g_syscalls.obj
 0001:00134fa0       ?trap_EA_DelayedJump@@YAXH@Z 20135fa0 f   g_syscalls.obj
 0001:00134fd0       ?trap_EA_EndRegular@@YAXHM@Z 20135fd0 f   g_syscalls.obj
 0001:00135020       ?trap_EA_ForcePower@@YAXH@Z 20136020 f   g_syscalls.obj
 0001:00135050       ?trap_EA_Gesture@@YAXH@Z   20136050 f   g_syscalls.obj
 0001:00135080       ?trap_EA_GetInput@@YAXHMPAX@Z 20136080 f   g_syscalls.obj
 0001:001350d0       ?trap_EA_Jump@@YAXH@Z      201360d0 f   g_syscalls.obj
 0001:00135100       ?trap_EA_Move@@YAXHQAMM@Z  20136100 f   g_syscalls.obj
 0001:00135150       ?trap_EA_MoveBack@@YAXH@Z  20136150 f   g_syscalls.obj
 0001:00135180       ?trap_EA_MoveDown@@YAXH@Z  20136180 f   g_syscalls.obj
 0001:001351b0       ?trap_EA_MoveForward@@YAXH@Z 201361b0 f   g_syscalls.obj
 0001:001351e0       ?trap_EA_MoveLeft@@YAXH@Z  201361e0 f   g_syscalls.obj
 0001:00135210       ?trap_EA_MoveRight@@YAXH@Z 20136210 f   g_syscalls.obj
 0001:00135240       ?trap_EA_MoveUp@@YAXH@Z    20136240 f   g_syscalls.obj
 0001:00135270       ?trap_EA_ResetInput@@YAXH@Z 20136270 f   g_syscalls.obj
 0001:001352a0       ?trap_EA_Respawn@@YAXH@Z   201362a0 f   g_syscalls.obj
 0001:001352d0       ?trap_EA_Say@@YAXHPAD@Z    201362d0 f   g_syscalls.obj
 0001:00135300       ?trap_EA_SayTeam@@YAXHPAD@Z 20136300 f   g_syscalls.obj
 0001:00135330       ?trap_EA_SelectWeapon@@YAXHH@Z 20136330 f   g_syscalls.obj
 0001:00135360       ?trap_EA_Talk@@YAXH@Z      20136360 f   g_syscalls.obj
 0001:00135390       ?trap_EA_Use@@YAXH@Z       20136390 f   g_syscalls.obj
 0001:001353c0       ?trap_EA_View@@YAXHQAM@Z   201363c0 f   g_syscalls.obj
 0001:001353f0       ?trap_EntitiesInBox@@YAHQBM0PAHH@Z 201363f0 f   g_syscalls.obj
 0001:00135430       ?trap_EntityContact@@YAHQBM0PBUgentity_s@@@Z 20136430 f   g_syscalls.obj
 0001:00135460       ?trap_EntityContactCapsule@@YAHQBM0PBUgentity_s@@@Z 20136460 f   g_syscalls.obj
 0001:00135490       ?trap_Error@@YAXPBD@Z      20136490 f   g_syscalls.obj
 0001:001354c0       ?trap_FS_FCloseFile@@YAXH@Z 201364c0 f   g_syscalls.obj
 0001:001354f0       ?trap_FS_FOpenFile@@YAHPBDPAHW4fsMode_t@@@Z 201364f0 f   g_syscalls.obj
 0001:00135520       ?trap_FS_GetFileList@@YAHPBD0PADH@Z 20136520 f   g_syscalls.obj
 0001:00135560       ?trap_FS_Read@@YAXPAXHH@Z  20136560 f   g_syscalls.obj
 0001:00135590       ?trap_FS_Write@@YAXPBXHH@Z 20136590 f   g_syscalls.obj
 0001:001355c0       ?trap_G2API_AbsurdSmoothing@@YAXPAXH@Z 201365c0 f   g_syscalls.obj
 0001:001355f0       ?trap_G2API_AddBolt@@YAHPAXHPBD@Z 201365f0 f   g_syscalls.obj
 0001:00135630       ?trap_G2API_AnimateG2Models@@YAXPAXHPAUsharedRagDollUpdateParams_t@@@Z 20136630 f   g_syscalls.obj
 0001:00135670       ?trap_G2API_AttachInstanceToEntNum@@YAXPAXHH@Z 20136670 f   g_syscalls.obj
 0001:001356b0       ?trap_G2API_CleanEntAttachments@@YAXXZ 201366b0 f   g_syscalls.obj
 0001:001356e0       ?trap_G2API_CleanGhoul2Models@@YAXPAPAX@Z 201366e0 f   g_syscalls.obj
 0001:00135710       ?trap_G2API_ClearAttachedInstance@@YAXH@Z 20136710 f   g_syscalls.obj
 0001:00135740       ?trap_G2API_CollisionDetect@@YAXPAUCollisionRecord_t@@PAXQBM2HHQAM33HHM@Z 20136740 f   g_syscalls.obj
 0001:001357c0       ?trap_G2API_CollisionDetectCache@@YAXPAUCollisionRecord_t@@PAXQBM2HHQAM33HHM@Z 201367c0 f   g_syscalls.obj
 0001:00135840       ?trap_G2API_CopyGhoul2Instance@@YAHPAX0H@Z 20136840 f   g_syscalls.obj
 0001:00135880       ?trap_G2API_CopySpecificGhoul2Model@@YAXPAXH0H@Z 20136880 f   g_syscalls.obj
 0001:001358c0       ?trap_G2API_DoesBoneExist@@YAHPAXHPBD@Z 201368c0 f   g_syscalls.obj
 0001:00135900       ?trap_G2API_DuplicateGhoul2Instance@@YAXPAXPAPAX@Z 20136900 f   g_syscalls.obj
 0001:00135930       ?trap_G2API_GetBoltMatrix@@YAHPAXHHPAUmdxaBone_t@@QBM2HPAHQAM@Z 20136930 f   g_syscalls.obj
 0001:00135990       ?trap_G2API_GetBoltMatrix_NoRecNoRot@@YAHPAXHHPAUmdxaBone_t@@QBM2HPAHQAM@Z 20136990 f   g_syscalls.obj
 0001:001359f0       ?trap_G2API_GetBoltMatrix_NoReconstruct@@YAHPAXHHPAUmdxaBone_t@@QBM2HPAHQAM@Z 201369f0 f   g_syscalls.obj
 0001:00135a50       ?trap_G2API_GetBoneAnim@@YAHPAXPBDHPAMPAH3323H@Z 20136a50 f   g_syscalls.obj
 0001:00135ab0       ?trap_G2API_GetGLAName@@YAXPAXHPAD@Z 20136ab0 f   g_syscalls.obj
 0001:00135af0       ?trap_G2API_GetRagBonePos@@YAHPAXPBDQAM222@Z 20136af0 f   g_syscalls.obj
 0001:00135b40       ?trap_G2API_GetSurfaceName@@YAXPAXHHPAD@Z 20136b40 f   g_syscalls.obj
 0001:00135b80       ?trap_G2API_GetSurfaceRenderStatus@@YAHPAXHPBD@Z 20136b80 f   g_syscalls.obj
 0001:00135bc0       ?trap_G2API_Ghoul2Size@@YAHPAX@Z 20136bc0 f   g_syscalls.obj
 0001:00135bf0       ?trap_G2API_HasGhoul2ModelOnIndex@@YAHPAXH@Z 20136bf0 f   g_syscalls.obj
 0001:00135c20       ?trap_G2API_IKMove@@YAHPAXHPAUsharedIKMoveParams_t@@@Z 20136c20 f   g_syscalls.obj
 0001:00135c60       ?trap_G2API_InitGhoul2Model@@YAHPAPAXPBDHHHHH@Z 20136c60 f   g_syscalls.obj
 0001:00135cb0       ?trap_G2API_OverrideServer@@YAHPAX@Z 20136cb0 f   g_syscalls.obj
 0001:00135ce0       ?trap_G2API_RagEffectorGoal@@YAHPAXPBDQAM@Z 20136ce0 f   g_syscalls.obj
 0001:00135d20       ?trap_G2API_RagEffectorKick@@YAHPAXPBDQAM@Z 20136d20 f   g_syscalls.obj
 0001:00135d60       ?trap_G2API_RagForceSolve@@YAHPAXH@Z 20136d60 f   g_syscalls.obj
 0001:00135d90       ?trap_G2API_RagPCJConstraint@@YAHPAXPBDQAM2@Z 20136d90 f   g_syscalls.obj
 0001:00135dd0       ?trap_G2API_RagPCJGradientSpeed@@YAHPAXPBDM@Z 20136dd0 f   g_syscalls.obj
 0001:00135e20       ?trap_G2API_RemoveBone@@YAHPAXPBDH@Z 20136e20 f   g_syscalls.obj
 0001:00135e60       ?trap_G2API_RemoveGhoul2Model@@YAHPAXH@Z 20136e60 f   g_syscalls.obj
 0001:00135e90       ?trap_G2API_RemoveGhoul2Models@@YAHPAX@Z 20136e90 f   g_syscalls.obj
 0001:00135ec0       ?trap_G2API_SetBoltInfo@@YAXPAXHH@Z 20136ec0 f   g_syscalls.obj
 0001:00135f00       ?trap_G2API_SetBoneAngles@@YAHPAXHPBDQBMHHHHPAHHH@Z 20136f00 f   g_syscalls.obj
 0001:00135f60       ?trap_G2API_SetBoneAnim@@YAHPAXHPBDHHHMHMH@Z 20136f60 f   g_syscalls.obj
 0001:00135fe0       ?trap_G2API_SetBoneIKState@@YAHPAXHPBDHPAUsharedSetBoneIKStateParams_t@@@Z 20136fe0 f   g_syscalls.obj
 0001:00136020       ?trap_G2API_SetNewOrigin@@YAHPAXH@Z 20137020 f   g_syscalls.obj
 0001:00136050       ?trap_G2API_SetRagDoll@@YAXPAXPAUsharedRagDollParams_t@@@Z 20137050 f   g_syscalls.obj
 0001:00136080       ?trap_G2API_SetRootSurface@@YAHPAXHPBD@Z 20137080 f   g_syscalls.obj
 0001:001360c0       ?trap_G2API_SetSkin@@YAHPAXHHH@Z 201370c0 f   g_syscalls.obj
 0001:00136100       ?trap_G2API_SetSurfaceOnOff@@YAHPAXPBDH@Z 20137100 f   g_syscalls.obj
 0001:00136140       ?trap_G2Trace@@YAXPAUtrace_t@@QBM111HHHH@Z 20137140 f   g_syscalls.obj
 0001:00136190       ?trap_G2_HaveWeGhoul2Models@@YAHPAX@Z 20137190 f   g_syscalls.obj
 0001:001361c0       ?trap_G2_ListModelBones@@YAXPAXH@Z 201371c0 f   g_syscalls.obj
 0001:001361f0       ?trap_G2_ListModelSurfaces@@YAXPAX@Z 201371f0 f   g_syscalls.obj
 0001:00136220       ?trap_G2_SetGhoul2ModelIndexes@@YAXPAXPAH1@Z 20137220 f   g_syscalls.obj
 0001:00136260       ?trap_GeneticParentsAndChildSelection@@YAHHPAMPAH11@Z 20137260 f   g_syscalls.obj
 0001:001362a0       ?trap_GetConfigstring@@YAXHPADH@Z 201372a0 f   g_syscalls.obj
 0001:001362d0       ?trap_GetEntityToken@@YAHPADH@Z 201372d0 f   g_syscalls.obj
 0001:00136300       ?trap_GetServerinfo@@YAXPADH@Z 20137300 f   g_syscalls.obj
 0001:00136330       ?trap_GetUsercmd@@YAXHPAUusercmd_s@@@Z 20137330 f   g_syscalls.obj
 0001:00136360       ?trap_GetUserinfo@@YAXHPADH@Z 20137360 f   g_syscalls.obj
 0001:00136390       ?trap_ICARUS_AssociateEnt@@YAXPAUgentity_s@@@Z 20137390 f   g_syscalls.obj
 0001:001363d0       ?trap_ICARUS_FreeEnt@@YAXPAUgentity_s@@@Z 201373d0 f   g_syscalls.obj
 0001:00136410       ?trap_ICARUS_GetFloatVariable@@YAHPBDPAM@Z 20137410 f   g_syscalls.obj
 0001:00136440       ?trap_ICARUS_GetStringVariable@@YAHPBD0@Z 20137440 f   g_syscalls.obj
 0001:00136470       ?trap_ICARUS_GetVectorVariable@@YAHPBDQBM@Z 20137470 f   g_syscalls.obj
 0001:001364a0       ?trap_ICARUS_Init@@YAXXZ   201374a0 f   g_syscalls.obj
 0001:001364d0       ?trap_ICARUS_InitEnt@@YAXPAUgentity_s@@@Z 201374d0 f   g_syscalls.obj
 0001:00136510       ?trap_ICARUS_IsInitialized@@YAHH@Z 20137510 f   g_syscalls.obj
 0001:00136550       ?trap_ICARUS_IsRunning@@YAHH@Z 20137550 f   g_syscalls.obj
 0001:00136590       ?trap_ICARUS_MaintainTaskManager@@YAHH@Z 20137590 f   g_syscalls.obj
 0001:001365d0       ?trap_ICARUS_RegisterScript@@YAHPBDH@Z 201375d0 f   g_syscalls.obj
 0001:00136600       ?trap_ICARUS_RunScript@@YAHPAUgentity_s@@PBD@Z 20137600 f   g_syscalls.obj
 0001:00136630       ?trap_ICARUS_SetVar@@YAXHHPBD0@Z 20137630 f   g_syscalls.obj
 0001:00136680       ?trap_ICARUS_Shutdown@@YAXXZ 20137680 f   g_syscalls.obj
 0001:001366b0       ?trap_ICARUS_TaskIDComplete@@YAXPAUgentity_s@@H@Z 201376b0 f   g_syscalls.obj
 0001:001366f0       ?trap_ICARUS_TaskIDPending@@YAHPAUgentity_s@@H@Z 201376f0 f   g_syscalls.obj
 0001:00136730       ?trap_ICARUS_TaskIDSet@@YAXPAUgentity_s@@HH@Z 20137730 f   g_syscalls.obj
 0001:00136780       ?trap_ICARUS_ValidEnt@@YAHPAUgentity_s@@@Z 20137780 f   g_syscalls.obj
 0001:001367c0       ?trap_ICARUS_VariableDeclared@@YAHPBD@Z 201377c0 f   g_syscalls.obj
 0001:001367f0       ?trap_InPVS@@YAHQBM0@Z     201377f0 f   g_syscalls.obj
 0001:00136820       ?trap_InPVSIgnorePortals@@YAHQBM0@Z 20137820 f   g_syscalls.obj
 0001:00136850       ?trap_LinkEntity@@YAXPAUgentity_s@@@Z 20137850 f   g_syscalls.obj
 0001:00136a50       ?trap_LocateGameData@@YAXPAUgentity_s@@HHPAUplayerState_s@@H@Z 20137a50 f   g_syscalls.obj
 0001:00136a90       ?trap_Milliseconds@@YAHXZ  20137a90 f   g_syscalls.obj
 0001:00136ac0       ?trap_Nav_AddFailedEdge@@YAXHHH@Z 20137ac0 f   g_syscalls.obj
 0001:00136b00       ?trap_Nav_AddFailedNode@@YAXPAUgentity_s@@H@Z 20137b00 f   g_syscalls.obj
 0001:00136b30       ?trap_Nav_AddRawPoint@@YAHQAMHH@Z 20137b30 f   g_syscalls.obj
 0001:00136b70       ?trap_Nav_CalculatePaths@@YAXH@Z 20137b70 f   g_syscalls.obj
 0001:00136ba0       ?trap_Nav_CheckAllFailedEdges@@YAXXZ 20137ba0 f   g_syscalls.obj
 0001:00136bd0       ?trap_Nav_CheckBlockedEdges@@YAXXZ 20137bd0 f   g_syscalls.obj
 0001:00136c00       ?trap_Nav_CheckFailedEdge@@YAHPAUfailedEdge_e@@@Z 20137c00 f   g_syscalls.obj
 0001:00136c30       ?trap_Nav_CheckFailedNodes@@YAXPAUgentity_s@@@Z 20137c30 f   g_syscalls.obj
 0001:00136c60       ?trap_Nav_CheckedNode@@YAHHH@Z 20137c60 f   g_syscalls.obj
 0001:00136c90       ?trap_Nav_ClearAllFailedEdges@@YAXXZ 20137c90 f   g_syscalls.obj
 0001:00136cc0       ?trap_Nav_ClearCheckedNodes@@YAXXZ 20137cc0 f   g_syscalls.obj
 0001:00136cf0       ?trap_Nav_ClearFailedEdge@@YAXPAUfailedEdge_e@@@Z 20137cf0 f   g_syscalls.obj
 0001:00136d20       ?trap_Nav_Connected@@YAHHH@Z 20137d20 f   g_syscalls.obj
 0001:00136d50       ?trap_Nav_EdgeFailed@@YAHHH@Z 20137d50 f   g_syscalls.obj
 0001:00136d80       ?trap_Nav_FlagAllNodes@@YAXH@Z 20137d80 f   g_syscalls.obj
 0001:00136db0       ?trap_Nav_Free@@YAXXZ      20137db0 f   g_syscalls.obj
 0001:00136de0       ?trap_Nav_GetBestNode@@YAHHHH@Z 20137de0 f   g_syscalls.obj
 0001:00136e20       ?trap_Nav_GetBestNodeAltRoute2@@YAHHHH@Z 20137e20 f   g_syscalls.obj
 0001:00136e60       ?trap_Nav_GetBestNodeAltRoute@@YAHHHPAHH@Z 20137e60 f   g_syscalls.obj
 0001:00136ea0       ?trap_Nav_GetBestPathBetweenEnts@@YAHPAUgentity_s@@0H@Z 20137ea0 f   g_syscalls.obj
 0001:00136ee0       ?trap_Nav_GetEdgeCost@@YAHHH@Z 20137ee0 f   g_syscalls.obj
 0001:00136f10       ?trap_Nav_GetNearestNode@@YAHPAUgentity_s@@HHH@Z 20137f10 f   g_syscalls.obj
 0001:00136f50       ?trap_Nav_GetNodeEdge@@YAHHH@Z 20137f50 f   g_syscalls.obj
 0001:00136f80       ?trap_Nav_GetNodeNumEdges@@YAHH@Z 20137f80 f   g_syscalls.obj
 0001:00136fb0       ?trap_Nav_GetNodePosition@@YAHHQAM@Z 20137fb0 f   g_syscalls.obj
 0001:00136fe0       ?trap_Nav_GetNodeRadius@@YAHH@Z 20137fe0 f   g_syscalls.obj
 0001:00137010       ?trap_Nav_GetNumNodes@@YAHXZ 20138010 f   g_syscalls.obj
 0001:00137040       ?trap_Nav_GetPathCost@@YAHHH@Z 20138040 f   g_syscalls.obj
 0001:00137070       ?trap_Nav_GetPathsCalculated@@YAHXZ 20138070 f   g_syscalls.obj
 0001:001370a0       ?trap_Nav_GetProjectedNode@@YAHQAMH@Z 201380a0 f   g_syscalls.obj
 0001:001370d0       ?trap_Nav_HardConnect@@YAXHH@Z 201380d0 f   g_syscalls.obj
 0001:00137100       ?trap_Nav_Init@@YAXXZ      20138100 f   g_syscalls.obj
 0001:00137130       ?trap_Nav_Load@@YAHPBDH@Z  20138130 f   g_syscalls.obj
 0001:00137160       ?trap_Nav_NodeFailed@@YAHPAUgentity_s@@H@Z 20138160 f   g_syscalls.obj
 0001:00137190       ?trap_Nav_NodesAreNeighbors@@YAHHH@Z 20138190 f   g_syscalls.obj
 0001:001371c0       ?trap_Nav_RouteBlocked@@YAHHHHH@Z 201381c0 f   g_syscalls.obj
 0001:00137200       ?trap_Nav_Save@@YAHPBDH@Z  20138200 f   g_syscalls.obj
 0001:00137230       ?trap_Nav_SetCheckedNode@@YAXHHH@Z 20138230 f   g_syscalls.obj
 0001:00137270       ?trap_Nav_SetPathsCalculated@@YAXH@Z 20138270 f   g_syscalls.obj
 0001:001372a0       ?trap_Nav_ShowEdges@@YAXXZ 201382a0 f   g_syscalls.obj
 0001:001372d0       ?trap_Nav_ShowNodes@@YAXXZ 201382d0 f   g_syscalls.obj
 0001:00137300       ?trap_Nav_ShowPath@@YAXHH@Z 20138300 f   g_syscalls.obj
 0001:00137330       ?trap_PC_FreeSource@@YAHH@Z 20138330 f   g_syscalls.obj
 0001:00137360       ?trap_PC_LoadSource@@YAHPBD@Z 20138360 f   g_syscalls.obj
 0001:00137390       ?trap_PC_ReadToken@@YAHHPAUpc_token_s@@@Z 20138390 f   g_syscalls.obj
 0001:001373c0       ?trap_PC_SourceFileAndLine@@YAHHPADPAH@Z 201383c0 f   g_syscalls.obj
 0001:00137400       ?trap_PointContents@@YAHQBMH@Z 20138400 f   g_syscalls.obj
 0001:00137430       ?trap_PrecisionTimer_End@@YAHPAX@Z 20138430 f   g_syscalls.obj
 0001:00137460       ?trap_PrecisionTimer_Start@@YAXPAPAX@Z 20138460 f   g_syscalls.obj
 0001:00137490       ?trap_Printf@@YAXPBD@Z     20138490 f   g_syscalls.obj
 0001:001374c0       ?trap_RMG_Init@@YAXH@Z     201384c0 f   g_syscalls.obj
 0001:001374f0       ?trap_ROFF_Cache@@YAHPAD@Z 201384f0 f   g_syscalls.obj
 0001:00137520       ?trap_ROFF_Clean@@YAHXZ    20138520 f   g_syscalls.obj
 0001:00137550       ?trap_ROFF_Play@@YAHHHH@Z  20138550 f   g_syscalls.obj
 0001:00137580       ?trap_ROFF_Purge_Ent@@YAHH@Z 20138580 f   g_syscalls.obj
 0001:001375b0       ?trap_ROFF_UpdateEntities@@YAXXZ 201385b0 f   g_syscalls.obj
 0001:001375e0       ?trap_R_RegisterSkin@@YAHPBD@Z 201385e0 f   g_syscalls.obj
 0001:00137610       ?trap_RealTime@@YAHPAUqtime_s@@@Z 20138610 f   g_syscalls.obj
 0001:00137640       ?trap_SP_GetStringTextString@@YAHPBDPADH@Z 20138640 f   g_syscalls.obj
 0001:00137670       ?trap_SV_RegisterSharedMemory@@YAXPAD@Z 20138670 f   g_syscalls.obj
 0001:001376a0       ?trap_SendConsoleCommand@@YAXHPBD@Z 201386a0 f   g_syscalls.obj
 0001:001376d0       ?trap_SendServerCommand@@YAXHPBD@Z 201386d0 f   g_syscalls.obj
 0001:00137890       ?trap_SetActiveSubBSP@@YAXH@Z 20138890 f   g_syscalls.obj
 0001:001378c0       ?trap_SetBrushModel@@YAXPAUgentity_s@@PBD@Z 201388c0 f   g_syscalls.obj
 0001:001379d0       ?trap_SetConfigstring@@YAXHPBD@Z 201389d0 f   g_syscalls.obj
 0001:00137a00       ?trap_SetServerCull@@YAXM@Z 20138a00 f   g_syscalls.obj
 0001:00137a40       ?trap_SetUserinfo@@YAXHPBD@Z 20138a40 f   g_syscalls.obj
 0001:00137a70       ?trap_SiegePersGet@@YAXPAUsiegePers_s@@@Z 20138a70 f   g_syscalls.obj
 0001:00137aa0       ?trap_SiegePersSet@@YAXPAUsiegePers_s@@@Z 20138aa0 f   g_syscalls.obj
 0001:00137ad0       ?trap_SnapVector@@YAXPAM@Z 20138ad0 f   g_syscalls.obj
 0001:00137b00       ?trap_StringContains@@YAHPAD0H@Z 20138b00 f   g_syscalls.obj
 0001:00137b40       ?trap_Trace@@YAXPAUtrace_t@@QBM111HH@Z 20138b40 f   g_syscalls.obj
 0001:00137b90       ?trap_TraceCapsule@@YAXPAUtrace_t@@QBM111HH@Z 20138b90 f   g_syscalls.obj
 0001:00137be0       ?trap_TrueFree@@YAXPAPAX@Z 20138be0 f   g_syscalls.obj
 0001:00137c10       ?trap_TrueMalloc@@YAXPAPAXH@Z 20138c10 f   g_syscalls.obj
 0001:00137c40       ?trap_UnifyWhiteSpaces@@YAXPAD@Z 20138c40 f   g_syscalls.obj
 0001:00137c70       ?trap_UnlinkEntity@@YAXPAUgentity_s@@@Z 20138c70 f   g_syscalls.obj
 0001:00137cb0       _dllEntry                  20138cb0 f   g_syscalls.obj
 0001:00137cd0       ?G_SetActiveState@@YAXPADH@Z 20138cd0 f   g_target.obj
 0001:00137d60       ?GetPasswordByIndex@@YAPADPBD@Z 20138d60 f   g_target.obj
 0001:00137e20       ?SP_target_activate@@YAXPAUgentity_s@@@Z 20138e20 f   g_target.obj
 0001:00137e60       ?SP_target_counter@@YAXPAUgentity_s@@@Z 20138e60 f   g_target.obj
 0001:00137f00       ?SP_target_credits@@YAXPAUgentity_s@@@Z 20138f00 f   g_target.obj
 0001:00137f40       ?SP_target_deactivate@@YAXPAUgentity_s@@@Z 20138f40 f   g_target.obj
 0001:00137f80       ?SP_target_delay@@YAXPAUgentity_s@@@Z 20138f80 f   g_target.obj
 0001:00138030       ?SP_target_give@@YAXPAUgentity_s@@@Z 20139030 f   g_target.obj
 0001:00138060       ?SP_target_kill@@YAXPAUgentity_s@@@Z 20139060 f   g_target.obj
 0001:00138090       ?SP_target_laser@@YAXPAUgentity_s@@@Z 20139090 f   g_target.obj
 0001:001380d0       ?SP_target_level_change@@YAXPAUgentity_s@@@Z 201390d0 f   g_target.obj
 0001:001381d0       ?SP_target_location@@YAXPAUgentity_s@@@Z 201391d0 f   g_target.obj
 0001:00138230       ?SP_target_play_music@@YAXPAUgentity_s@@@Z 20139230 f   g_target.obj
 0001:001382d0       ?SP_target_position@@YAXPAUgentity_s@@@Z 201392d0 f   g_target.obj
 0001:00138300       ?SP_target_powerup@@YAXPAUgentity_s@@@Z 20139300 f   g_target.obj
 0001:001383c0       ?SP_target_print@@YAXPAUgentity_s@@@Z 201393c0 f   g_target.obj
 0001:001384b0       ?SP_target_random@@YAXPAUgentity_s@@@Z 201394b0 f   g_target.obj
 0001:001384e0       ?SP_target_relay@@YAXPAUgentity_s@@@Z 201394e0 f   g_target.obj
 0001:00138540       ?SP_target_remove_powerups@@YAXPAUgentity_s@@@Z 20139540 f   g_target.obj
 0001:00138570       ?SP_target_score@@YAXPAUgentity_s@@@Z 20139570 f   g_target.obj
 0001:001385c0       ?SP_target_scriptrunner@@YAXPAUgentity_s@@@Z 201395c0 f   g_target.obj
 0001:00138710       ?SP_target_speaker@@YAXPAUgentity_s@@@Z 20139710 f   g_target.obj
 0001:00138a80       ?SP_target_teleporter@@YAXPAUgentity_s@@@Z 20139a80 f   g_target.obj
 0001:00138ab0       ?Send_Target_Print@@YAXPAUgentity_s@@H@Z 20139ab0 f   g_target.obj
 0001:00138f80       ?Think_Target_Delay@@YAXPAUgentity_s@@@Z 20139f80 f   g_target.obj
 0001:001390b0       ?Think_Target_Print@@YAXPAUgentity_s@@@Z 2013a0b0 f   g_target.obj
 0001:001390e0       ?Use_Target_Credits@@YAXPAUgentity_s@@00@Z 2013a0e0 f   g_target.obj
 0001:001393e0       ?Use_Target_Delay@@YAXPAUgentity_s@@00@Z 2013a3e0 f   g_target.obj
 0001:00139650       ?Use_Target_Give@@YAXPAUgentity_s@@00@Z 2013a650 f   g_target.obj
 0001:00139740       ?Use_Target_Print@@YAXPAUgentity_s@@00@Z 2013a740 f   g_target.obj
 0001:001397c0       ?Use_Target_Print_Go@@YAXPAUgentity_s@@@Z 2013a7c0 f   g_target.obj
 0001:001399b0       ?Use_Target_Score@@YAXPAUgentity_s@@00@Z 2013a9b0 f   g_target.obj
 0001:00139a50       ?Use_Target_Speaker@@YAXPAUgentity_s@@00@Z 2013aa50 f   g_target.obj
 0001:00139b90       ?Use_target_powerup@@YAXPAUgentity_s@@00@Z 2013ab90 f   g_target.obj
 0001:00139c50       ?Use_target_remove_powerups@@YAXPAUgentity_s@@00@Z 2013ac50 f   g_target.obj
 0001:00139d50       ?scriptrunner_run@@YAXPAUgentity_s@@@Z 2013ad50 f   g_target.obj
 0001:0013a060       ?target_activate_use@@YAXPAUgentity_s@@00@Z 2013b060 f   g_target.obj
 0001:0013a170       ?target_counter_use@@YAXPAUgentity_s@@00@Z 2013b170 f   g_target.obj
 0001:0013a320       ?target_deactivate_use@@YAXPAUgentity_s@@00@Z 2013b320 f   g_target.obj
 0001:0013a430       ?target_kill_use@@YAXPAUgentity_s@@00@Z 2013b430 f   g_target.obj
 0001:0013a480       ?target_laser_off@@YAXPAUgentity_s@@@Z 2013b480 f   g_target.obj
 0001:0013a4c0       ?target_laser_on@@YAXPAUgentity_s@@@Z 2013b4c0 f   g_target.obj
 0001:0013a510       ?target_laser_start@@YAXPAUgentity_s@@@Z 2013b510 f   g_target.obj
 0001:0013a650       ?target_laser_think@@YAXPAUgentity_s@@@Z 2013b650 f   g_target.obj
 0001:0013abd0       ?target_laser_use@@YAXPAUgentity_s@@00@Z 2013bbd0 f   g_target.obj
 0001:0013ac30       ?target_level_change_use@@YAXPAUgentity_s@@00@Z 2013bc30 f   g_target.obj
 0001:0013adb0       ?target_play_music_use@@YAXPAUgentity_s@@00@Z 2013bdb0 f   g_target.obj
 0001:0013adf0       ?target_random_use@@YAXPAUgentity_s@@00@Z 2013bdf0 f   g_target.obj
 0001:0013af90       ?target_relay_use@@YAXPAUgentity_s@@00@Z 2013bf90 f   g_target.obj
 0001:0013b210       ?target_scriptrunner_use@@YAXPAUgentity_s@@00@Z 2013c210 f   g_target.obj
 0001:0013b2b0       ?target_speaker_allowlogical@@YAHXZ 2013c2b0 f   g_target.obj
 0001:0013b300       ?target_teleporter_use@@YAXPAUgentity_s@@00@Z 2013c300 f   g_target.obj
 0001:0013b430       ?AddTeamScore@@YAXQAMHH@Z  2013c430 f   g_team.obj
 0001:0013b600       ?CheckTeamStatus@@YAXXZ    2013c600 f   g_team.obj
 0001:0013b750       ?OnSameTeam@@YAHPAUgentity_s@@0@Z 2013c750 f   g_team.obj
 0001:0013ba30       ?OtherTeam@@YAHH@Z         2013ca30 f   g_team.obj
 0001:0013ba70       ?OtherTeamName@@YAPBDH@Z   2013ca70 f   g_team.obj
 0001:0013bac0       ?Pickup_Team@@YAHPAUgentity_s@@0@Z 2013cac0 f   g_team.obj
 0001:0013bbc0       ?PrintCTFMessage@@YAXHHH@Z 2013cbc0 f   g_team.obj
 0001:0013bc90       ?SP_team_CTF_blueplayer@@YAXPAUgentity_s@@@Z 2013cc90 f   g_team.obj
 0001:0013bcb0       ?SP_team_CTF_bluespawn@@YAXPAUgentity_s@@@Z 2013ccb0 f   g_team.obj
 0001:0013bcd0       ?SP_team_CTF_redplayer@@YAXPAUgentity_s@@@Z 2013ccd0 f   g_team.obj
 0001:0013bcf0       ?SP_team_CTF_redspawn@@YAXPAUgentity_s@@@Z 2013ccf0 f   g_team.obj
 0001:0013bd10       ?SelectCTFSpawnPoint@@YAPAUgentity_s@@PAU1@QAM1@Z 2013cd10 f   g_team.obj
 0001:0013bea0       ?SelectRandomTeamSpawnPoint@@YAPAUgentity_s@@HHH@Z 2013cea0 f   g_team.obj
 0001:0013c1f0       ?SelectSiegeSpawnPoint@@YAPAUgentity_s@@PAU1@QAM1@Z 2013d1f0 f   g_team.obj
 0001:0013c3a0       ?TeamColorString@@YAPBDH@Z 2013d3a0 f   g_team.obj
 0001:0013c3f0       ?TeamName@@YAPBDH@Z        2013d3f0 f   g_team.obj
 0001:0013c440       ?Team_CaptureFlagSound@@YAXPAUgentity_s@@H@Z 2013d440 f   g_team.obj
 0001:0013c4d0       ?Team_CheckDroppedItem@@YAXPAUgentity_s@@@Z 2013d4d0 f   g_team.obj
 0001:0013c550       ?Team_CheckHurtCarrier@@YAXPAUgentity_s@@0@Z 2013d550 f   g_team.obj
 0001:0013c680       ?Team_DroppedFlagThink@@YAXPAUgentity_s@@@Z 2013d680 f   g_team.obj
 0001:0013c720       ?Team_ForceGesture@@YAXH@Z 2013d720 f   g_team.obj
 0001:0013c7d0       ?Team_FragBonuses@@YAXPAUgentity_s@@00@Z 2013d7d0 f   g_team.obj
 0001:0013d540       ?Team_FreeEntity@@YAXPAUgentity_s@@@Z 2013e540 f   g_team.obj
 0001:0013d5c0       ?Team_GetLocation@@YAPAUgentity_s@@PAU1@@Z 2013e5c0 f   g_team.obj
 0001:0013d810       ?Team_GetLocationMsg@@YAHPAUgentity_s@@PADH@Z 2013e810 f   g_team.obj
 0001:0013d900       ?Team_InitGame@@YAXXZ      2013e900 f   g_team.obj
 0001:0013d9c0       ?Team_ResetFlag@@YAPAUgentity_s@@H@Z 2013e9c0 f   g_team.obj
 0001:0013dab0       ?Team_ResetFlags@@YAXXZ    2013eab0 f   g_team.obj
 0001:0013db10       ?Team_ReturnFlag@@YAXH@Z   2013eb10 f   g_team.obj
 0001:0013db70       ?Team_ReturnFlagSound@@YAXPAUgentity_s@@H@Z 2013eb70 f   g_team.obj
 0001:0013dc00       ?Team_SetFlagStatus@@YAXHH@Z 2013ec00 f   g_team.obj
 0001:0013dd40       ?Team_TakeFlagSound@@YAXPAUgentity_s@@H@Z 2013ed40 f   g_team.obj
 0001:0013de50       ?Team_TouchEnemyFlag@@YAHPAUgentity_s@@0H@Z 2013ee50 f   g_team.obj
 0001:0013df30       ?Team_TouchOurFlag@@YAHPAUgentity_s@@0H@Z 2013ef30 f   g_team.obj
 0001:0013e430       ?TeamplayInfoMessage@@YAXPAUgentity_s@@@Z 2013f430 f   g_team.obj
 0001:0013e910       ?TIMER_Clear2@@YAXPAUgentity_s@@@Z 2013f910 f   g_timer.obj
 0001:0013e9c0       ?TIMER_Clear@@YAXXZ        2013f9c0 f   g_timer.obj
 0001:0013ea80       ?TIMER_Done2@@YAHPAUgentity_s@@PBDH@Z 2013fa80 f   g_timer.obj
 0001:0013eb20       ?TIMER_Done@@YAHPAUgentity_s@@PBD@Z 2013fb20 f   g_timer.obj
 0001:0013eb90       ?TIMER_Exists@@YAHPAUgentity_s@@PBD@Z 2013fb90 f   g_timer.obj
 0001:0013ebe0       ?TIMER_Get@@YAHPAUgentity_s@@PBD@Z 2013fbe0 f   g_timer.obj
 0001:0013ec30       ?TIMER_GetExisting@@YAPAUgtimer_s@@HPBD@Z 2013fc30 f   g_timer.obj
 0001:0013ec90       ?TIMER_GetNew@@YAPAUgtimer_s@@HPBD@Z 2013fc90 f   g_timer.obj
 0001:0013ed40       ?TIMER_Remove@@YAXPAUgentity_s@@PBD@Z 2013fd40 f   g_timer.obj
 0001:0013ed90       ?TIMER_RemoveHelper@@YAXHPAUgtimer_s@@@Z 2013fd90 f   g_timer.obj
 0001:0013ee40       ?TIMER_Set@@YAXPAUgentity_s@@PBDH@Z 2013fe40 f   g_timer.obj
 0001:0013eea0       ?TIMER_Start@@YAHPAUgentity_s@@PBDH@Z 2013fea0 f   g_timer.obj
 0001:0013ef00       ?AimAtTarget@@YAXPAUgentity_s@@@Z 2013ff00 f   g_trigger.obj
 0001:0013fa00       ?Do_Strike@@YAXPAUgentity_s@@@Z 20140a00 f   g_trigger.obj
 0001:0013fd70       ?G_NameInTriggerClassList@@YAHPAD0@Z 20140d70 f   g_trigger.obj
 0001:0013fee0       ?InitTrigger@@YAXPAUgentity_s@@@Z 20140ee0 f   g_trigger.obj
 0001:00140030       ?SP_func_timer@@YAXPAUgentity_s@@@Z 20141030 f   g_trigger.obj
 0001:00140160       ?SP_target_push@@YAXPAUgentity_s@@@Z 20141160 f   g_trigger.obj
 0001:00140400       ?SP_trigger_always@@YAXPAUgentity_s@@@Z 20141400 f   g_trigger.obj
 0001:00140440       ?SP_trigger_asteroid_field@@YAXPAUgentity_s@@@Z 20141440 f   g_trigger.obj
 0001:00140510       ?SP_trigger_hurt@@YAXPAUgentity_s@@@Z 20141510 f   g_trigger.obj
 0001:00140620       ?SP_trigger_hyperspace@@YAXPAUgentity_s@@@Z 20141620 f   g_trigger.obj
 0001:00140740       ?SP_trigger_lightningstrike@@YAXPAUgentity_s@@@Z 20141740 f   g_trigger.obj
 0001:001408e0       ?SP_trigger_multiple@@YAXPAUgentity_s@@@Z 201418e0 f   g_trigger.obj
 0001:00140c10       ?SP_trigger_once@@YAXPAUgentity_s@@@Z 20141c10 f   g_trigger.obj
 0001:00140dd0       ?SP_trigger_push@@YAXPAUgentity_s@@@Z 20141dd0 f   g_trigger.obj
 0001:00140eb0       ?SP_trigger_shipboundary@@YAXPAUgentity_s@@@Z 20141eb0 f   g_trigger.obj
 0001:00140fb0       ?SP_trigger_space@@YAXPAUgentity_s@@@Z 20141fb0 f   g_trigger.obj
 0001:00141030       ?SP_trigger_teleport@@YAXPAUgentity_s@@@Z 20142030 f   g_trigger.obj
 0001:001410e0       ?SP_trigger_visible@@YAXPAUgentity_s@@@Z 201420e0 f   g_trigger.obj
 0001:001411a0       ?Think_Strike@@YAXPAUgentity_s@@@Z 201421a0 f   g_trigger.obj
 0001:00141230       ?Touch_Multi@@YAXPAUgentity_s@@0PAUtrace_t@@@Z 20142230 f   g_trigger.obj
 0001:00141b70       ?Use_Multi@@YAXPAUgentity_s@@00@Z 20142b70 f   g_trigger.obj
 0001:00141ba0       ?Use_Strike@@YAXPAUgentity_s@@00@Z 20142ba0 f   g_trigger.obj
 0001:00141c10       ?Use_target_push@@YAXPAUgentity_s@@00@Z 20142c10 f   g_trigger.obj
 0001:00141f60       ?asteroid_count_num_asteroids@@YAHPAUgentity_s@@@Z 20142f60 f   g_trigger.obj
 0001:00141fe0       ?asteroid_field_think@@YAXPAUgentity_s@@@Z 20142fe0 f   g_trigger.obj
 0001:001426c0       ?asteroid_pick_random_asteroid@@YAPAUgentity_s@@PAU1@@Z 201436c0 f   g_trigger.obj
 0001:001427c0       ?func_timer_think@@YAXPAUgentity_s@@@Z 201437c0 f   g_trigger.obj
 0001:00142890       ?func_timer_use@@YAXPAUgentity_s@@00@Z 20143890 f   g_trigger.obj
 0001:00142900       ?hurt_touch@@YAXPAUgentity_s@@0PAUtrace_t@@@Z 20143900 f   g_trigger.obj
 0001:00142e90       ?hurt_use@@YAXPAUgentity_s@@00@Z 20143e90 f   g_trigger.obj
 0001:00142f50       ?hyperspace_touch@@YAXPAUgentity_s@@0PAUtrace_t@@@Z 20143f50 f   g_trigger.obj
 0001:00143940       ?multi_trigger@@YAXPAUgentity_s@@0@Z 20144940 f   g_trigger.obj
 0001:001440f0       ?multi_trigger_run@@YAXPAUgentity_s@@@Z 201450f0 f   g_trigger.obj
 0001:00144510       ?multi_wait@@YAXPAUgentity_s@@@Z 20145510 f   g_trigger.obj
 0001:00144540       ?shipboundary_think@@YAXPAUgentity_s@@@Z 20145540 f   g_trigger.obj
 0001:00144700       ?shipboundary_touch@@YAXPAUgentity_s@@0PAUtrace_t@@@Z 20145700 f   g_trigger.obj
 0001:001448d0       ?space_touch@@YAXPAUgentity_s@@0PAUtrace_t@@@Z 201458d0 f   g_trigger.obj
 0001:00144ae0       ?trigger_always_think@@YAXPAUgentity_s@@@Z 20145ae0 f   g_trigger.obj
 0001:00144b90       ?trigger_cleared_fire@@YAXPAUgentity_s@@@Z 20145b90 f   g_trigger.obj
 0001:00144cb0       ?trigger_multiple_allowlogical@@YAHXZ 20145cb0 f   g_trigger.obj
 0001:00144d10       ?trigger_push_touch@@YAXPAUgentity_s@@0PAUtrace_t@@@Z 20145d10 f   g_trigger.obj
 0001:001454e0       ?trigger_teleporter_touch@@YAXPAUgentity_s@@0PAUtrace_t@@@Z 201464e0 f   g_trigger.obj
 0001:00145620       ?trigger_visible_think@@YAXPAUgentity_s@@@Z 20146620 f   g_trigger.obj
 0001:001458c0       ?trigger_visible_use@@YAXPAUgentity_s@@00@Z 201468c0 f   g_trigger.obj
 0001:00145910       ?SP_misc_turret@@YAXPAUgentity_s@@@Z 20146910 f   g_turret.obj
 0001:00145c30       ?TurretBasePain@@YAXPAUgentity_s@@0H@Z 20146c30 f   g_turret.obj
 0001:00145cc0       ?TurretPain@@YAXPAUgentity_s@@0H@Z 20146cc0 f   g_turret.obj
 0001:00145e90       ?auto_turret_die@@YAXPAUgentity_s@@00HH@Z 20146e90 f   g_turret.obj
 0001:00146290       ?bottom_die@@YAXPAUgentity_s@@00HH@Z 20147290 f   g_turret.obj
 0001:00146f10       ?turret_base_spawn_top@@YAHPAUgentity_s@@@Z 20147f10 f   g_turret.obj
 0001:001476b0       ?turret_base_think@@YAXPAUgentity_s@@@Z 201486b0 f   g_turret.obj
 0001:00147c80       ?turret_base_use@@YAXPAUgentity_s@@00@Z 20148c80 f   g_turret.obj
 0001:00147cf0       ?turret_component_free@@YAXPAUgentity_s@@@Z 20148cf0 f   g_turret.obj
 0001:00148920       ?turret_head_think@@YAXPAUgentity_s@@@Z 20149920 f   g_turret.obj
 0001:001492a0       ?G2Tur_SetBoneAngles@@YAXPAUgentity_s@@PADQAM@Z 2014a2a0 f   g_turret_G2.obj
 0001:00149520       ?SP_misc_turretG2@@YAXPAUgentity_s@@@Z 2014a520 f   g_turret_G2.obj
 0001:001498b0       ?TurboLaser_SetBoneAnim@@YAXPAUgentity_s@@HH@Z 2014a8b0 f   g_turret_G2.obj
 0001:001499e0       ?TurretG2Pain@@YAXPAUgentity_s@@0H@Z 2014a9e0 f   g_turret_G2.obj
 0001:00149b50       ?TurretG2_CanTarget@@YAHPAUgentity_s@@0@Z 2014ab50 f   g_turret_G2.obj
 0001:00149d50       ?finish_spawning_turretG2@@YAXPAUgentity_s@@@Z 2014ad50 f   g_turret_G2.obj
 0001:0014a960       ?isArmed@@YAHPAUgentity_s@@@Z 2014b960 f   g_turret_G2.obj
 0001:0014b8d0       ?turretG2_base_think@@YAXPAUgentity_s@@@Z 2014c8d0 f   g_turret_G2.obj
 0001:0014bfb0       ?turretG2_base_use@@YAXPAUgentity_s@@00@Z 2014cfb0 f   g_turret_G2.obj
 0001:0014c120       ?turretG2_die@@YAXPAUgentity_s@@00HH@Z 2014d120 f   g_turret_G2.obj
 0001:0014d850       ?turretG2_head_think@@YAXPAUgentity_s@@@Z 2014e850 f   g_turret_G2.obj
 0001:0014db30       ?turretG2_respawn@@YAXPAUgentity_s@@@Z 2014eb30 f   g_turret_G2.obj
 0001:0014dc60       ?turretG2_set_models@@YAXPAUgentity_s@@H@Z 2014ec60 f   g_turret_G2.obj
 0001:0014df80       ?AddRemap@@YAHPBD0M@Z      2014ef80 f   g_utils.obj
 0001:0014e0c0       ?BuildShaderStateConfig@@YAPBDXZ 2014f0c0 f   g_utils.obj
 0001:0014e330       ?DebugLine@@YAHQAM0H@Z     2014f330 f   g_utils.obj
 0001:0014ed40       ?G_AddEvent@@YAXPAUgentity_s@@HH@Z 2014fd40 f   g_utils.obj
 0001:0014ee70       ?G_AddPredictableEvent@@YAXPAUgentity_s@@HH@Z 2014fe70 f   g_utils.obj
 0001:0014eec0       ?G_AllocateVehicleObject@@YAXPAPAUVehicle_s@@@Z 2014fec0 f   g_utils.obj
 0001:0014efa0       ?G_BSPIndex@@YAHPBD@Z      2014ffa0 f   g_utils.obj
 0001:0014efd0       ?G_BoneIndex@@YAHPBD@Z     2014ffd0 f   g_utils.obj
 0001:0014f000       ?G_BoxInBounds@@YAHQAM0000@Z 20150000 f   g_utils.obj
 0001:0014f2b0       ?G_CanUseDispOn@@YAHPAUgentity_s@@H@Z 201502b0 f   g_utils.obj
 0001:0014f420       ?G_CheckInSolid@@YAHPAUgentity_s@@H@Z 20150420 f   g_utils.obj
 0001:0014f6f0       ?G_CleanAllFakeClients@@YAXXZ 201506f0 f   g_utils.obj
 0001:0014f780       ?G_ClearTrace@@YAHQAM000HH@Z 20150780 f   g_utils.obj
 0001:0014f810       ?G_ClientSound@@YAXPAUgentity_s@@HH@Z 20150810 f   g_utils.obj
 0001:0014f8a0       ?G_CreateFakeClient@@YAXHPAPAUgclient_s@@@Z 201508a0 f   g_utils.obj
 0001:0014f8d0       ?G_EffectIndex@@YAHPBD@Z   201508d0 f   g_utils.obj
 0001:0014f900       ?G_EntitiesFree@@YAHXZ     20150900 f   g_utils.obj
 0001:0014f980       ?G_EntitySound@@YAXPAUgentity_s@@HH@Z 20150980 f   g_utils.obj
 0001:0014f9f0       ?G_ExpandPointToBBox@@YAHQAMQBM1HH@Z 201509f0 f   g_utils.obj
 0001:0014fda0       ?G_FindConfigstringIndex@@YAHPBDHHH@Z 20150da0 f   g_utils.obj
 0001:0014fec0       ?G_FreeEntity@@YAXPAUgentity_s@@@Z 20150ec0 f   g_utils.obj
 0001:001503e0       ?G_FreeFakeClient@@YAXPAPAUgclient_s@@@Z 201513e0 f   g_utils.obj
 0001:00150410       ?G_FreeVehicleObject@@YAXPAUVehicle_s@@@Z 20151410 f   g_utils.obj
 0001:00150480       ?G_GlobalSound@@YAXPAUgentity_s@@HH@Z 20151480 f   g_utils.obj
 0001:00150500       ?G_IconIndex@@YAHPBD@Z     20151500 f   g_utils.obj
 0001:00150570       ?G_KillBox@@YAXPAUgentity_s@@@Z 20151570 f   g_utils.obj
 0001:00150870       ?G_KillG2Queue@@YAXH@Z     20151870 f   g_utils.obj
 0001:001508f0       ?G_ModelIndex@@YAHPBD@Z    201518f0 f   g_utils.obj
 0001:00150aa0       ?G_MuteSound@@YAXHH@Z      20151aa0 f   g_utils.obj
 0001:00150b50       ?G_PickTarget@@YAPAUgentity_s@@PAD@Z 20151b50 f   g_utils.obj
 0001:00150c40       ?G_PlayEffect@@YAPAUgentity_s@@HQAM0@Z 20151c40 f   g_utils.obj
 0001:00150d60       ?G_PlayEffectID@@YAPAUgentity_s@@HQAM0@Z 20151d60 f   g_utils.obj
 0001:00150f10       ?G_PlayerHasCustomSkeleton@@YAHPAUgentity_s@@@Z 20151f10 f   g_utils.obj
 0001:00150f30       ?G_PointInBounds@@YAHQAM00@Z 20151f30 f   g_utils.obj
 0001:00150fb0       ?G_ROFF_NotetrackCallback@@YAXPAUgentity_s@@PBD@Z 20151fb0 f   g_utils.obj
 0001:00151330       ?G_ReadMD3MinsMaxes@@YAEHQAM0@Z 20152330 f   g_utils.obj
 0001:00151470       ?G_ScaleNetHealth@@YAXPAUgentity_s@@@Z 20152470 f   g_utils.obj
 0001:00151570       ?G_ScreenShake@@YAPAUgentity_s@@QAMPAU1@MHH@Z 20152570 f   g_utils.obj
 0001:00151680       ?G_SendG2KillQueue@@YAXXZ  20152680 f   g_utils.obj
 0001:001517c0       ?G_SetAngles@@YAXPAUgentity_s@@QAM@Z 201527c0 f   g_utils.obj
 0001:00151920       ?G_SetAnim@@YAXPAUgentity_s@@HHHH@Z 20152920 f   g_utils.obj
 0001:001519b0       ?G_SetMovedir@@YAXQAM0@Z   201529b0 f   g_utils.obj
 0001:00151b40       ?G_SetOrigin@@YAXPAUgentity_s@@QAM@Z 20152b40 f   g_utils.obj
 0001:00151cc0       ?G_Sound@@YAXPAUgentity_s@@HH@Z 20152cc0 f   g_utils.obj
 0001:00151ee0       ?G_SoundAtLoc@@YAXQAMHH@Z  20152ee0 f   g_utils.obj
 0001:00151f40       ?G_SoundIndex@@YAHPBD@Z    20152f40 f   g_utils.obj
 0001:00151f80       ?G_SoundOnEnt@@YAXPAUgentity_s@@HPBD@Z 20152f80 f   g_utils.obj
 0001:00152000       ?G_SoundSetIndex@@YAHPBD@Z 20153000 f   g_utils.obj
 0001:00152030       ?G_SoundTempEntity@@YAPAUgentity_s@@QAMHH@Z 20153030 f   g_utils.obj
 0001:00152160       ?G_Spawn@@YAPAUgentity_s@@XZ 20153160 f   g_utils.obj
 0001:00152370       ?G_SpeechEvent@@YAXPAUgentity_s@@H@Z 20153370 f   g_utils.obj
 0001:001523a0       ?G_TeamCommand@@YAXHPAD@Z  201533a0 f   g_utils.obj
 0001:00152440       ?G_TempEntity@@YAPAUgentity_s@@QAMH@Z 20153440 f   g_utils.obj
 0001:00152560       ?G_Throw@@YAXPAUgentity_s@@QAMM@Z 20153560 f   g_utils.obj
 0001:00152b20       ?G_UseDispenserOn@@YAXPAUgentity_s@@H0@Z 20153b20 f   g_utils.obj
 0001:00152df0       ?G_UseTargets2@@YAXPAUgentity_s@@0PBD@Z 20153df0 f   g_utils.obj
 0001:00152f50       ?G_UseTargets@@YAXPAUgentity_s@@0@Z 20153f50 f   g_utils.obj
 0001:00152f90       ?GetAnglesForDirection@@YAXQBM0QAM@Z 20153f90 f   g_utils.obj
 0001:00153090       ?GlobalUse@@YAXPAUgentity_s@@00@Z 20154090 f   g_utils.obj
 0001:00153120       ?ShortestLineSegBewteen2LineSegs@@YAMQAM00000@Z 20154120 f   g_utils.obj
 0001:00154340       ?TryHeal@@YAHPAUgentity_s@@0@Z 20155340 f   g_utils.obj
 0001:00154660       ?TryUse@@YAXPAUgentity_s@@@Z 20155660 f   g_utils.obj
 0001:001556e0       ?ValidUseTarget@@YAHPAUgentity_s@@@Z 201566e0 f   g_utils.obj
 0001:001558a0       ?listRemaps@@YAXPAUgentity_s@@H@Z 201568a0 f   g_utils.obj
 0001:001559a0       ?removeRemap@@YAHH@Z       201569a0 f   g_utils.obj
 0001:00155a30       ?tv@@YAPAMMMM@Z            20156a30 f   g_utils.obj
 0001:00155ac0       ?vtos2@@YAPADQBM@Z         20156ac0 f   g_utils.obj
 0001:00155b70       ?vtos@@YAPADQBM@Z          20156b70 f   g_utils.obj
 0001:00155c10       ?vtosf@@YAPADQBM@Z         20156c10 f   g_utils.obj
 0001:00155cc0       ?AddPassenger@@YAHPAUVehicle_s@@@Z 20156cc0 f i g_vehicles.obj
 0001:00155ce0       ?Animate@@YAXPAUVehicle_s@@@Z 20156ce0 f   g_vehicles.obj
 0001:00156830       ?Board@@YAHPAUVehicle_s@@PAUbgEntity_s@@@Z 20157830 f   g_vehicles.obj
 0001:00157660       ?Eject@@YAHPAUVehicle_s@@PAUbgEntity_s@@H@Z 20158660 f   g_vehicles.obj
 0001:00158050       ?EjectAll@@YAHPAUVehicle_s@@@Z 20159050 f   g_vehicles.obj
 0001:00158310       ?G_AttachToVehicle@@YAXPAUgentity_s@@PAPAUusercmd_s@@@Z 20159310 f   g_vehicles.obj
 0001:00158480       ?G_CanJumpToEnemyVeh@@YAMPAUVehicle_s@@PBUusercmd_s@@@Z 20159480 f   g_vehicles.obj
 0001:001584a0       ?G_EjectDroidUnit@@YAXPAUVehicle_s@@H@Z 201594a0 f   g_vehicles.obj
 0001:00158590       ?G_FlyVehicleDestroySurface@@YAHPAUgentity_s@@H@Z 20159590 f   g_vehicles.obj
 0001:00158880       ?G_FlyVehicleImpactDir@@YAHPAUgentity_s@@PAUtrace_t@@@Z 20159880 f   g_vehicles.obj
 0001:00159110       ?G_FlyVehicleSurfaceDestruction@@YAXPAUgentity_s@@PAUtrace_t@@HH@Z 2015a110 f   g_vehicles.obj
 0001:00159340       ?G_IsRidingVehicle@@YAPAUVehicle_s@@PAUgentity_s@@@Z 2015a340 f   g_vehicles.obj
 0001:001593c0       ?G_SetSharedVehicleFunctions@@YAXPAUvehicleInfo_t@@@Z 2015a3c0 f   g_vehicles.obj
 0001:00159500       ?G_SetVehDamageFlags@@YAXPAUgentity_s@@HH@Z 2015a500 f   g_vehicles.obj
 0001:001598f0       ?G_ShipSurfaceForSurfName@@YAHPBD@Z 2015a8f0 f   g_vehicles.obj
 0001:00159a60       ?G_VehUpdateShields@@YAXPAUgentity_s@@@Z 2015aa60 f   g_vehicles.obj
 0001:00159b40       ?G_VehicleDamageBoxSizing@@YAXPAUVehicle_s@@@Z 2015ab40 f   g_vehicles.obj
 0001:0015a340       ?G_VehicleSetDamageLocFlags@@YAXPAUgentity_s@@HH@Z 2015b340 f   g_vehicles.obj
 0001:0015a650       ?G_VehicleSpawn@@YAXPAUgentity_s@@@Z 2015b650 f   g_vehicles.obj
 0001:0015a820       ?G_VehicleTrace@@YAXPAUtrace_t@@QBM111HH@Z 2015b820 f   g_vehicles.obj
 0001:0015a920       ?Inhabited@@YAHPAUVehicle_s@@@Z 2015b920 f i g_vehicles.obj
 0001:0015a970       ?Initialize@@YAHPAUVehicle_s@@@Z 2015b970 f   g_vehicles.obj
 0001:0015b080       ?RegisterAssets@@YAXPAUVehicle_s@@@Z 2015c080 f   g_vehicles.obj
 0001:0015b0a0       ?SetParent@@YAXPAUVehicle_s@@PAUbgEntity_s@@@Z 2015c0a0 f i g_vehicles.obj
 0001:0015b0c0       ?SetPilot@@YAXPAUVehicle_s@@PAUbgEntity_s@@@Z 2015c0c0 f i g_vehicles.obj
 0001:0015d300       ?VEH_TryEject@@YAHPAUVehicle_s@@PAUgentity_s@@1HQAM@Z 2015e300 f   g_vehicles.obj
 0001:0015dbd0       ?ValidateBoard@@YAHPAUVehicle_s@@PAUbgEntity_s@@@Z 2015ebd0 f   g_vehicles.obj
 0001:0015e020       ?Vehicle_SetAnim@@YAXPAUgentity_s@@HHHH@Z 2015f020 f   g_vehicles.obj
 0001:0015e0c0       ?VEH_TurretAim@@YAHPAUVehicle_s@@PAUgentity_s@@1PAUturretStats_t@@PAUvehWeaponInfo_t@@HHQAM@Z 2015f0c0 f   g_vehicleTurret.obj
 0001:0015e840       ?VEH_TurretAnglesToEnemy@@YAXPAUVehicle_s@@HMPAUgentity_s@@HQAM@Z 2015f840 f   g_vehicleTurret.obj
 0001:0015ec80       ?VEH_TurretCheckFire@@YAXPAUVehicle_s@@PAUgentity_s@@PAUturretStats_t@@PAUvehWeaponInfo_t@@HH@Z 2015fc80 f   g_vehicleTurret.obj
 0001:0015f4f0       ?VEH_TurretObeyPassengerControl@@YAXPAUVehicle_s@@PAUgentity_s@@H@Z 201604f0 f   g_vehicleTurret.obj
 0001:0015f6b0       ?VEH_TurretThink@@YAXPAUVehicle_s@@PAUgentity_s@@H@Z 201606b0 f   g_vehicleTurret.obj
 0001:00160220       ?BlowDetpacks@@YAXPAUgentity_s@@@Z 20161220 f   g_weapon.obj
 0001:001603c0       ?CalcMuzzlePoint@@YAXPAUgentity_s@@QAM111@Z 201613c0 f   g_weapon.obj
 0001:00160870       ?CalcMuzzlePointOrigin@@YAXPAUgentity_s@@QAM1111@Z 20161870 f   g_weapon.obj
 0001:00160a20       ?CheatsOn@@YAHXZ           20161a20 f   g_weapon.obj
 0001:00160a50       ?CreateLaserTrap@@YAXPAUgentity_s@@QAM0@Z 20161a50 f   g_weapon.obj
 0001:00160f80       ?DetPackBlow@@YAXPAUgentity_s@@@Z 20161f80 f   g_weapon.obj
 0001:001611b0       ?DetPackDie@@YAXPAUgentity_s@@00HH@Z 201621b0 f   g_weapon.obj
 0001:00161210       ?DetPackPain@@YAXPAUgentity_s@@0H@Z 20162210 f   g_weapon.obj
 0001:001613d0       ?FireVehicleWeapon@@YAXPAUgentity_s@@H@Z 201623d0 f   g_weapon.obj
 0001:00162180       ?FireWeapon@@YAXPAUgentity_s@@H@Z 20163180 f   g_weapon.obj
 0001:00162910       ?G_EstimateCamPos@@YAXQAM0MMMMMH0@Z 20163910 f   g_weapon.obj
 0001:00163260       ?G_VehMuzzleFireFX@@YAXPAUgentity_s@@0H@Z 20164260 f   g_weapon.obj
 0001:00163300       ?LogAccuracyHit@@YAHPAUgentity_s@@0@Z 20164300 f   g_weapon.obj
 0001:001633c0       ?SP_emplaced_gun@@YAXPAUgentity_s@@@Z 201643c0 f   g_weapon.obj
 0001:00163c20       ?SnapVectorTowards@@YAXQAM0@Z 20164c20 f   g_weapon.obj
 0001:00163cc0       ?TrapThink@@YAXPAUgentity_s@@@Z 20164cc0 f   g_weapon.obj
 0001:00163db0       ?VectorNPos@@YAXQAM0@Z     20164db0 f   g_weapon.obj
 0001:00163f20       ?WP_CalcVehMuzzle@@YAXPAUgentity_s@@H@Z 20164f20 f   g_weapon.obj
 0001:00164170       ?WP_DropDetPack@@YAXPAUgentity_s@@H@Z 20165170 f   g_weapon.obj
 0001:001645a0       ?WP_DropThermal@@YAPAUgentity_s@@PAU1@@Z 201655a0 f   g_weapon.obj
 0001:00164600       ?WP_FireBlasterMissile@@YAXPAUgentity_s@@QAM1H@Z 20165600 f   g_weapon.obj
 0001:00164a90       ?WP_FireEmplacedMissile@@YAXPAUgentity_s@@QAM1H0@Z 20165a90 f   g_weapon.obj
 0001:00164b90       ?WP_FireGenericBlasterMissile@@YAXPAUgentity_s@@QAM1HHHH@Z 20165b90 f   g_weapon.obj
 0001:00164c50       ?WP_FireMelee@@YAXPAUgentity_s@@H@Z 20165c50 f   g_weapon.obj
 0001:00165410       ?WP_FireStunBaton@@YAXPAUgentity_s@@H@Z 20166410 f   g_weapon.obj
 0001:00165bf0       ?WP_FireThermalDetonator@@YAPAUgentity_s@@PAU1@H@Z 20166bf0 f   g_weapon.obj
 0001:00166290       ?WP_FireTurboLaserMissile@@YAXPAUgentity_s@@QAM1@Z 20167290 f   g_weapon.obj
 0001:00166420       ?WP_FireTurretMissile@@YAXPAUgentity_s@@QAM1HHHH0@Z 20167420 f   g_weapon.obj
 0001:00166500       ?WP_FireVehicleWeapon@@YAPAUgentity_s@@PAU1@QAM1PAUvehWeaponInfo_t@@HH@Z 20167500 f   g_weapon.obj
 0001:00166f00       ?WP_GetVehicleCamPos@@YAXPAUgentity_s@@0QAM@Z 20167f00 f   g_weapon.obj
 0001:001672f0       ?WP_LobFire@@YAHPAUgentity_s@@QAM111H1HHHMMMH@Z 201682f0 f   g_weapon.obj
 0001:00167d20       ?WP_PlaceLaserTrap@@YAXPAUgentity_s@@H@Z 20168d20 f   g_weapon.obj
 0001:00168200       ?WP_SpeedOfMissileForWeapon@@YAMHH@Z 20169200 f   g_weapon.obj
 0001:00168220       ?WP_TouchVehMissile@@YAXPAUgentity_s@@0PAUtrace_t@@@Z 20169220 f   g_weapon.obj
 0001:00168290       ?WP_TraceSetStart@@YAXPAUgentity_s@@QAM11@Z 20169290 f   g_weapon.obj
 0001:00168580       ?WP_VehCheckTraceFromCamPos@@YAHPAUgentity_s@@QBMQAM@Z 20169580 f   g_weapon.obj
 0001:00168c10       ?WP_VehLeadCrosshairVeh@@YAXPAUgentity_s@@QAMQBM21@Z 20169c10 f   g_weapon.obj
 0001:00168eb0       ?WP_VehWeapSetSolidToOwner@@YAXPAUgentity_s@@@Z 20169eb0 f   g_weapon.obj
 0001:00168f50       ?W_TraceSetStart@@YAXPAUgentity_s@@QAM11@Z 20169f50 f   g_weapon.obj
 0001:001692d0       ?charge_stick@@YAXPAUgentity_s@@0PAUtrace_t@@@Z 2016a2d0 f   g_weapon.obj
 0001:00169d90       ?drop_charge@@YAXPAUgentity_s@@QAM1@Z 2016ad90 f   g_weapon.obj
 0001:0016a370       ?emplaced_gun_die@@YAXPAUgentity_s@@00HH@Z 2016b370 f   g_weapon.obj
 0001:0016a3d0       ?emplaced_gun_pain@@YAXPAUgentity_s@@0H@Z 2016b3d0 f   g_weapon.obj
 0001:0016a420       ?emplaced_gun_realuse@@YAXPAUgentity_s@@00@Z 2016b420 f   g_weapon.obj
 0001:0016a450       ?emplaced_gun_update@@YAXPAUgentity_s@@@Z 2016b450 f   g_weapon.obj
 0001:0016ad00       ?emplaced_gun_use@@YAXPAUgentity_s@@0PAUtrace_t@@@Z 2016bd00 f   g_weapon.obj
 0001:0016b410       ?laserTrapDelayedExplode@@YAXPAUgentity_s@@00HH@Z 2016c410 f   g_weapon.obj
 0001:0016b4c0       ?laserTrapExplode@@YAXPAUgentity_s@@@Z 2016c4c0 f   g_weapon.obj
 0001:0016b6c0       ?laserTrapStick@@YAXPAUgentity_s@@QAM1@Z 2016c6c0 f   g_weapon.obj
 0001:0016bda0       ?laserTrapThink@@YAXPAUgentity_s@@@Z 2016cda0 f   g_weapon.obj
 0001:0016bff0       ?proxMineThink@@YAXPAUgentity_s@@@Z 2016cff0 f   g_weapon.obj
 0001:0016c3b0       ?thermalDetonatorExplode@@YAXPAUgentity_s@@@Z 2016d3b0 f   g_weapon.obj
 0001:0016c6b0       ?thermalThinkStandard@@YAXPAUgentity_s@@@Z 2016d6b0 f   g_weapon.obj
 0001:0016c720       ?touchLaserTrap@@YAXPAUgentity_s@@0PAUtrace_t@@@Z 2016d720 f   g_weapon.obj
 0001:0016c8d0       ?touch_NULL@@YAXPAUgentity_s@@0PAUtrace_t@@@Z 2016d8d0 f   g_weapon.obj
 0001:0016c8f0       ?ActivateCrashHandler@@YAXXZ 2016d8f0 f   gls_crashreport.obj
 0001:0016c920       ?DeactivateCrashHandler@@YAXXZ 2016d920 f   gls_crashreport.obj
 0001:0016e4a0       ?UpdateCvars@@YAXXZ        2016f4a0 f   gls_crashreport.obj
 0001:0016e530       ?Cmd_ChPasswd_f@@YAXPAUgentity_s@@H@Z 2016f530 f   Lmd_Accounts.obj
 0001:0016e5b0       ?Cmd_GetStats_f@@YAXPAUgentity_s@@H@Z 2016f5b0 f   Lmd_Accounts.obj
 0001:0016e5f0       ?Cmd_Credits_f@@YAXPAUgentity_s@@H@Z 2016f5f0 f   Lmd_Accounts.obj
 0001:0016eaf0       ?Cmd_Register_f@@YAXPAUgentity_s@@H@Z 2016faf0 f   Lmd_Accounts.obj
 0001:0016eba0       ?Cmd_Seccode_f@@YAXPAUgentity_s@@H@Z 2016fba0 f   Lmd_Accounts.obj
 0001:0016eeb0       ?Cmd_Login_f@@YAXPAUgentity_s@@H@Z 2016feb0 f   Lmd_Accounts.obj
 0001:0016ef80       ?Cmd_Logout_f@@YAXPAUgentity_s@@H@Z 2016ff80 f   Lmd_Accounts.obj
 0001:0016f010       ?Cmd_Worthy_f@@YAXPAUgentity_s@@H@Z 20170010 f   Lmd_Accounts.obj
 0001:0016f040       ?GetStats@@YAXPAUgentity_s@@PAUAccount_s@@@Z 20170040 f   Lmd_Accounts.obj
 0001:0016f480       ?HiScore@@YAXPAUgentity_s@@H@Z 20170480 f   Lmd_Accounts.obj
 0001:0016f880       ?IsValidName@@YAHPAD@Z     20170880 f   Lmd_Accounts.obj
 0001:0016fa50       ?IsValidPlayerName@@YAHPADPAUgentity_s@@H@Z 20170a50 f   Lmd_Accounts.obj
 0001:0016fa90       ?IsValidPlayerName@@YAHPADPAUgentity_s@@HPAPAD@Z 20170a90 f   Lmd_Accounts.obj
 0001:0016fc00       ?IsValidUsername@@YAHPADPAPAD@Z 20170c00 f   Lmd_Accounts.obj
 0001:0016fd70       ?Lmd_Accounts_Bot_Login@@YAHPAUgentity_s@@@Z 20170d70 f   Lmd_Accounts.obj
 0001:0016ff50       ?Lmd_Accounts_LogAction@@YAXPAUgentity_s@@PAUAccount_s@@PAD@Z 20170f50 f   Lmd_Accounts.obj
 0001:0016ffe0       ?Lmd_Accounts_Player_CreateSecurityCode@@YAXPAUgentity_s@@PAUAccount_s@@@Z 20170fe0 f   Lmd_Accounts.obj
 0001:001700b0       ?Lmd_Accounts_Player_Login@@YAHPAUgentity_s@@PAUAccount_s@@@Z 201710b0 f   Lmd_Accounts.obj
 0001:001704e0       ?Lmd_Accounts_Player_Logout@@YAXPAUgentity_s@@@Z 201714e0 f   Lmd_Accounts.obj
 0001:00170630       ?Lmd_Accounts_Player_Register@@YAHPAUgentity_s@@PAD1@Z 20171630 f   Lmd_Accounts.obj
 0001:00170870       ?Lmd_Accounts_Player_TryLogin@@YAHPAUgentity_s@@PAD11@Z 20171870 f   Lmd_Accounts.obj
 0001:00170ce0       ?RenamePlayer@@YAXPAUgentity_s@@PAD@Z 20171ce0 f   Lmd_Accounts.obj
 0001:00170de0       ?checkLevelUp@@YAXPAUgentity_s@@@Z 20171de0 f   Lmd_Accounts.obj
 0001:00170fd0       ?clearAccounts@@YAXXZ      20171fd0 f   Lmd_Accounts.obj
 0001:00171050       ?clearCash@@YAXXZ          20172050 f   Lmd_Accounts.obj
 0001:001710d0       ?clearLevels@@YAXXZ        201720d0 f   Lmd_Accounts.obj
 0001:00171150       ?clearScore@@YAXXZ         20172150 f   Lmd_Accounts.obj
 0001:001711d0       ?clearSkills@@YAXXZ        201721d0 f   Lmd_Accounts.obj
 0001:00171250       ?clearTime@@YAXXZ          20172250 f   Lmd_Accounts.obj
 0001:001712d0       ?listAdmins@@YAXPAUgentity_s@@@Z 201722d0 f   Lmd_Accounts.obj
 0001:001713d0       ?updatePlayer@@YAXPAUgentity_s@@@Z 201723d0 f   Lmd_Accounts.obj
 0001:00171540       ?Accounts_Parse_Password@@YAHPAD0PAX1@Z 20172540 f   Lmd_Accounts_Core.obj
 0001:001715c0       ?Accounts_Write_Password@@YA?AW4DataWriteResult_t@@PAXQADH1HPAPAX0@Z 201725c0 f   Lmd_Accounts_Core.obj
 0001:00171610       ?Accounts_Parse_LastLogin@@YAHPAD0PAX1@Z 20172610 f   Lmd_Accounts_Core.obj
 0001:00171650       ?Accounts_Write_LastLogin@@YA?AW4DataWriteResult_t@@PAXQADH1HPAPAX0@Z 20172650 f   Lmd_Accounts_Core.obj
 0001:00171690       ?Accounts_Parse_LastIP@@YAHPAD0PAX1@Z 20172690 f   Lmd_Accounts_Core.obj
 0001:001716d0       ?Accounts_Write_LastIP@@YA?AW4DataWriteResult_t@@PAXPADH1HPAPAX0@Z 201726d0 f   Lmd_Accounts_Core.obj
 0001:00171720       ?Accounts_Parse_Modules@@YAHPAD0PAX1@Z 20172720 f   Lmd_Accounts_Core.obj
 0001:001717e0       ?Accounts_Write_Modules@@YA?AW4DataWriteResult_t@@PAXQADH1HPAPAX0@Z 201727e0 f   Lmd_Accounts_Core.obj
 0001:001719e0       ?Accounts_AddFlags@@YAXPAUAccount_s@@H@Z 201729e0 f   Lmd_Accounts_Core.obj
 0001:00171a50       ?Accounts_ClearSeccode@@YAXPAUAccount_s@@@Z 20172a50 f   Lmd_Accounts_Core.obj
 0001:00171aa0       ?Accounts_Count@@YAIXZ     20172aa0 f   Lmd_Accounts_Core.obj
 0001:00171ac0       ?Accounts_Delete@@YAXPAUAccount_s@@@Z 20172ac0 f   Lmd_Accounts_Core.obj
 0001:00171b20       ?Accounts_Get@@YAPAUAccount_s@@I@Z 20172b20 f   Lmd_Accounts_Core.obj
 0001:00171b90       ?Accounts_GetById@@YAPAUAccount_s@@H@Z 20172b90 f   Lmd_Accounts_Core.obj
 0001:00171c00       ?Accounts_GetByName@@YAPAUAccount_s@@PAD@Z 20172c00 f   Lmd_Accounts_Core.obj
 0001:00171c80       ?Accounts_GetByUsername@@YAPAUAccount_s@@PAD@Z 20172c80 f   Lmd_Accounts_Core.obj
 0001:00171d00       ?Accounts_GetCredits@@YAHPAUAccount_s@@@Z 20172d00 f   Lmd_Accounts_Core.obj
 0001:00171d30       ?Accounts_GetExperience@@YAHPAUAccount_s@@@Z 20172d30 f   Lmd_Accounts_Core.obj
 0001:00171d60       ?Accounts_GetFlags@@YAHPAUAccount_s@@@Z 20172d60 f   Lmd_Accounts_Core.obj
 0001:00171d90       ?Accounts_GetId@@YAHPAUAccount_s@@@Z 20172d90 f   Lmd_Accounts_Core.obj
 0001:00171dc0       ?Accounts_GetLastIp@@YAXPAUAccount_s@@QAE@Z 20172dc0 f   Lmd_Accounts_Core.obj
 0001:00171df0       ?Accounts_GetLastLogin@@YAHPAUAccount_s@@@Z 20172df0 f   Lmd_Accounts_Core.obj
 0001:00171e20       ?Accounts_GetLogins@@YAHPAUAccount_s@@@Z 20172e20 f   Lmd_Accounts_Core.obj
 0001:00171e50       ?Accounts_GetName@@YAPADPAUAccount_s@@@Z 20172e50 f   Lmd_Accounts_Core.obj
 0001:00171ea0       ?Accounts_GetPassword@@YAHPAUAccount_s@@@Z 20172ea0 f   Lmd_Accounts_Core.obj
 0001:00171ed0       ?Accounts_GetPlayerByAcc@@YAPAUgentity_s@@PAUAccount_s@@@Z 20172ed0 f   Lmd_Accounts_Core.obj
 0001:00171f70       ?Accounts_GetScore@@YAHPAUAccount_s@@@Z 20172f70 f   Lmd_Accounts_Core.obj
 0001:00171fa0       ?Accounts_GetSeccode@@YAPADPAUAccount_s@@@Z 20172fa0 f   Lmd_Accounts_Core.obj
 0001:00171fd0       ?Accounts_GetTime@@YAHPAUAccount_s@@@Z 20172fd0 f   Lmd_Accounts_Core.obj
 0001:00172000       ?Accounts_GetUsername@@YAPADPAUAccount_s@@@Z 20173000 f   Lmd_Accounts_Core.obj
 0001:00172030       ?Accounts_Load@@YAIXZ      20173030 f   Lmd_Accounts_Core.obj
 0001:00172120       ?Accounts_New@@YAPAUAccount_s@@PAD00@Z 20173120 f   Lmd_Accounts_Core.obj
 0001:00172250       ?Accounts_NewSeccode@@YAPADPAUAccount_s@@@Z 20173250 f   Lmd_Accounts_Core.obj
 0001:001723d0       ?Accounts_Save@@YAXPAUAccount_s@@@Z 201733d0 f   Lmd_Accounts_Core.obj
 0001:00172450       ?Accounts_SaveAll@@YAXH@Z  20173450 f   Lmd_Accounts_Core.obj
 0001:00172520       ?Accounts_SetCredits@@YAXPAUAccount_s@@H@Z 20173520 f   Lmd_Accounts_Core.obj
 0001:00172570       ?Accounts_SetExperience@@YAXPAUAccount_s@@H@Z 20173570 f   Lmd_Accounts_Core.obj
 0001:001725c0       ?Accounts_SetLastIp@@YAXPAUAccount_s@@QAE@Z 201735c0 f   Lmd_Accounts_Core.obj
 0001:00172610       ?Accounts_SetLastLogin@@YAXPAUAccount_s@@H@Z 20173610 f   Lmd_Accounts_Core.obj
 0001:00172650       ?Accounts_SetLogins@@YAXPAUAccount_s@@H@Z 20173650 f   Lmd_Accounts_Core.obj
 0001:00172690       ?Accounts_SetName@@YAXPAUAccount_s@@PAD@Z 20173690 f   Lmd_Accounts_Core.obj
 0001:00172710       ?Accounts_SetPassword@@YAXPAUAccount_s@@PAD@Z 20173710 f   Lmd_Accounts_Core.obj
 0001:00172760       ?Accounts_SetScore@@YAXPAUAccount_s@@H@Z 20173760 f   Lmd_Accounts_Core.obj
 0001:001727a0       ?Accounts_SetTime@@YAXPAUAccount_s@@H@Z 201737a0 f   Lmd_Accounts_Core.obj
 0001:001727e0       ?Accounts_Update_Override@@YAXPAPAD0@Z 201737e0 f   Lmd_Accounts_Core.obj
 0001:00172850       ?Lmd_Accounts_AddDataCategory@@YAHPAUaccDataModule_v1_s@@@Z 20173850 f   Lmd_Accounts_Core.obj
 0001:001728a0       ?Lmd_Accounts_GetAccountCategoryData@@YAPAXPAUAccount_s@@H@Z 201738a0 f   Lmd_Accounts_Core.obj
 0001:00172900       ?Lmd_Accounts_Modify@@YAXPAUAccount_s@@@Z 20173900 f   Lmd_Accounts_Core.obj
 0001:00172930       ?accountLiveTime@@YAHH@Z   20173930 f   Lmd_Accounts_Core.obj
 0001:00172990       ?accountLiveTimeCheck@@YAHPAUAccount_s@@@Z 20173990 f   Lmd_Accounts_Core.obj
 0001:00172a10       ?addAccount@@YAXPAUAccount_s@@@Z 20173a10 f   Lmd_Accounts_Core.obj
 0001:00172a80       ?allocAccount@@YAPAUAccount_s@@XZ 20173a80 f   Lmd_Accounts_Core.obj
 0001:00172b80       ?deleteAccount@@YAXPAUAccount_s@@@Z 20173b80 f   Lmd_Accounts_Core.obj
 0001:00172bd0       ?freeAccount@@YAXPAUAccount_s@@@Z 20173bd0 f   Lmd_Accounts_Core.obj
 0001:00172cc0       ?parseAccount@@YAHPAD0@Z   20173cc0 f   Lmd_Accounts_Core.obj
 0001:00172d80       ?removeAccount@@YAXPAUAccount_s@@@Z 20173d80 f   Lmd_Accounts_Core.obj
 0001:00172e30       ?validateNewAccount@@YAHPAUAccount_s@@@Z 20173e30 f   Lmd_Accounts_Core.obj
 0001:00172eb0       ?Accounts_CustomSkill_Parse@@YAHPAD0PAX1@Z 20173eb0 f   Lmd_Accounts_CustomSkills.obj
 0001:00172f20       ?Accounts_CustomSkill_Write@@YA?AW4DataWriteResult_t@@PAXQADH1HPAPAX0@Z 20173f20 f   Lmd_Accounts_CustomSkills.obj
 0001:00173020       ?freeCust@@YAXPAX@Z        20174020 f   Lmd_Accounts_CustomSkills.obj
 0001:00173050       ?Accounts_CustomSkills_Register@@YAXXZ 20174050 f   Lmd_Accounts_CustomSkills.obj
 0001:00173080       ?Accounts_Custom_Clear@@YAXPAUAccount_s@@@Z 20174080 f   Lmd_Accounts_CustomSkills.obj
 0001:001730d0       ?Accounts_Custom_ClearAll@@YAXXZ 201740d0 f   Lmd_Accounts_CustomSkills.obj
 0001:00173130       ?Accounts_Custom_GetValue@@YAPADPAUAccount_s@@PAD@Z 20174130 f   Lmd_Accounts_CustomSkills.obj
 0001:001731a0       ?Accounts_Custom_SetValue@@YAXPAUAccount_s@@PAD1@Z 201741a0 f   Lmd_Accounts_CustomSkills.obj
 0001:00173260       ?Accounts_Friends_Parse@@YAHPAD0PAX1@Z 20174260 f   Lmd_Accounts_Friends.obj
 0001:001732c0       ?Accounts_Friends_Write@@YA?AW4DataWriteResult_t@@PAXQADH1HPAPAX0@Z 201742c0 f   Lmd_Accounts_Friends.obj
 0001:001733b0       ?Accounts_Friends_AccountLoaded@@YAXPAX0@Z 201743b0 f   Lmd_Accounts_Friends.obj
 0001:00173440       ?Accounts_Friends_Free@@YAXPAX@Z 20174440 f   Lmd_Accounts_Friends.obj
 0001:00173470       ?Accounts_Friends_Count@@YAIPAUAccount_s@@@Z 20174470 f   Lmd_Accounts_Friends.obj
 0001:001734c0       ?Accounts_Friends_IsFriend@@YAHPAUAccount_s@@H@Z 201744c0 f   Lmd_Accounts_Friends.obj
 0001:00173540       ?Accounts_Friends_Register@@YAXXZ 20174540 f   Lmd_Accounts_Friends.obj
 0001:00173570       ?Cmd_Friends_f@@YAXPAUgentity_s@@H@Z 20174570 f   Lmd_Accounts_Friends.obj
 0001:00173ab0       ?addFriend@@YAHPAUfriendData_s@@H@Z 20174ab0 f   Lmd_Accounts_Friends.obj
 0001:00173b20       ?getFriendIndex@@YAHPAUfriendData_s@@H@Z 20174b20 f   Lmd_Accounts_Friends.obj
 0001:00173b80       ?listDataFriends@@YAXPAUgentity_s@@PAUfriendData_s@@@Z 20174b80 f   Lmd_Accounts_Friends.obj
 0001:00173e30       ?listFriends@@YAXPAUgentity_s@@PAUAccount_s@@@Z 20174e30 f   Lmd_Accounts_Friends.obj
 0001:001740f0       ?removeFriendIndex@@YAXPAUfriendData_s@@H@Z 201750f0 f   Lmd_Accounts_Friends.obj
 0001:00174140       ?Accounts_Property_Parse@@YAHPAD0PAX1@Z 20175140 f   Lmd_Accounts_Property.obj
 0001:00174490       ?Accounts_Property_Write@@YA?AW4DataWriteResult_t@@PAXQADH1HPAPAX0@Z 20175490 f   Lmd_Accounts_Property.obj
 0001:00174640       ?Accounts_Property_Free@@YAXPAX@Z 20175640 f   Lmd_Accounts_Property.obj
 0001:001746b0       ?Accounts_Property_GetAccess@@YAIPAUAccount_s@@PADPAHPAI2@Z 201756b0 f   Lmd_Accounts_Property.obj
 0001:001747f0       ?Accounts_Property_GetAccessCount@@YAIPADH@Z 201757f0 f   Lmd_Accounts_Property.obj
 0001:00174910       ?Accounts_Property_GetPlayerPropRank@@YAHPAUgentity_s@@PAD@Z 20175910 f   Lmd_Accounts_Property.obj
 0001:001749b0       ?Accounts_Property_Register@@YAXXZ 201759b0 f   Lmd_Accounts_Property.obj
 0001:001749e0       ?Accounts_Property_SetAccess@@YAXPAUAccount_s@@PADIHIH@Z 201759e0 f   Lmd_Accounts_Property.obj
 0001:00174ba0       ?Accounts_Property_ViewAccount@@YAXPAUgentity_s@@PAUAccount_s@@@Z 20175ba0 f   Lmd_Accounts_Property.obj
 0001:00174db0       ?Accounts_Property_ViewKey@@YAXPAUgentity_s@@PAD@Z 20175db0 f   Lmd_Accounts_Property.obj
 0001:00175020       ?Cmd_Property_f@@YAXPAUgentity_s@@H@Z 20176020 f   Lmd_Accounts_Property.obj
 0001:00175ab0       ?checkExpiredProperty@@YAXPAUAccount_s@@@Z 20176ab0 f   Lmd_Accounts_Property.obj
 0001:00175b80       ?lmd_property@@YAXPAUgentity_s@@@Z 20176b80 f   Lmd_Accounts_Property.obj
 0001:00175c90       ?lmd_property_use@@YAXPAUgentity_s@@00@Z 20176c90 f   Lmd_Accounts_Property.obj
 0001:00175cf0       ?lmd_propertyterminal@@YAXPAUgentity_s@@@Z 20176cf0 f   Lmd_Accounts_Property.obj
 0001:00175fc0       ?lmd_propertyterminal_examine@@YAXPAUgentity_s@@0@Z 20176fc0 f   Lmd_Accounts_Property.obj
 0001:001764f0       ?lmd_propertyterminal_pay@@YAHPAUgentity_s@@H0@Z 201774f0 f   Lmd_Accounts_Property.obj
 0001:001768f0       ?lmd_propertyterminal_use@@YAXPAUgentity_s@@00@Z 201778f0 f   Lmd_Accounts_Property.obj
 0001:00176af0       ?removePropertyByAdder@@YAXPADH@Z 20177af0 f   Lmd_Accounts_Property.obj
 0001:00176c00       ?Accounts_Stats_GetDeaths@@YAHPAUAccount_s@@@Z 20177c00 f   Lmd_Accounts_Stats.obj
 0001:00176c50       ?Accounts_Stats_GetDuels@@YAHPAUAccount_s@@@Z 20177c50 f   Lmd_Accounts_Stats.obj
 0001:00176ca0       ?Accounts_Stats_GetDuelsWon@@YAHPAUAccount_s@@@Z 20177ca0 f   Lmd_Accounts_Stats.obj
 0001:00176cf0       ?Accounts_Stats_GetHits@@YAHPAUAccount_s@@@Z 20177cf0 f   Lmd_Accounts_Stats.obj
 0001:00176d40       ?Accounts_Stats_GetKills@@YAHPAUAccount_s@@@Z 20177d40 f   Lmd_Accounts_Stats.obj
 0001:00176d90       ?Accounts_Stats_GetShots@@YAHPAUAccount_s@@@Z 20177d90 f   Lmd_Accounts_Stats.obj
 0001:00176de0       ?Accounts_Stats_GetStashes@@YAHPAUAccount_s@@@Z 20177de0 f   Lmd_Accounts_Stats.obj
 0001:00176e30       ?Accounts_Stats_Register@@YAXXZ 20177e30 f   Lmd_Accounts_Stats.obj
 0001:00176e60       ?Accounts_Stats_SetDeaths@@YAXPAUAccount_s@@H@Z 20177e60 f   Lmd_Accounts_Stats.obj
 0001:00176ec0       ?Accounts_Stats_SetDuels@@YAXPAUAccount_s@@H@Z 20177ec0 f   Lmd_Accounts_Stats.obj
 0001:00176f20       ?Accounts_Stats_SetDuelsWon@@YAXPAUAccount_s@@H@Z 20177f20 f   Lmd_Accounts_Stats.obj
 0001:00176f80       ?Accounts_Stats_SetHits@@YAXPAUAccount_s@@H@Z 20177f80 f   Lmd_Accounts_Stats.obj
 0001:00176fe0       ?Accounts_Stats_SetKills@@YAXPAUAccount_s@@H@Z 20177fe0 f   Lmd_Accounts_Stats.obj
 0001:00177040       ?Accounts_Stats_SetShots@@YAXPAUAccount_s@@H@Z 20178040 f   Lmd_Accounts_Stats.obj
 0001:001770a0       ?Accounts_Stats_SetStashes@@YAXPAUAccount_s@@H@Z 201780a0 f   Lmd_Accounts_Stats.obj
 0001:00177100       ?Actor_Create@@YAPAUgentity_s@@PAD0QAM1@Z 20178100 f   Lmd_Actor_Core.obj
 0001:001775f0       ?Actor_SetAngles@@YAXPAUgentity_s@@QAM@Z 201785f0 f   Lmd_Actor_Core.obj
 0001:00177620       ?Actor_SetAnimation_Both@@YAXPAUgentity_s@@HH@Z 20178620 f   Lmd_Actor_Core.obj
 0001:001776b0       ?Actor_SetAnimation_Legs@@YAXPAUgentity_s@@HH@Z 201786b0 f   Lmd_Actor_Core.obj
 0001:00177720       ?Actor_SetAnimation_Torso@@YAXPAUgentity_s@@HH@Z 20178720 f   Lmd_Actor_Core.obj
 0001:00177790       ?Actor_SetDestination@@YAXPAUgentity_s@@QAMH@Z 20178790 f   Lmd_Actor_Core.obj
 0001:00177840       ?Actor_SetModel@@YAXPAUgentity_s@@PAD1@Z 20178840 f   Lmd_Actor_Core.obj
 0001:001778b0       ?Actor_SetOrigin@@YAXPAUgentity_s@@QAM@Z 201788b0 f   Lmd_Actor_Core.obj
 0001:001779e0       ?Actor_SetScale@@YAXPAUgentity_s@@M@Z 201789e0 f   Lmd_Actor_Core.obj
 0001:00177a20       ?Actor_SetSpeed@@YAXPAUgentity_s@@H@Z 20178a20 f   Lmd_Actor_Core.obj
 0001:00177a50       ?Actor_Think@@YAXPAUgentity_s@@@Z 20178a50 f   Lmd_Actor_Core.obj
 0001:00177f10       ?ApplyActorAttributeEntityKeys@@YAXPAUgentity_s@@0@Z 20178f10 f   Lmd_Actor_Entities.obj
 0001:00178080       ?ParseActorAttributeEntityKeys@@YAXPAUgentity_s@@@Z 20179080 f   Lmd_Actor_Entities.obj
 0001:00178150       ?lmd_actor@@YAXPAUgentity_s@@@Z 20179150 f   Lmd_Actor_Entities.obj
 0001:001782c0       ?lmd_actor_modify@@YAXPAUgentity_s@@@Z 201792c0 f   Lmd_Actor_Entities.obj
 0001:00178350       ?lmd_actor_modify_use@@YAXPAUgentity_s@@00@Z 20179350 f   Lmd_Actor_Entities.obj
 0001:00178500       ?lmd_actor_use@@YAXPAUgentity_s@@00@Z 20179500 f   Lmd_Actor_Entities.obj
 0001:00178710       ?Cmd_AccountEdit_f@@YAXPAUgentity_s@@H@Z 20179710 f   Lmd_Admin.obj
 0001:00178eb0       ?Cmd_AccountInfo_f@@YAXPAUgentity_s@@H@Z 20179eb0 f   Lmd_Admin.obj
 0001:00178fd0       ?Cmd_Announce_f@@YAXPAUgentity_s@@H@Z 20179fd0 f   Lmd_Admin.obj
 0001:001790b0       ?Cmd_CancelVote_f@@YAXPAUgentity_s@@H@Z 2017a0b0 f   Lmd_Admin.obj
 0001:00179120       ?Cmd_Freeze_f@@YAXPAUgentity_s@@H@Z 2017a120 f   Lmd_Admin.obj
 0001:00179320       ?Cmd_Teleport_f@@YAXPAUgentity_s@@H@Z 2017a320 f   Lmd_Admin.obj
 0001:00179cd0       ?Cmd_GotoPoint_f@@YAXPAUgentity_s@@H@Z 2017acd0 f   Lmd_Admin.obj
 0001:0017a2b0       ?Cmd_HideAdminStatus_f@@YAXPAUgentity_s@@H@Z 2017b2b0 f   Lmd_Admin.obj
 0001:0017a360       ?Cmd_Jail_f@@YAXPAUgentity_s@@H@Z 2017b360 f   Lmd_Admin.obj
 0001:0017a5f0       ?Cmd_JmQuit_f@@YAXPAUgentity_s@@H@Z 2017b5f0 f   Lmd_Admin.obj
 0001:0017aaf0       ?Cmd_ListAdmins_f@@YAXPAUgentity_s@@H@Z 2017baf0 f   Lmd_Admin.obj
 0001:0017ab20       ?Cmd_ToggleSPF_f@@YAXPAUgentity_s@@H@Z 2017bb20 f   Lmd_Admin.obj
 0001:0017ade0       ?Cmd_PassVote_f@@YAXPAUgentity_s@@H@Z 2017bde0 f   Lmd_Admin.obj
 0001:0017ae60       ?Cmd_Penalize_f@@YAXPAUgentity_s@@H@Z 2017be60 f   Lmd_Admin.obj
 0001:0017b1e0       ?Cmd_Playerlist_f@@YAXPAUgentity_s@@H@Z 2017c1e0 f   Lmd_Admin.obj
 0001:0017b850       ?Cmd_RenamePlayer_f@@YAXPAUgentity_s@@H@Z 2017c850 f   Lmd_Admin.obj
 0001:0017b970       ?Cmd_Strip_f@@YAXPAUgentity_s@@H@Z 2017c970 f   Lmd_Admin.obj
 0001:0017bbb0       ?Cmd_TeamOther_f@@YAXPAUgentity_s@@H@Z 2017cbb0 f   Lmd_Admin.obj
 0001:0017bf10       ?Cmd_TmpBan_f@@YAXPAUgentity_s@@H@Z 2017cf10 f   Lmd_Admin.obj
 0001:0017c040       ?SumCredits@@YAHXZ         2017d040 f   Lmd_Admin.obj
 0001:0017c150       ?jailPlayer@@YAXPAUgentity_s@@H@Z 2017d150 f   Lmd_Admin.obj
 0001:0017c470       ?totalAccountCredits@@YAIXZ 2017d470 f   Lmd_Admin.obj
 0001:0017c4e0       ?updatePenalties@@YAXPAUgentity_s@@@Z 2017d4e0 f   Lmd_Admin.obj
 0001:0017c590       ?LmdApi_Accounts_RegisterAccountModule@@YAHPAUaccDataModule_v1_s@@H@Z 2017d590 f   Lmd_API_Accounts.obj
 0001:0017c5c0       ?LmdApi_Accounts_GetAccountModuleData@@YAPAXPAXH@Z 2017d5c0 f   Lmd_API_Accounts.obj
 0001:0017c5f0       ?LmdApi_Accounts_GetById@@YAPAXH@Z 2017d5f0 f   Lmd_API_Accounts.obj
 0001:0017c620       ?LmdApi_Accounts_GetByUsername@@YAPAXPAD@Z 2017d620 f   Lmd_API_Accounts.obj
 0001:0017c650       ?LmdApi_Accounts_GetByName@@YAPAXPAD@Z 2017d650 f   Lmd_API_Accounts.obj
 0001:0017c680       ?LmdApi_Accounts_Get@@YAPAXI@Z 2017d680 f   Lmd_API_Accounts.obj
 0001:0017c6b0       ?LmdApi_Accounts_GetId@@YAHPAX@Z 2017d6b0 f   Lmd_API_Accounts.obj
 0001:0017c6e0       ?LmdApi_Accounts_GetUsername@@YAPADPAX@Z 2017d6e0 f   Lmd_API_Accounts.obj
 0001:0017c710       ?LmdApi_Accounts_SetPassword@@YAXPAXPAD@Z 2017d710 f   Lmd_API_Accounts.obj
 0001:0017c740       ?LmdApi_Accounts_GetCredits@@YAHPAX@Z 2017d740 f   Lmd_API_Accounts.obj
 0001:0017c770       ?LmdApi_Accounts_SetCredits@@YAXPAXH@Z 2017d770 f   Lmd_API_Accounts.obj
 0001:0017c7a0       ?LmdApi_Accounts_GetScore@@YAHPAX@Z 2017d7a0 f   Lmd_API_Accounts.obj
 0001:0017c7d0       ?LmdApi_Accounts_SetScore@@YAXPAXH@Z 2017d7d0 f   Lmd_API_Accounts.obj
 0001:0017c800       ?LmdApi_Accounts_GetTime@@YAHPAX@Z 2017d800 f   Lmd_API_Accounts.obj
 0001:0017c830       ?LmdApi_Accounts_GetSeccode@@YAPADPAX@Z 2017d830 f   Lmd_API_Accounts.obj
 0001:0017c860       ?LmdApi_Accounts_ClearSeccode@@YAXPAX@Z 2017d860 f   Lmd_API_Accounts.obj
 0001:0017c890       ?LmdApi_Accounts_GetFlags@@YAHPAX@Z 2017d890 f   Lmd_API_Accounts.obj
 0001:0017c8c0       ?LmdApi_Accounts_AddFlags@@YAXPAXH@Z 2017d8c0 f   Lmd_API_Accounts.obj
 0001:0017c8f0       ?LmdApi_Accounts_GetLogins@@YAHPAX@Z 2017d8f0 f   Lmd_API_Accounts.obj
 0001:0017c920       ?LmdApi_Accounts_GetLastIp@@YAXPAXQAE@Z 2017d920 f   Lmd_API_Accounts.obj
 0001:0017c950       ?LmdApi_Accounts_GetLastLogin@@YAHPAX@Z 2017d950 f   Lmd_API_Accounts.obj
 0001:0017c980       ?LmdApi_Accounts_GetName@@YAPADPAX@Z 2017d980 f   Lmd_API_Accounts.obj
 0001:0017c9b0       ?LmdApi_Accounts_SetName@@YAXPAXPAD@Z 2017d9b0 f   Lmd_API_Accounts.obj
 0001:0017c9e0       ?LmdApi_Get_Accounts@@YAPBXI@Z 2017d9e0 f   Lmd_API_Accounts.obj
 0001:0017ca10       ?LmdApi_Commands_Auths_AccountHasAdmin@@YAHPAX@Z 2017da10 f   Lmd_API_Commands_Auths.obj
 0001:0017ca40       ?LmdApi_Commands_Auths_AccountHasAuthFlag@@YAHPAXH@Z 2017da40 f   Lmd_API_Commands_Auths.obj
 0001:0017ca70       ?LmdApi_Commands_Auths_AccountHasAuth@@YAHPAXPAUauthFile_s@@@Z 2017da70 f   Lmd_API_Commands_Auths.obj
 0001:0017caa0       ?LmdApi_Commands_Auths_PlayerInferiorToAccount@@YAHPAUgentity_s@@PAX@Z 2017daa0 f   Lmd_API_Commands_Auths.obj
 0001:0017cad0       ?LmdApi_Commands_Auths_AccountRank@@YAHPAX@Z 2017dad0 f   Lmd_API_Commands_Auths.obj
 0001:0017cb00       ?LmdApi_Commands_Auths_GrantAccountAuth@@YAXPAXPAUauthFile_s@@@Z 2017db00 f   Lmd_API_Commands_Auths.obj
 0001:0017cb30       ?LmdApi_Commands_Auths_RemoveAccountAuth@@YAHPAXPAUauthFile_s@@@Z 2017db30 f   Lmd_API_Commands_Auths.obj
 0001:0017cb60       ?LmdApi_Get_Commands_Auths@@YAPBXI@Z 2017db60 f   Lmd_API_Commands_Auths.obj
 0001:0017cb90       ?LmdApi_Entities_ClearSpawnKeys@@YAXXZ 2017db90 f   Lmd_API_Entities.obj
 0001:0017cbc0       ?LmdApi_Entities_SpawnFromKeys@@YAPAUgentity_s@@XZ 2017dbc0 f   Lmd_API_Entities.obj
 0001:0017cc30       ?LmdApi_Entities_RegisterSpawnableEntity@@YAXPADP6AXPAUgentity_s@@@ZUentLogicalData_s@@PBUentityInfo_t@@@Z 2017dc30 f   Lmd_API_Entities.obj
 0001:0017cca0       ?LmdApi_Entities_AddSpawnKey@@YAXPAD0@Z 2017dca0 f   Lmd_API_Entities.obj
 0001:0017ccd0       ?LmdApi_Get_Entities@@YAPBXI@Z 2017dcd0 f   Lmd_API_Entities.obj
 0001:0017cd00       ?LmdApi_Professions_GetNumProfessions@@YAHXZ 2017dd00 f   Lmd_API_Professions.obj
 0001:0017cd20       ?LmdApi_Professions_GetProfession@@YAPAUprofession_s@@H@Z 2017dd20 f   Lmd_API_Professions.obj
 0001:0017cd60       ?LmdApi_Get_Professions@@YAPBXI@Z 2017dd60 f   Lmd_API_Professions.obj
 0001:0017cd90       ?Lmd_Arrays_AddArrayElement@@YAIPAPAXIPAI@Z 2017dd90 f   Lmd_Arrays.obj
 0001:0017ce40       ?Lmd_Arrays_AddArrayElement_Location@@YAHHPAPAXIPAI@Z 2017de40 f   Lmd_Arrays.obj
 0001:0017cf10       ?Lmd_Arrays_RemoveAllElements@@YAXPAPAX@Z 2017df10 f   Lmd_Arrays.obj
 0001:0017cf50       ?Lmd_Arrays_RemoveArrayElement@@YAXPAPAXHIPAI@Z 2017df50 f   Lmd_Arrays.obj
 0001:0017d040       ?Lmd_Arrays_Shift@@YAXPAXIHHH@Z 2017e040 f   Lmd_Arrays.obj
 0001:0017d110       ?Cmd_BanIP_f@@YAXPAUgentity_s@@H@Z 2017e110 f   Lmd_Bans.obj
 0001:0017d340       ?Cmd_BanHost_f@@YAXPAUgentity_s@@H@Z 2017e340 f   Lmd_Bans.obj
 0001:0017d510       ?Cmd_RemoveBan_f@@YAXPAUgentity_s@@H@Z 2017e510 f   Lmd_Bans.obj
 0001:0017d610       ?Cmd_ListBans_f@@YAXPAUgentity_s@@H@Z 2017e610 f   Lmd_Bans.obj
 0001:0017d900       ?Bans_AddHost@@YAXPADH0@Z  2017e900 f   Lmd_Bans.obj
 0001:0017d960       ?Bans_AddIP@@YAXQAEHPAD@Z  2017e960 f   Lmd_Bans.obj
 0001:0017d9c0       ?Bans_CheckBegin@@YAHPAUgentity_s@@@Z 2017e9c0 f   Lmd_Bans.obj
 0001:0017db20       ?Bans_CheckTime@@YAXXZ     2017eb20 f   Lmd_Bans.obj
 0001:0017dbd0       ?Bans_Create@@YAPAUBan_s@@HPAD@Z 2017ebd0 f   Lmd_Bans.obj
 0001:0017dcb0       ?Bans_GetHostnameIndex@@YAHPAD@Z 2017ecb0 f   Lmd_Bans.obj
 0001:0017dd40       ?Bans_GetIpIndex@@YAHQAE@Z 2017ed40 f   Lmd_Bans.obj
 0001:0017ddd0       ?Bans_HostnameIsBanned@@YAPADPAD@Z 2017edd0 f   Lmd_Bans.obj
 0001:0017df10       ?Bans_IPIsBanned@@YAPADQAE@Z 2017ef10 f   Lmd_Bans.obj
 0001:0017dfa0       ?Bans_Load@@YAXXZ          2017efa0 f   Lmd_Bans.obj
 0001:0017e2f0       ?Bans_Load_Callback@@YAHPAD0PAX@Z 2017f2f0 f   Lmd_Bans.obj
 0001:0017e4c0       ?Bans_Remove@@YAXH@Z       2017f4c0 f   Lmd_Bans.obj
 0001:0017e540       ?Bans_Save@@YAXXZ          2017f540 f   Lmd_Bans.obj
 0001:0017e590       ?Bans_Save_Callback@@YAPAUDBSaveFileCallbackReturn_t@@PAEPAU1@PADH2H@Z 2017f590 f   Lmd_Bans.obj
 0001:0017e7b0       ?Lmd_Bans_BanPlayer@@YAXPAUgentity_s@@@Z 2017f7b0 f   Lmd_Bans.obj
 0001:0017e810       ?Lmd_Bans_TempBanPlayer@@YAXPAUgentity_s@@HPAD@Z 2017f810 f   Lmd_Bans.obj
 0001:0017e910       ?Checksum@@YAIPAD@Z        2017f910 f   Lmd_Checksum.obj
 0001:0017ea30       ?HexToInt@@YAHPBD@Z        2017fa30 f   Lmd_Checksum.obj
 0001:0017eb70       ?Cmd_Confirm_f@@YAXPAUgentity_s@@H@Z 2017fb70 f   Lmd_Command_Confirm.obj
 0001:0017edf0       ?Confirm_Check@@YAXPAUgentity_s@@@Z 2017fdf0 f   Lmd_Command_Confirm.obj
 0001:0017ee70       ?Confirm_Clear@@YAXPAUgentity_s@@@Z 2017fe70 f   Lmd_Command_Confirm.obj
 0001:0017eed0       ?Confirm_Set@@YAHPAUgentity_s@@P6AX0PAX@Z1@Z 2017fed0 f   Lmd_Command_Confirm.obj
 0001:0017ef70       ?Cmd_Interact_f@@YAXPAUgentity_s@@H@Z 2017ff70 f   Lmd_Command_Interact.obj
 0001:0017f040       ?Interact_Check@@YAXPAUgentity_s@@@Z 20180040 f   Lmd_Command_Interact.obj
 0001:0017f2b0       ?Interact_Clear@@YAXPAUgentity_s@@@Z 201802b0 f   Lmd_Command_Interact.obj
 0001:0017f2f0       ?Interact_Set@@YAXPAUgentity_s@@0QAMHPAD@Z 201802f0 f   Lmd_Command_Interact.obj
 0001:0017f600       ?Cmd_AdminInfo_f@@YAXPAUgentity_s@@H@Z 20180600 f   Lmd_Commands.obj
 0001:0017f740       ?Cmd_IgnoreClient_f@@YAXPAUgentity_s@@H@Z 20180740 f   Lmd_Commands.obj
 0001:0017faf0       ?Cmd_BuddyClient_f@@YAXPAUgentity_s@@H@Z 20180af0 f   Lmd_Commands.obj
 0001:0017fce0       ?Cmd_Challenge_f@@YAXPAUgentity_s@@H@Z 20180ce0 f   Lmd_Commands.obj
 0001:001800b0       ?Cmd_Resize_f@@YAXPAUgentity_s@@H@Z 201810b0 f   Lmd_Commands.obj
 0001:00180350       ?Cmd_emote_f@@YAXPAUgentity_s@@H@Z 20181350 f   Lmd_Commands.obj
 0001:00180700       ?Cmd_Ionlyduel_f@@YAXPAUgentity_s@@H@Z 20181700 f   Lmd_Commands.obj
 0001:00180860       ?Cmd_King_f@@YAXPAUgentity_s@@H@Z 20181860 f   Lmd_Commands.obj
 0001:001809a0       ?Cmd_Say2_f@@YAXPAUgentity_s@@H@Z 201819a0 f   Lmd_Commands.obj
 0001:001809d0       ?Cmd_DropStuff_f@@YAXPAUgentity_s@@H@Z 201819d0 f   Lmd_Commands.obj
 0001:00180d50       ?Cmd_RageQuit_f@@YAXPAUgentity_s@@H@Z 20181d50 f   Lmd_Commands.obj
 0001:00180db0       ?Cmd_ChatMode_f@@YAXPAUgentity_s@@H@Z 20181db0 f   Lmd_Commands.obj
 0001:00181250       ?Cmd_dispMotd_f@@YAXPAUgentity_s@@H@Z 20182250 f   Lmd_Commands.obj
 0001:00181280       ?Cmd_Stash_f@@YAXPAUgentity_s@@H@Z 20182280 f   Lmd_Commands.obj
 0001:00181340       ?Cmd_DropStash_f@@YAXPAUgentity_s@@H@Z 20182340 f   Lmd_Commands.obj
 0001:001813b0       ?Cmd_Examine_f@@YAXPAUgentity_s@@H@Z 201823b0 f   Lmd_Commands.obj
 0001:00181670       ?AimAnyTarget@@YAPAUgentity_s@@PAU1@H@Z 20182670 f   Lmd_Commands.obj
 0001:001818b0       ?AimTarget@@YAPAUgentity_s@@PAU1@H@Z 201828b0 f   Lmd_Commands.obj
 0001:00181920       ?ClientFromArg@@YAPAUgentity_s@@PAU1@H@Z 20182920 f   Lmd_Commands.obj
 0001:001819c0       ?Cmd_None_f@@YAXPAUgentity_s@@H@Z 201829c0 f   Lmd_Commands.obj
 0001:001819e0       ?G_NewString2@@YAPADPBD@Z  201829e0 f   Lmd_Commands.obj
 0001:00181a80       ?HurlItem@@YAPAUgentity_s@@PAU1@PBD@Z 20182a80 f   Lmd_Commands.obj
 0001:00181e10       ?PlayerItem_CanSpawnItem@@YAHPAUgentity_s@@@Z 20182e10 f   Lmd_Commands.obj
 0001:00181e70       ?PlayerItem_Scan@@YAXPAUgentity_s@@@Z 20182e70 f   Lmd_Commands.obj
 0001:00181f60       ?PlayerItem_Spawn@@YAHPAUgentity_s@@0@Z 20182f60 f   Lmd_Commands.obj
 0001:00182000       ?hurl@@YAXPAUgentity_s@@0@Z 20183000 f   Lmd_Commands.obj
 0001:00182410       ?isBuddy@@YAHPAUgentity_s@@0@Z 20183410 f   Lmd_Commands.obj
 0001:00182520       ?listEmotes@@YAXPAUgentity_s@@@Z 20183520 f   Lmd_Commands.obj
 0001:00182660       ?scaleEntity@@YAXPAUgentity_s@@H@Z 20183660 f   Lmd_Commands.obj
 0001:00182870       ?Accounts_Auths_Parse@@YAHPAD0PAX1@Z 20183870 f   Lmd_Commands_Auths.obj
 0001:00182990       ?Accounts_Auths_Write@@YA?AW4DataWriteResult_t@@PAXQADH1HPAPAX0@Z 20183990 f   Lmd_Commands_Auths.obj
 0001:00182a90       ?Accounts_Auths_Free@@YAXPAX@Z 20183a90 f   Lmd_Commands_Auths.obj
 0001:00182ac0       ?Cmd_GrantAdmin_f@@YAXPAUgentity_s@@H@Z 20183ac0 f   Lmd_Commands_Auths.obj
 0001:00183020       ?Cmd_GrantTempAdmin_f@@YAXPAUgentity_s@@H@Z 20184020 f   Lmd_Commands_Auths.obj
 0001:00183500       ?Cmd_MyAuths_f@@YAXPAUgentity_s@@H@Z 20184500 f   Lmd_Commands_Auths.obj
 0001:00183840       ?Cmd_AuthInfo_f@@YAXPAUgentity_s@@H@Z 20184840 f   Lmd_Commands_Auths.obj
 0001:00183b10       ?Accounts_Auths_Register@@YAXXZ 20184b10 f   Lmd_Commands_Auths.obj
 0001:00183b40       ?Auths_AccHasAdmin@@YAHPAUAccount_s@@@Z 20184b40 f   Lmd_Commands_Auths.obj
 0001:00183ba0       ?Auths_AccHasAuthFlag@@YAHPAUAccount_s@@H@Z 20184ba0 f   Lmd_Commands_Auths.obj
 0001:00183c40       ?Auths_AccHasFile@@YAHPAUAccount_s@@PAUauthFile_s@@@Z 20184c40 f   Lmd_Commands_Auths.obj
 0001:00183cd0       ?Auths_AddAccAuthfile@@YAXPAUAccount_s@@PAUauthFile_s@@@Z 20184cd0 f   Lmd_Commands_Auths.obj
 0001:00183d40       ?Auths_AddDataEntry@@YAXPAUauthFileDataList_s@@PAUauthFile_s@@H@Z 20184d40 f   Lmd_Commands_Auths.obj
 0001:00183e00       ?Auths_AddTempAuthfile@@YAXPAUgentity_s@@PAUauthFile_s@@@Z 20184e00 f   Lmd_Commands_Auths.obj
 0001:00183e40       ?Auths_AllocTempAdmin@@YAXPAUclientSession_t@@@Z 20184e40 f   Lmd_Commands_Auths.obj
 0001:00183ea0       ?Auths_CanUseCommand@@YAHPAUgentity_s@@PAUcmdEntry_s@@@Z 20184ea0 f   Lmd_Commands_Auths.obj
 0001:00184010       ?Auths_CommandUsed@@YAXPAUgentity_s@@PAUcmdEntry_s@@@Z 20185010 f   Lmd_Commands_Auths.obj
 0001:001841d0       ?Auths_DispAdmins@@YAXPAD@Z 201851d0 f   Lmd_Commands_Auths.obj
 0001:00184260       ?Auths_DispInfo@@YAXPAUgentity_s@@PAUauthFile_s@@PAUcmdCategory_s@@@Z 20185260 f   Lmd_Commands_Auths.obj
 0001:00184780       ?Auths_GetAccAuthData@@YAPAUauthFileData_s@@PAUAccount_s@@PAUauthFile_s@@@Z 20185780 f   Lmd_Commands_Auths.obj
 0001:00184810       ?Auths_GetAuthCmdEntry@@YAPAUauthCmdEntry_s@@PAUauthFile_s@@PAUcmdEntry_s@@@Z 20185810 f   Lmd_Commands_Auths.obj
 0001:00184880       ?Auths_GetFile@@YAPAUauthFile_s@@PAD@Z 20185880 f   Lmd_Commands_Auths.obj
 0001:00184920       ?Auths_GetPlayerFileCmdEntry@@YAPAUauthCmdEntry_s@@PAUgentity_s@@PAUcmdEntry_s@@PAPAUauthFileData_s@@@Z 20185920 f   Lmd_Commands_Auths.obj
 0001:00184ad0       ?Auths_GetPlayerRank@@YAHPAUgentity_s@@@Z 20185ad0 f   Lmd_Commands_Auths.obj
 0001:00184c00       ?Auths_GetRank@@YAHPAUAccount_s@@@Z 20185c00 f   Lmd_Commands_Auths.obj
 0001:00184cc0       ?Auths_Inferior@@YAHPAUgentity_s@@0@Z 20185cc0 f   Lmd_Commands_Auths.obj
 0001:00184d80       ?Auths_InferiorToAcc@@YAHPAUgentity_s@@PAUAccount_s@@@Z 20185d80 f   Lmd_Commands_Auths.obj
 0001:00184e50       ?Auths_Load@@YAIXZ         20185e50 f   Lmd_Commands_Auths.obj
 0001:00184ea0       ?Auths_LoadDefaults@@YAXXZ 20185ea0 f   Lmd_Commands_Auths.obj
 0001:00185100       ?Auths_LoadFile@@YAHPAD0@Z 20186100 f   Lmd_Commands_Auths.obj
 0001:00185150       ?Auths_NewAuthCmdEntry@@YAPAUauthCmdEntry_s@@PAUauthFile_s@@PAUcmdEntry_s@@@Z 20186150 f   Lmd_Commands_Auths.obj
 0001:001851c0       ?Auths_NewFile@@YAPAUauthFile_s@@PAD@Z 201861c0 f   Lmd_Commands_Auths.obj
 0001:00185230       ?Auths_ParseFile@@YAHPAEHPAD1@Z 20186230 f   Lmd_Commands_Auths.obj
 0001:001852f0       ?Auths_ParseLevelFile@@YAXXZ 201862f0 f   Lmd_Commands_Auths.obj
 0001:001854d0       ?Auths_PlayerCmdpointRegen@@YAXPAUgentity_s@@@Z 201864d0 f   Lmd_Commands_Auths.obj
 0001:001854f0       ?Auths_PlayerHasAdmin@@YAHPAUgentity_s@@@Z 201864f0 f   Lmd_Commands_Auths.obj
 0001:00185560       ?Auths_PlayerHasAuthFlag@@YAHPAUgentity_s@@H@Z 20186560 f   Lmd_Commands_Auths.obj
 0001:00185620       ?Auths_PlayerHasCommand@@YAHPAUgentity_s@@PAUcmdEntry_s@@@Z 20186620 f   Lmd_Commands_Auths.obj
 0001:00185670       ?Auths_PlayerHasFile@@YAHPAUgentity_s@@PAUauthFile_s@@@Z 20186670 f   Lmd_Commands_Auths.obj
 0001:001856d0       ?Auths_PlayerHasTempAdmin@@YAHPAUgentity_s@@@Z 201866d0 f   Lmd_Commands_Auths.obj
 0001:00185750       ?Auths_PlayerHasTempFile@@YAHPAUgentity_s@@PAUauthFile_s@@@Z 20186750 f   Lmd_Commands_Auths.obj
 0001:001857d0       ?Auths_QuickAuthList@@YAPADPAUAccount_s@@@Z 201867d0 f   Lmd_Commands_Auths.obj
 0001:00185a90       ?Auths_QuickPlayerAuthList@@YAPADPAUgentity_s@@@Z 20186a90 f   Lmd_Commands_Auths.obj
 0001:00185cf0       ?Auths_ReadTempAdminSess@@YAXPAUgclient_s@@@Z 20186cf0 f   Lmd_Commands_Auths.obj
 0001:00185f50       ?Auths_RemoveAccAuthfile@@YAHPAUAccount_s@@PAUauthFile_s@@@Z 20186f50 f   Lmd_Commands_Auths.obj
 0001:00185fc0       ?Auths_RemoveAllAccAuthfiles@@YAHPAUAccount_s@@@Z 20186fc0 f   Lmd_Commands_Auths.obj
 0001:00186020       ?Auths_RemoveAllDataEntries@@YAXPAUauthFileDataList_s@@@Z 20187020 f   Lmd_Commands_Auths.obj
 0001:00186060       ?Auths_RemoveAutoAuthfiles@@YAXPAUauthFileDataList_s@@@Z 20187060 f   Lmd_Commands_Auths.obj
 0001:001860e0       ?Auths_RemoveDataEntry@@YAHPAUauthFileDataList_s@@PAUauthFile_s@@@Z 201870e0 f   Lmd_Commands_Auths.obj
 0001:00186180       ?Auths_RemoveTempAdmin@@YAHPAUgentity_s@@PAD@Z 20187180 f   Lmd_Commands_Auths.obj
 0001:00186210       ?Auths_RemoveTempAuthfile@@YAHPAUgentity_s@@PAUauthFile_s@@@Z 20187210 f   Lmd_Commands_Auths.obj
 0001:00186290       ?Auths_Shutdown@@YAXXZ     20187290 f   Lmd_Commands_Auths.obj
 0001:00186320       ?Auths_UnallocFile@@YAXPAUauthFile_s@@@Z 20187320 f   Lmd_Commands_Auths.obj
 0001:001863c0       ?Auths_WriteTempAdminSess@@YAXPAUgclient_s@@@Z 201873c0 f   Lmd_Commands_Auths.obj
 0001:00186580       ?Cmd_GrantAdmin_ListAuths@@YAXPAUgentity_s@@PAUAccount_s@@@Z 20187580 f   Lmd_Commands_Auths.obj
 0001:00186660       ?Cmd_GrantAdmin_ShowAvailableAuthfiles@@YAXPAUgentity_s@@@Z 20187660 f   Lmd_Commands_Auths.obj
 0001:00186750       ?Cmd_GrantTempAdmin_ListAuths@@YAXPAUgentity_s@@0@Z 20187750 f   Lmd_Commands_Auths.obj
 0001:00186820       ?Cmd_MyAuths_DispList@@YAXPAUgentity_s@@PAUauthFileDataList_s@@@Z 20187820 f   Lmd_Commands_Auths.obj
 0001:00186920       ?Cmd_Anims_f@@YAXPAUgentity_s@@H@Z 20187920 f   Lmd_Commands_Cheats.obj
 0001:00186dc0       ?Cmd_BecomeKing_f@@YAXPAUgentity_s@@H@Z 20187dc0 f   Lmd_Commands_Cheats.obj
 0001:00186e60       ?Cmd_BotWPRender_f@@YAXPAUgentity_s@@H@Z 20187e60 f   Lmd_Commands_Cheats.obj
 0001:00186ef0       ?Cmd_Dragon_f@@YAXPAUgentity_s@@H@Z 20187ef0 f   Lmd_Commands_Cheats.obj
 0001:001871d0       ?Cmd_Drop_f@@YAXPAUgentity_s@@H@Z 201881d0 f   Lmd_Commands_Cheats.obj
 0001:00187290       ?Cmd_DataFlag_f@@YAXPAUgentity_s@@H@Z 20188290 f   Lmd_Commands_Cheats.obj
 0001:001873b0       ?Cmd_Gravity_f@@YAXPAUgentity_s@@H@Z 201883b0 f   Lmd_Commands_Cheats.obj
 0001:00187660       ?Cmd_Invisible_f@@YAXPAUgentity_s@@H@Z 20188660 f   Lmd_Commands_Cheats.obj
 0001:001877d0       ?Cmd_KillOther_f@@YAXPAUgentity_s@@H@Z 201887d0 f   Lmd_Commands_Cheats.obj
 0001:00187f90       ?Cmd_Noclip_f@@YAXPAUgentity_s@@H@Z 20188f90 f   Lmd_Commands_Cheats.obj
 0001:00188080       ?Cmd_PlayFX_f@@YAXPAUgentity_s@@H@Z 20189080 f   Lmd_Commands_Cheats.obj
 0001:001880f0       ?Cmd_PlayMusic_f@@YAXPAUgentity_s@@H@Z 201890f0 f   Lmd_Commands_Cheats.obj
 0001:00188130       ?Cmd_PlaySnd_f@@YAXPAUgentity_s@@H@Z 20189130 f   Lmd_Commands_Cheats.obj
 0001:00188180       ?Cmd_Powerup_f@@YAXPAUgentity_s@@H@Z 20189180 f   Lmd_Commands_Cheats.obj
 0001:00188290       ?Cmd_Scale_f@@YAXPAUgentity_s@@H@Z 20189290 f   Lmd_Commands_Cheats.obj
 0001:00188480       ?Cmd_Shield_f@@YAXPAUgentity_s@@H@Z 20189480 f   Lmd_Commands_Cheats.obj
 0001:001885a0       ?Cmd_ShowHealth_f@@YAXPAUgentity_s@@H@Z 201895a0 f   Lmd_Commands_Cheats.obj
 0001:001886a0       ?Cmd_Speed_f@@YAXPAUgentity_s@@H@Z 201896a0 f   Lmd_Commands_Cheats.obj
 0001:00188950       ?Cmd_HidePing_f@@YAXPAUgentity_s@@H@Z 20189950 f   Lmd_Commands_Cheats.obj
 0001:00188a60       ?Cmd_FakeIP_f@@YAXPAUgentity_s@@H@Z 20189a60 f   Lmd_Commands_Cheats.obj
 0001:00188ae0       ?Cmd_Help_ListCategories@@YAXPAUgentity_s@@@Z 20189ae0 f   Lmd_Commands_Core.obj
 0001:00188b80       ?Cmd_Help_ListCmds@@YAHPAUgentity_s@@PAUcmdCategory_s@@@Z 20189b80 f   Lmd_Commands_Core.obj
 0001:00188c50       ?Cmd_Help_ShowCmd@@YAXPAUgentity_s@@PAUauthCmdEntry_s@@@Z 20189c50 f   Lmd_Commands_Core.obj
 0001:00188d30       ?Cmd_Help_f@@YAXPAUgentity_s@@@Z 20189d30 f   Lmd_Commands_Core.obj
 0001:00188ea0       ?Commands_GetCategory@@YAPAUcmdCategory_s@@PBD@Z 20189ea0 f   Lmd_Commands_Core.obj
 0001:00188f00       ?Commands_GetEntry@@YAPAUcmdEntry_s@@PBD@Z 20189f00 f   Lmd_Commands_Core.obj
 0001:00188f80       ?Commands_Init@@YAXXZ      20189f80 f   Lmd_Commands_Core.obj
 0001:00188ff0       ?Commands_PlayerCanUseCommand@@YAHPAUgentity_s@@PAUcmdEntry_s@@@Z 20189ff0 f   Lmd_Commands_Core.obj
 0001:001890f0       ?Commands_PlayerHasCatgory@@YAHPAUgentity_s@@PAUcmdCategory_s@@@Z 2018a0f0 f   Lmd_Commands_Core.obj
 0001:00189170       ?Commands_TryUse@@YAHPAUgentity_s@@PAUcmdEntry_s@@@Z 2018a170 f   Lmd_Commands_Core.obj
 0001:00189210       ?Lmd_Command@@YAHPAUgentity_s@@PBD@Z 2018a210 f   Lmd_Commands_Core.obj
 0001:00189460       ?lmdCmd_NPC_f@@YAXPAUgentity_s@@H@Z 2018a460 f   Lmd_Commands_NPC.obj
 0001:00189490       ?Cmd_NpcBehavior_f@@YAXPAUgentity_s@@H@Z 2018a490 f   Lmd_Commands_NPC.obj
 0001:001896d0       ?Cmd_NpcClear_f@@YAXPAUgentity_s@@H@Z 2018a6d0 f   Lmd_Commands_NPC.obj
 0001:00189880       ?Cmd_NpcFollow_f@@YAXPAUgentity_s@@H@Z 2018a880 f   Lmd_Commands_NPC.obj
 0001:00189980       ?Cmd_NpcTeam_f@@YAXPAUgentity_s@@H@Z 2018a980 f   Lmd_Commands_NPC.obj
 0001:00189bc0       ?Cmd_SetGoal_f@@YAXPAUgentity_s@@H@Z 2018abc0 f   Lmd_Commands_NPC.obj
 0001:00189e90       ?Cmd_SpawnVehicle_f@@YAXPAUgentity_s@@H@Z 2018ae90 f   Lmd_Commands_NPC.obj
 0001:00189f10       ?Disp@@YAXPAUgentity_s@@PBD@Z 2018af10 f   Lmd_Console.obj
 0001:0018a080       ?DispContiguous@@YAXPAUgentity_s@@PBD@Z 2018b080 f   Lmd_Console.obj
 0001:0018a1b0       ?DisableCoreDump@@YAXXZ    2018b1b0 f   Lmd_CrashReport.obj
 0001:0018a1d0       ?DisableStackTrace@@YAXXZ  2018b1d0 f   Lmd_CrashReport.obj
 0001:0018a1f0       ?EnableCoreDumps@@YAXXZ    2018b1f0 f   Lmd_CrashReport.obj
 0001:0018a210       ?EnableStackTrace@@YAXXZ   2018b210 f   Lmd_CrashReport.obj
 0001:0018a230       ?EnumModules@@YGHPADKPAX@Z 2018b230 f   Lmd_CrashReport.obj
 0001:0018a270       ?ExceptionName@@YAPADK@Z   2018b270 f   Lmd_CrashReport.obj
 0001:0018a5e0       ?win32_backtrace@@YAXPAU_EXCEPTION_POINTERS@@@Z 2018b5e0 f   Lmd_CrashReport.obj
 0001:0018a8d0       ?win32_deinitialize_handler@@YAXXZ 2018b8d0 f   Lmd_CrashReport.obj
 0001:0018a960       ?win32_dllinfo@@YAXXZ      2018b960 f   Lmd_CrashReport.obj
 0001:0018a9a0       ?win32_exception_handler@@YGJPAU_EXCEPTION_POINTERS@@@Z 2018b9a0 f   Lmd_CrashReport.obj
 0001:0018abb0       ?win32_exceptioninfo@@YAXPAU_EXCEPTION_POINTERS@@@Z 2018bbb0 f   Lmd_CrashReport.obj
 0001:0018ac10       ?win32_initialize_handler@@YAXXZ 2018bc10 f   Lmd_CrashReport.obj
 0001:0018ada0       ?DropCredits@@YAHPAUgentity_s@@H@Z 2018bda0 f   Lmd_Credits.obj
 0001:0018b0a0       ?GiveCredits@@YAXPAUgentity_s@@HPAD@Z 2018c0a0 f   Lmd_Credits.obj
 0001:0018b240       ?GiveExperience@@YAXPAUgentity_s@@HPAD@Z 2018c240 f   Lmd_Credits.obj
 0001:0018b3d0       ?Touch_Credits@@YAXPAUgentity_s@@0PAUtrace_t@@@Z 2018c3d0 f   Lmd_Credits.obj
 0001:0018b5f0       ?creditsByTime@@YAXPAUgentity_s@@H@Z 2018c5f0 f   Lmd_Credits.obj
 0001:0018b720       ?recallDroppedCredits@@YAHPAUgentity_s@@@Z 2018c720 f   Lmd_Credits.obj
 0001:0018b7f0       ?SP_money_dispenser@@YAXPAUgentity_s@@@Z 2018c7f0 f   Lmd_Creditshunt.obj
 0001:0018bcc0       ?SP_money_stash@@YAXPAUgentity_s@@@Z 2018ccc0 f   Lmd_Creditshunt.obj
 0001:0018c080       ?StashHolder@@YAHXZ        2018d080 f   Lmd_Creditshunt.obj
 0001:0018c110       ?TryStashGuide@@YAXPAUgentity_s@@@Z 2018d110 f   Lmd_Creditshunt.obj
 0001:0018c710       ?depositMoneyStash@@YAXPAUgentity_s@@@Z 2018d710 f   Lmd_Creditshunt.obj
 0001:0018c8e0       ?dropMoneyStash_Old@@YAXPAUgentity_s@@@Z 2018d8e0 f   Lmd_Creditshunt.obj
 0001:0018cb00       ?make_money_stash@@YAXXZ   2018db00 f   Lmd_Creditshunt.obj
 0001:0018cc00       ?moneyDisps@@YAHXZ         2018dc00 f   Lmd_Creditshunt.obj
 0001:0018ccb0       ?money_dispenser_think@@YAXPAUgentity_s@@@Z 2018dcb0 f   Lmd_Creditshunt.obj
 0001:0018cd40       ?money_dispenser_use@@YAXPAUgentity_s@@00@Z 2018dd40 f   Lmd_Creditshunt.obj
 0001:0018d360       ?money_stash_think@@YAXPAUgentity_s@@@Z 2018e360 f   Lmd_Creditshunt.obj
 0001:0018d540       ?money_stash_touch@@YAXPAUgentity_s@@0PAUtrace_t@@@Z 2018e540 f   Lmd_Creditshunt.obj
 0001:0018da10       ?resetStash@@YAXXZ         2018ea10 f   Lmd_Creditshunt.obj
 0001:0018dae0       ?thereIsAMoneyStash@@YAHXZ 2018eae0 f   Lmd_Creditshunt.obj
 0001:0018db80       ?zone_think@@YAXPAUgentity_s@@@Z 2018eb80 f   Lmd_Creditshunt.obj
 0001:0018dc50       ?Lmd_Data_AllocFileContents@@YAPADPAD@Z 2018ec50 f   Lmd_Data.obj
 0001:0018dd00       ?Lmd_Data_AutoFieldCallback_Free@@YAXPAX0@Z 2018ed00 f   Lmd_Data.obj
 0001:0018dd40       ?Lmd_Data_AutoFieldCallback_Parse@@YAHPAD0PAX1@Z 2018ed40 f   Lmd_Data.obj
 0001:0018ddb0       ?Lmd_Data_AutoFieldCallback_Write@@YA?AW4DataWriteResult_t@@PAXQADH1HPAPAX0@Z 2018edb0 f   Lmd_Data.obj
 0001:0018de50       ?Lmd_Data_DeleteFile@@YAHPAD0@Z 2018ee50 f   Lmd_Data.obj
 0001:0018dfc0       ?Lmd_Data_FreeFields@@YAXPAXQBUDataField_s@@H@Z 2018efc0 f   Lmd_Data.obj
 0001:0018e040       ?Lmd_Data_GetDataPath@@YAPADPAD0H@Z 2018f040 f   Lmd_Data.obj
 0001:0018e0b0       ?Lmd_Data_IsCleanPath@@YAHPAD@Z 2018f0b0 f   Lmd_Data.obj
 0001:0018e170       ?Lmd_Data_MatchField@@YAHPADPBUDataField_s@@HH@Z 2018f170 f   Lmd_Data.obj
 0001:0018e250       ?Lmd_Data_OpenDataFile@@YAHPAD0W4fsMode_t@@@Z 2018f250 f   Lmd_Data.obj
 0001:0018e330       ?Lmd_Data_ParseDatastring@@YAIPAPADP6AHPAEHPAD2@ZPAUBG_field_t@@1@Z 2018f330 f   Lmd_Data.obj
 0001:0018e4e0       ?Lmd_Data_ParseFields_Callback@@YAHPAD0PAX@Z 2018f4e0 f   Lmd_Data.obj
 0001:0018e5b0       ?Lmd_Data_ParseFields_Old@@YAIPAPADHP6AHPAEHPAD2@ZPAUBG_field_t@@1@Z 2018f5b0 f   Lmd_Data.obj
 0001:0018e600       ?Lmd_Data_ParseKeys_Old@@YAIPAPADHP6AHPAD1PAX@Z2@Z 2018f600 f   Lmd_Data.obj
 0001:0018e820       ?Lmd_Data_Parse_KeyValuePair@@YAHPAD0PAXQBUDataField_s@@H@Z 2018f820 f   Lmd_Data.obj
 0001:0018e8d0       ?Lmd_Data_Parse_LineDelimited@@YAHPAPADPAXQBUDataField_s@@H@Z 2018f8d0 f   Lmd_Data.obj
 0001:0018eaa0       ?Lmd_Data_ProcessFiles@@YAIPAD0P6AH00@ZH@Z 2018faa0 f   Lmd_Data.obj
 0001:0018ed30       ?Lmd_Data_SaveDatafile@@YAHPAD0PAUBG_field_t@@PAEP6AH200H@ZP6APAUDBSaveFileCallbackReturn_t@@2PAU2@0H0H@Z@Z 2018fd30 f   Lmd_Data.obj
 0001:0018f140       ?Lmd_Data_WriteDatafileField@@YAHPAUBG_field_t@@PADIPAE@Z 20190140 f   Lmd_Data.obj
 0001:0018f280       ?Lmd_Data_WriteDatastringField@@YAHPAUBG_field_t@@PADIPAE@Z 20190280 f   Lmd_Data.obj
 0001:0018f3c0       ?Lmd_Data_WriteToFile_LinesDelimited@@YAHHQBUDataField_s@@HPAX@Z 201903c0 f   Lmd_Data.obj
 0001:0018f610       ?Cmd_Bounds_f@@YAXPAUgentity_s@@H@Z 20190610 f   Lmd_Entities_Commands.obj
 0001:001901c0       ?Cmd_BlowUp_f@@YAXPAUgentity_s@@H@Z 201911c0 f   Lmd_Entities_Commands.obj
 0001:001902c0       ?Cmd_DelAll_f@@YAXPAUgentity_s@@H@Z 201912c0 f   Lmd_Entities_Commands.obj
 0001:00190500       ?Cmd_Delent_f@@YAXPAUgentity_s@@H@Z 20191500 f   Lmd_Entities_Commands.obj
 0001:00190710       ?Cmd_DisableEnt_f@@YAXPAUgentity_s@@H@Z 20191710 f   Lmd_Entities_Commands.obj
 0001:00190920       ?Cmd_Entitylist_f@@YAXPAUgentity_s@@H@Z 20191920 f   Lmd_Entities_Commands.obj
 0001:00190cf0       ?Cmd_GetEnt_f@@YAXPAUgentity_s@@H@Z 20191cf0 f   Lmd_Entities_Commands.obj
 0001:00191510       ?Cmd_PlayerSpawnPoint_f@@YAXPAUgentity_s@@H@Z 20192510 f   Lmd_Entities_Commands.obj
 0001:001916d0       ?Cmd_Mapents_f@@YAXPAUgentity_s@@H@Z 201926d0 f   Lmd_Entities_Commands.obj
 0001:00191ab0       ?Cmd_Nearby_f@@YAXPAUgentity_s@@H@Z 20192ab0 f   Lmd_Entities_Commands.obj
 0001:00191d30       ?Cmd_NewMap_f@@YAXPAUgentity_s@@H@Z 20192d30 f   Lmd_Entities_Commands.obj
 0001:00191d90       ?Cmd_NextMap_f@@YAXPAUgentity_s@@H@Z 20192d90 f   Lmd_Entities_Commands.obj
 0001:00191dc0       ?Cmd_Nudge_f@@YAXPAUgentity_s@@H@Z 20192dc0 f   Lmd_Entities_Commands.obj
 0001:00192340       ?Cmd_Place_f@@YAXPAUgentity_s@@H@Z 20193340 f   Lmd_Entities_Commands.obj
 0001:00192f10       ?Cmd_PlaceCannon_f@@YAXPAUgentity_s@@H@Z 20193f10 f   Lmd_Entities_Commands.obj
 0001:00192f40       ?Cmd_PlaceRandomSpot_f@@YAXPAUgentity_s@@H@Z 20193f40 f   Lmd_Entities_Commands.obj
 0001:00193040       ?Cmd_Remap_f@@YAXPAUgentity_s@@H@Z 20194040 f   Lmd_Entities_Commands.obj
 0001:00193340       ?Cmd_ShowEntities_f@@YAXPAUgentity_s@@H@Z 20194340 f   Lmd_Entities_Commands.obj
 0001:00193590       ?Cmd_Spawnstring_f@@YAXPAUgentity_s@@H@Z 20194590 f   Lmd_Entities_Commands.obj
 0001:00193d20       ?Cmd_Trace_f@@YAXPAUgentity_s@@H@Z 20194d20 f   Lmd_Entities_Commands.obj
 0001:00193e90       ?Cmd_UseEnt_f@@YAXPAUgentity_s@@H@Z 20194e90 f   Lmd_Entities_Commands.obj
 0001:00194110       ?Action_UndoDelete@@YAHPAUgentity_s@@PAUAction_s@@@Z 20195110 f   Lmd_Entities_Commands.obj
 0001:001942b0       ?Action_UndoPlace@@YAHPAUgentity_s@@PAUAction_s@@@Z 201952b0 f   Lmd_Entities_Commands.obj
 0001:001945d0       ?BlowUpEntity@@YAXPAUgentity_s@@@Z 201955d0 f   Lmd_Entities_Commands.obj
 0001:001947d0       ?Cmd_DelAll_Confirm@@YAXPAUgentity_s@@PAX@Z 201957d0 f   Lmd_Entities_Commands.obj
 0001:001948b0       ?DiagnoseBuilding@@YAXPAUgentity_s@@@Z 201958b0 f   Lmd_Entities_Commands.obj
 0001:001948d0       ?EntityMatches@@YAHPAUgentity_s@@PAD1H@Z 201958d0 f   Lmd_Entities_Commands.obj
 0001:001949a0       ?FormattedEntString@@YAPADPAUgentity_s@@@Z 201959a0 f   Lmd_Entities_Commands.obj
 0001:00194ab0       ?dispEntityInfo@@YAXPAUgentity_s@@0@Z 20195ab0 f   Lmd_Entities_Commands.obj
 0001:001953a0       ?placeinfront@@YAXPAUgentity_s@@PBD@Z 201963a0 f   Lmd_Entities_Commands.obj
 0001:00195650       ?EntitiesInBox@@YAHQBM0PAHHH@Z 20196650 f   Lmd_Entities_Core.obj
 0001:00195720       ?G_Find@@YAPAUgentity_s@@PAU1@HPBD@Z 20196720 f   Lmd_Entities_Core.obj
 0001:001957a0       ?G_InitGentity@@YAXPAUgentity_s@@@Z 201967a0 f   Lmd_Entities_Core.obj
 0001:00195890       ?G_RadiusList@@YAHQAMMPAUgentity_s@@HQAPAU1@H@Z 20196890 f   Lmd_Entities_Core.obj
 0001:00195dd0       ?GetEnt@@YAPAUgentity_s@@H@Z 20196dd0 f   Lmd_Entities_Core.obj
 0001:00195e30       ?IterateEnts@@YAPAUgentity_s@@PAU1@@Z 20196e30 f i Lmd_Entities_Core.obj
 0001:001960d0       ?CheckRestrictAll@@YAXPAUgentity_s@@@Z 201970d0 f   Lmd_Entities_Ents.obj
 0001:00196230       ?FakeBodyThink@@YAXPAUgentity_s@@@Z 20197230 f   Lmd_Entities_Ents.obj
 0001:00196360       ?FixBox@@YAXQAM00@Z        20197360 f   Lmd_Entities_Ents.obj
 0001:00196c60       ?G_FindEntityTeam@@YAHPAUgentity_s@@@Z 20197c60 f   Lmd_Entities_Ents.obj
 0001:00196ea0       ?PlayerUsableGetKeys@@YAXPAUgentity_s@@@Z 20197ea0 f   Lmd_Entities_Ents.obj
 0001:00197010       ?PlayerUseableCheck@@YAHPAUgentity_s@@0@Z 20198010 f   Lmd_Entities_Ents.obj
 0001:001973e0       ?SpawnEntModel@@YAHPAUgentity_s@@HH@Z 201983e0 f   Lmd_Entities_Ents.obj
 0001:00197bd0       ?Use_lmd_gravity@@YAXPAUgentity_s@@00@Z 20198bd0 f   Lmd_Entities_Ents.obj
 0001:00197d30       ?Use_lmd_speed@@YAXPAUgentity_s@@00@Z 20198d30 f   Lmd_Entities_Ents.obj
 0001:00197ff0       ?animate_model@@YAXPAUgentity_s@@@Z 20198ff0 f   Lmd_Entities_Ents.obj
 0001:001980f0       ?attachPlayerToBody@@YAPAUgentity_s@@PAU1@@Z 201990f0 f   Lmd_Entities_Ents.obj
 0001:00198170       ?fixpath@@YAPADPAD@Z       20199170 f   Lmd_Entities_Ents.obj
 0001:00198290       ?lmd_body@@YAXPAUgentity_s@@@Z 20199290 f   Lmd_Entities_Ents.obj
 0001:001982c0       ?lmd_body_think@@YAXPAUgentity_s@@@Z 201992c0 f   Lmd_Entities_Ents.obj
 0001:001983f0       ?lmd_chance@@YAXPAUgentity_s@@@Z 201993f0 f   Lmd_Entities_Ents.obj
 0001:00198520       ?lmd_chance_use@@YAXPAUgentity_s@@00@Z 20199520 f   Lmd_Entities_Ents.obj
 0001:00198690       ?lmd_countcheck@@YAXPAUgentity_s@@@Z 20199690 f   Lmd_Entities_Ents.obj
 0001:00198770       ?lmd_countcheck_use@@YAXPAUgentity_s@@00@Z 20199770 f   Lmd_Entities_Ents.obj
 0001:00198b90       ?lmd_cskill_compare@@YAXPAUgentity_s@@@Z 20199b90 f   Lmd_Entities_Ents.obj
 0001:00198c20       ?lmd_cskill_compare_use@@YAXPAUgentity_s@@00@Z 20199c20 f   Lmd_Entities_Ents.obj
 0001:00198d90       ?lmd_customskill@@YAXPAUgentity_s@@@Z 20199d90 f   Lmd_Entities_Ents.obj
 0001:00198e30       ?lmd_customskill_use@@YAXPAUgentity_s@@00@Z 20199e30 f   Lmd_Entities_Ents.obj
 0001:00198f50       ?lmd_door@@YAXPAUgentity_s@@@Z 20199f50 f   Lmd_Entities_Ents.obj
 0001:00199820       ?lmd_drop@@YAXPAUgentity_s@@@Z 2019a820 f   Lmd_Entities_Ents.obj
 0001:00199a60       ?lmd_drop_object_think@@YAXPAUgentity_s@@@Z 2019aa60 f   Lmd_Entities_Ents.obj
 0001:00199af0       ?lmd_drop_object_touch@@YAXPAUgentity_s@@0PAUtrace_t@@@Z 2019aaf0 f   Lmd_Entities_Ents.obj
 0001:00199b20       ?lmd_drop_object_trypickup@@YAXPAUgentity_s@@0@Z 2019ab20 f   Lmd_Entities_Ents.obj
 0001:00199d60       ?lmd_drop_object_use@@YAXPAUgentity_s@@00@Z 2019ad60 f   Lmd_Entities_Ents.obj
 0001:00199d90       ?lmd_drop_use@@YAXPAUgentity_s@@00@Z 2019ad90 f   Lmd_Entities_Ents.obj
 0001:0019a700       ?lmd_event@@YAXPAUgentity_s@@@Z 2019b700 f   Lmd_Entities_Ents.obj
 0001:0019a860       ?lmd_event_playerhurt@@YAXPAUgentity_s@@0@Z 2019b860 f   Lmd_Entities_Ents.obj
 0001:0019a880       ?lmd_event_playerkilled@@YAXPAUgentity_s@@0H@Z 2019b880 f   Lmd_Entities_Ents.obj
 0001:0019aa60       ?lmd_event_think@@YAXPAUgentity_s@@@Z 2019ba60 f   Lmd_Entities_Ents.obj
 0001:0019aec0       ?lmd_flagplayer@@YAXPAUgentity_s@@@Z 2019bec0 f   Lmd_Entities_Ents.obj
 0001:0019af20       ?lmd_flagplayer_use@@YAXPAUgentity_s@@00@Z 2019bf20 f   Lmd_Entities_Ents.obj
 0001:0019afc0       ?lmd_gate@@YAXPAUgentity_s@@@Z 2019bfc0 f   Lmd_Entities_Ents.obj
 0001:0019b020       ?lmd_gate_use@@YAXPAUgentity_s@@00@Z 2019c020 f   Lmd_Entities_Ents.obj
 0001:0019b080       ?lmd_gravity@@YAXPAUgentity_s@@@Z 2019c080 f   Lmd_Entities_Ents.obj
 0001:0019b1a0       ?lmd_interact@@YAXPAUgentity_s@@@Z 2019c1a0 f   Lmd_Entities_Ents.obj
 0001:0019b5a0       ?lmd_interact_interact@@YAXPAUgentity_s@@0@Z 2019c5a0 f   Lmd_Entities_Ents.obj
 0001:0019b840       ?lmd_interact_use@@YAXPAUgentity_s@@00@Z 2019c840 f   Lmd_Entities_Ents.obj
 0001:0019b890       ?lmd_iobject@@YAXPAUgentity_s@@@Z 2019c890 f   Lmd_Entities_Ents.obj
 0001:0019b940       ?lmd_iobject_use@@YAXPAUgentity_s@@00@Z 2019c940 f   Lmd_Entities_Ents.obj
 0001:0019b990       ?lmd_iterateplayers@@YAXPAUgentity_s@@@Z 2019c990 f   Lmd_Entities_Ents.obj
 0001:0019ba70       ?lmd_iterateplayers_use@@YAXPAUgentity_s@@00@Z 2019ca70 f   Lmd_Entities_Ents.obj
 0001:0019be50       ?lmd_light@@YAXPAUgentity_s@@@Z 2019ce50 f   Lmd_Entities_Ents.obj
 0001:0019c160       ?lmd_mover@@YAXPAUgentity_s@@@Z 2019d160 f   Lmd_Entities_Ents.obj
 0001:0019c830       ?lmd_playercheck@@YAXPAUgentity_s@@@Z 2019d830 f   Lmd_Entities_Ents.obj
 0001:0019c870       ?lmd_playercheck_use@@YAXPAUgentity_s@@00@Z 2019d870 f   Lmd_Entities_Ents.obj
 0001:0019c8e0       ?lmd_playereffect@@YAXPAUgentity_s@@@Z 2019d8e0 f   Lmd_Entities_Ents.obj
 0001:0019c990       ?lmd_playereffect_use@@YAXPAUgentity_s@@00@Z 2019d990 f   Lmd_Entities_Ents.obj
 0001:0019ccf0       ?lmd_pwterminal@@YAXPAUgentity_s@@@Z 2019dcf0 f   Lmd_Entities_Ents.obj
 0001:0019d0b0       ?lmd_pwterminal_interact@@YAXPAUgentity_s@@0@Z 2019e0b0 f   Lmd_Entities_Ents.obj
 0001:0019d1e0       ?lmd_pwterminal_use@@YAXPAUgentity_s@@00@Z 2019e1e0 f   Lmd_Entities_Ents.obj
 0001:0019d270       ?lmd_remap@@YAXPAUgentity_s@@@Z 2019e270 f   Lmd_Entities_Ents.obj
 0001:0019d3e0       ?lmd_rentterminal@@YAXPAUgentity_s@@@Z 2019e3e0 f   Lmd_Entities_Ents.obj
 0001:0019d5b0       ?lmd_rentterminal_examine@@YAXPAUgentity_s@@0@Z 2019e5b0 f   Lmd_Entities_Ents.obj
 0001:0019df00       ?lmd_rentterminal_pay@@YAHPAUgentity_s@@H0@Z 2019ef00 f   Lmd_Entities_Ents.obj
 0001:0019e770       ?lmd_rentterminal_think@@YAXPAUgentity_s@@@Z 2019f770 f   Lmd_Entities_Ents.obj
 0001:0019eb00       ?lmd_rentterminal_use@@YAXPAUgentity_s@@00@Z 2019fb00 f   Lmd_Entities_Ents.obj
 0001:0019ed00       ?lmd_restrict@@YAXPAUgentity_s@@@Z 2019fd00 f   Lmd_Entities_Ents.obj
 0001:0019ee00       ?lmd_scale@@YAXPAUgentity_s@@@Z 2019fe00 f   Lmd_Entities_Ents.obj
 0001:0019eef0       ?lmd_scale_use@@YAXPAUgentity_s@@00@Z 2019fef0 f   Lmd_Entities_Ents.obj
 0001:0019ef90       ?lmd_speed@@YAXPAUgentity_s@@@Z 2019ff90 f   Lmd_Entities_Ents.obj
 0001:0019f040       ?lmd_terminal@@YAXPAUgentity_s@@@Z 201a0040 f   Lmd_Entities_Ents.obj
 0001:0019f2f0       ?lmd_terminal_interact@@YAXPAUgentity_s@@0@Z 201a02f0 f   Lmd_Entities_Ents.obj
 0001:0019f5a0       ?lmd_terminal_use@@YAXPAUgentity_s@@00@Z 201a05a0 f   Lmd_Entities_Ents.obj
 0001:0019f830       ?lmd_toggle@@YAXPAUgentity_s@@@Z 201a0830 f   Lmd_Entities_Ents.obj
 0001:0019f920       ?lmd_train@@YAXPAUgentity_s@@@Z 201a0920 f   Lmd_Entities_Ents.obj
 0001:0019fb60       ?makeFakeBody@@YAPAUgentity_s@@PAU1@@Z 201a0b60 f   Lmd_Entities_Ents.obj
 0001:001a0670       ?removePlayerFromBody@@YAXPAUgentity_s@@@Z 201a1670 f   Lmd_Entities_Ents.obj
 0001:001a0720       ?reset_lmd_gravity@@YAXPAUgentity_s@@@Z 201a1720 f   Lmd_Entities_Ents.obj
 0001:001a0770       ?reset_lmd_speed@@YAXPAUgentity_s@@@Z 201a1770 f   Lmd_Entities_Ents.obj
 0001:001a07c0       ?sp_target_animate@@YAXPAUgentity_s@@@Z 201a17c0 f   Lmd_Entities_Ents.obj
 0001:001a08c0       ?sp_target_heal@@YAXPAUgentity_s@@@Z 201a18c0 f   Lmd_Entities_Ents.obj
 0001:001a0950       ?sp_target_modify@@YAXPAUgentity_s@@@Z 201a1950 f   Lmd_Entities_Ents.obj
 0001:001a09c0       ?target_animate_use@@YAXPAUgentity_s@@00@Z 201a19c0 f   Lmd_Entities_Ents.obj
 0001:001a0b50       ?target_heal_use@@YAXPAUgentity_s@@00@Z 201a1b50 f   Lmd_Entities_Ents.obj
 0001:001a0e50       ?target_modify_use@@YAXPAUgentity_s@@00@Z 201a1e50 f   Lmd_Entities_Ents.obj
 0001:001a0f60       ?use_lmd_body@@YAXPAUgentity_s@@00@Z 201a1f60 f   Lmd_Entities_Ents.obj
 0001:001a1210       ?use_lmd_light@@YAXPAUgentity_s@@00@Z 201a2210 f   Lmd_Entities_Ents.obj
 0001:001a1290       ?use_lmd_mover@@YAXPAUgentity_s@@00@Z 201a2290 f   Lmd_Entities_Ents.obj
 0001:001a1560       ?use_lmd_remap@@YAXPAUgentity_s@@00@Z 201a2560 f   Lmd_Entities_Ents.obj
 0001:001a1660       ?use_lmd_toggle@@YAXPAUgentity_s@@00@Z 201a2660 f   Lmd_Entities_Ents.obj
 0001:001a1820       ?Cmd_SaveGroup_f@@YAXPAUgentity_s@@H@Z 201a2820 f   Lmd_Entities_Groups.obj
 0001:001a1a40       ?Cmd_ManipGroupVec_f@@YAXPAUgentity_s@@H@Z 201a2a40 f   Lmd_Entities_Groups.obj
 0001:001a1e10       ?Cmd_DeleteGroup_f@@YAXPAUgentity_s@@H@Z 201a2e10 f   Lmd_Entities_Groups.obj
 0001:001a1f30       ?Cmd_ImportGroup_f@@YAXPAUgentity_s@@H@Z 201a2f30 f   Lmd_Entities_Groups.obj
 0001:001a22f0       ?Cmd_DeleteGroup_Confirm@@YAXPAUgentity_s@@PAX@Z 201a32f0 f   Lmd_Entities_Groups.obj
 0001:001a23b0       ?Cmd_SaveGroup_Confirm@@YAXPAUgentity_s@@PAX@Z 201a33b0 f   Lmd_Entities_Groups.obj
 0001:001a2450       ?GroupPath@@YAPADXZ        201a3450 f   Lmd_Entities_Groups.obj
 0001:001a24a0       ?Group_Center@@YAIPADHQAMH@Z 201a34a0 f   Lmd_Entities_Groups.obj
 0001:001a27e0       ?Group_Count@@YAIPADH@Z    201a37e0 f   Lmd_Entities_Groups.obj
 0001:001a2860       ?Groups_ImportFile@@YAHPAD0QAMPAUgentity_s@@@Z 201a3860 f   Lmd_Entities_Groups.obj
 0001:001a2c10       ?Groups_Modify@@YAXPADP6AXPAUSpawnData_s@@PAX@Z2PAUgentity_s@@@Z 201a3c10 f   Lmd_Entities_Groups.obj
 0001:001a2f30       ?Groups_NudgeModifier@@YAXPAUSpawnData_s@@PAX@Z 201a3f30 f   Lmd_Entities_Groups.obj
 0001:001a3150       ?Groups_RotateModifier@@YAXPAUSpawnData_s@@PAX@Z 201a4150 f   Lmd_Entities_Groups.obj
 0001:001a37f0       ?Groups_SaveFile@@YAHPAD0@Z 201a47f0 f   Lmd_Entities_Groups.obj
 0001:001a3b90       ?Lmd_logic_count@@YAHXZ    201a4b90 f   Lmd_Entities_Logical.obj
 0001:001a3bb0       ?Lmd_logic_entity@@YAPAUgentity_s@@H@Z 201a4bb0 f   Lmd_Entities_Logical.obj
 0001:001a3bf0       ?Lmd_logic_entityindex@@YAHPAUgentity_s@@@Z 201a4bf0 f   Lmd_Entities_Logical.obj
 0001:001a3c50       ?Lmd_logic_spawn@@YAPAUgentity_s@@XZ 201a4c50 f   Lmd_Entities_Logical.obj
 0001:001a3d00       ?Lmd_logic_think@@YAXXZ    201a4d00 f   Lmd_Entities_Logical.obj
 0001:001a3d80       ?getFreeSlot@@YAHXZ        201a4d80 f i Lmd_Entities_Logical.obj
 0001:001a3de0       ?ClearEntities@@YAXXZ      201a4de0 f   Lmd_Entities_Spawner.obj
 0001:001a3f30       ?ClearMap@@YAXXZ           201a4f30 f   Lmd_Entities_Spawner.obj
 0001:001a3f60       ?ImportMapDefaults@@YAPAUSpawnData_s@@XZ 201a4f60 f   Lmd_Entities_Spawner.obj
 0001:001a40d0       ?Lmd_Entites_GetSpawnstringLen@@YAIPAUSpawnData_s@@@Z 201a50d0 f   Lmd_Entities_Spawner.obj
 0001:001a4170       ?Lmd_Entities_IsSaveable@@YAHPAUgentity_s@@@Z 201a5170 f   Lmd_Entities_Spawner.obj
 0001:001a41b0       ?Lmd_Entities_SetSaveable@@YAXPAUSpawnData_s@@H@Z 201a51b0 f   Lmd_Entities_Spawner.obj
 0001:001a41d0       ?Lmd_Entities_deleteSpawnstringKey@@YAHPAUSpawnData_s@@PAD@Z 201a51d0 f   Lmd_Entities_Spawner.obj
 0001:001a4230       ?Lmd_Entities_getSpawnstring@@YAXPAUSpawnData_s@@PADH@Z 201a5230 f   Lmd_Entities_Spawner.obj
 0001:001a4310       ?Lmd_Entities_getSpawnstringKey@@YAHPAUSpawnData_s@@PAD1H@Z 201a5310 f   Lmd_Entities_Spawner.obj
 0001:001a4380       ?Lmd_Entities_getSpawnstringKeyIndex@@YAHPAUSpawnData_s@@PAD@Z 201a5380 f   Lmd_Entities_Spawner.obj
 0001:001a4400       ?Lmd_Entities_getSpawnstringKeyValue@@YAPADPAUSpawnData_s@@H@Z 201a5400 f   Lmd_Entities_Spawner.obj
 0001:001a4440       ?Lmd_Entities_setSpawnstringKey@@YAXPAUSpawnData_s@@PAD1@Z 201a5440 f   Lmd_Entities_Spawner.obj
 0001:001a44d0       ?LoadEntitiesData@@YAHPBDH@Z 201a54d0 f   Lmd_Entities_Spawner.obj
 0001:001a4900       ?LoadMapDefaults@@YAXXZ    201a5900 f   Lmd_Entities_Spawner.obj
 0001:001a49a0       ?MapEntPath@@YAPADXZ       201a59a0 f   Lmd_Entities_Spawner.obj
 0001:001a49f0       ?ParseEntityLoadstring@@YAPAUSpawnData_s@@PAD@Z 201a59f0 f   Lmd_Entities_Spawner.obj
 0001:001a4ac0       ?ParseEntitySpawnstring@@YAPAUSpawnData_s@@PAD@Z 201a5ac0 f   Lmd_Entities_Spawner.obj
 0001:001a4b00       ?SaveEntitiesData@@YAXPBD@Z 201a5b00 f   Lmd_Entities_Spawner.obj
 0001:001a4d90       ?ShutdownEntitySystem@@YAXXZ 201a5d90 f   Lmd_Entities_Spawner.obj
 0001:001a4e30       ?cloneSpawnstring@@YAPAUSpawnData_s@@PAU1@@Z 201a5e30 f   Lmd_Entities_Spawner.obj
 0001:001a4eb0       ?entityIsWorldspawn@@YAHPAUSpawnData_s@@@Z 201a5eb0 f   Lmd_Entities_Spawner.obj
 0001:001a4f20       ?getSpawnDataIndex@@YAHPAUSpawnData_s@@@Z 201a5f20 f   Lmd_Entities_Spawner.obj
 0001:001a4f80       ?getSpawnstringPairs@@YAXPAUSpawnData_s@@PAUKeyPairSet_s@@@Z 201a5f80 f   Lmd_Entities_Spawner.obj
 0001:001a4fb0       ?newMapSpawnstring@@YAPAUSpawnData_s@@XZ 201a5fb0 f   Lmd_Entities_Spawner.obj
 0001:001a5010       ?newSpawnstring@@YAPAUSpawnData_s@@XZ 201a6010 f   Lmd_Entities_Spawner.obj
 0001:001a50c0       ?removeSpawnstring@@YAXPAUSpawnData_s@@@Z 201a60c0 f   Lmd_Entities_Spawner.obj
 0001:001a51f0       ?spawnEntity@@YAPAUgentity_s@@PAU1@PAUSpawnData_s@@@Z 201a61f0 f   Lmd_Entities_Spawner.obj
 0001:001a53e0       ?spawnEntityFromData@@YAPAUgentity_s@@PAUSpawnData_s@@@Z 201a63e0 f   Lmd_Entities_Spawner.obj
 0001:001a5490       ?tryImport@@YAPAUgentity_s@@PAUKeyPairSet_s@@@Z 201a6490 f   Lmd_Entities_Spawner.obj
 0001:001a54e0       ?trySpawn@@YAPAUgentity_s@@PAD@Z 201a64e0 f   Lmd_Entities_Spawner.obj
 0001:001a5510       ?Cmd_Factions_f@@YAXPAUgentity_s@@H@Z 201a6510 f   Lmd_Factions_Old.obj
 0001:001a7af0       ?Factions_AddAnouncement@@YAHPAUFactions_s@@IPAD1@Z 201a8af0 f   Lmd_Factions_Old.obj
 0001:001a7be0       ?Factions_AddPlayer@@YAXPAUFactions_s@@PADH@Z 201a8be0 f   Lmd_Factions_Old.obj
 0001:001a7c60       ?Factions_AddRank@@YAXPAUFactions_s@@PAD1II@Z 201a8c60 f   Lmd_Factions_Old.obj
 0001:001a7d20       ?Factions_AnnouncementIsOutdated@@YAHPAUfactionMessage_s@@@Z 201a8d20 f   Lmd_Factions_Old.obj
 0001:001a7d70       ?Factions_CheckPlayerFactionProperty@@YAHHPAD@Z 201a8d70 f   Lmd_Factions_Old.obj
 0001:001a7e10       ?Factions_GetAnnouncement@@YAPAUfactionMessage_s@@PAUFactions_s@@PAD@Z 201a8e10 f   Lmd_Factions_Old.obj
 0001:001a7e90       ?Factions_GetFaction@@YAPAUFactions_s@@PAD@Z 201a8e90 f   Lmd_Factions_Old.obj
 0001:001a7ee0       ?Factions_GetFactionByTag@@YAPAUFactions_s@@PAD@Z 201a8ee0 f   Lmd_Factions_Old.obj
 0001:001a7f70       ?Factions_GetFactionIndex@@YAHPAD@Z 201a8f70 f   Lmd_Factions_Old.obj
 0001:001a7fe0       ?Factions_GetPlayerEntry@@YAPAUfactionPlayer_s@@PAUFactions_s@@H@Z 201a8fe0 f   Lmd_Factions_Old.obj
 0001:001a8050       ?Factions_GetRank@@YAPAUfactionRank_s@@PAUFactions_s@@PAD@Z 201a9050 f   Lmd_Factions_Old.obj
 0001:001a80c0       ?Factions_GetRankByTag@@YAPAUfactionRank_s@@PAUFactions_s@@PAD@Z 201a90c0 f   Lmd_Factions_Old.obj
 0001:001a8140       ?Factions_GetRankTag@@YAPADPAUFactions_s@@PAD@Z 201a9140 f   Lmd_Factions_Old.obj
 0001:001a8190       ?Factions_List@@YAXPAUgentity_s@@H@Z 201a9190 f   Lmd_Factions_Old.obj
 0001:001a8450       ?Factions_ListAnnouncements@@YAXPAUgentity_s@@PAUFactions_s@@@Z 201a9450 f   Lmd_Factions_Old.obj
 0001:001a85c0       ?Factions_ListMembers@@YAXPAUgentity_s@@PAUFactions_s@@@Z 201a95c0 f   Lmd_Factions_Old.obj
 0001:001a8780       ?Factions_ListRanks@@YAXPAUgentity_s@@PAUFactions_s@@H@Z 201a9780 f   Lmd_Factions_Old.obj
 0001:001a8910       ?Factions_Load@@YAIXZ      201a9910 f   Lmd_Factions_Old.obj
 0001:001a8950       ?Factions_LoadFile@@YAHPAD0@Z 201a9950 f   Lmd_Factions_Old.obj
 0001:001a89c0       ?Factions_Modify@@YAXPAUFactions_s@@@Z 201a99c0 f   Lmd_Factions_Old.obj
 0001:001a89f0       ?Factions_New@@YAPAUFactions_s@@PAD@Z 201a99f0 f   Lmd_Factions_Old.obj
 0001:001a8aa0       ?Factions_ParseKey@@YAHPAEHPAD1@Z 201a9aa0 f   Lmd_Factions_Old.obj
 0001:001a8ca0       ?Factions_PlayerHasAuth@@YAHPAUFactions_s@@PAUfactionPlayer_s@@I@Z 201a9ca0 f   Lmd_Factions_Old.obj
 0001:001a8cf0       ?Factions_RankString@@YAIIPADH@Z 201a9cf0 f   Lmd_Factions_Old.obj
 0001:001a8dc0       ?Factions_Remove@@YAHPAUFactions_s@@@Z 201a9dc0 f   Lmd_Factions_Old.obj
 0001:001a8ee0       ?Factions_RemoveAnnouncement@@YAHPAUFactions_s@@PAUfactionMessage_s@@@Z 201a9ee0 f   Lmd_Factions_Old.obj
 0001:001a8f80       ?Factions_RemoveOutdatedAnnouncements@@YAXPAUFactions_s@@@Z 201a9f80 f   Lmd_Factions_Old.obj
 0001:001a9000       ?Factions_RemovePlayer@@YAHPAUFactions_s@@PAUfactionPlayer_s@@@Z 201aa000 f   Lmd_Factions_Old.obj
 0001:001a9090       ?Factions_RemoveRank@@YAHPAUFactions_s@@PAUfactionRank_s@@@Z 201aa090 f   Lmd_Factions_Old.obj
 0001:001a9180       ?Factions_Save@@YAXH@Z     201aa180 f   Lmd_Factions_Old.obj
 0001:001a9210       ?Factions_SaveFaction@@YAXI@Z 201aa210 f   Lmd_Factions_Old.obj
 0001:001a9290       ?Factions_SaveMoreKeys@@YAPAUDBSaveFileCallbackReturn_t@@PAEPAU1@PADH2H@Z 201aa290 f   Lmd_Factions_Old.obj
 0001:001a9570       ?Factions_SetAuth@@YAHPAUFactions_s@@PAUfactionRank_s@@I@Z 201aa570 f   Lmd_Factions_Old.obj
 0001:001a95f0       ?Factions_SetFactionProperty@@YAHPAUFactions_s@@PAD@Z 201aa5f0 f   Lmd_Factions_Old.obj
 0001:001a9650       ?Factions_SetFactionTag@@YAHPAUFactions_s@@PAD@Z 201aa650 f   Lmd_Factions_Old.obj
 0001:001a96d0       ?Factions_SetMemberRank@@YAHPAUFactions_s@@PAUfactionPlayer_s@@PAUfactionRank_s@@@Z 201aa6d0 f   Lmd_Factions_Old.obj
 0001:001a9740       ?Factions_SetPlayerRank@@YAHPAUFactions_s@@PAUfactionPlayer_s@@PAUfactionRank_s@@@Z 201aa740 f   Lmd_Factions_Old.obj
 0001:001a9790       ?Factions_SetRankTag@@YAHPAUFactions_s@@PAUfactionRank_s@@PAD@Z 201aa790 f   Lmd_Factions_Old.obj
 0001:001a9810       ?Force_CanUsePower@@YAHPAUgentity_s@@H@Z 201aa810 f   Lmd_Force_Core.obj
 0001:001a9940       ?Force_DrainForceEnergy@@YAXPAUgentity_s@@HH@Z 201aa940 f   Lmd_Force_Core.obj
 0001:001a9980       ?Force_GetPlayerForceData@@YAPAXPAUgentity_s@@H@Z 201aa980 f   Lmd_Force_Core.obj
 0001:001a99f0       ?Force_StopPower@@YAXPAUgentity_s@@H@Z 201aa9f0 f   Lmd_Force_Core.obj
 0001:001a9ac0       ?Force_Update@@YAXPAUgentity_s@@@Z 201aaac0 f   Lmd_Force_Core.obj
 0001:001a9c10       ?Force_UsePower@@YAHPAUgentity_s@@H@Z 201aac10 f   Lmd_Force_Core.obj
 0001:001a9e70       ?Force_Lightning_Run@@YAHPAUgentity_s@@PBX@Z 201aae70 f   Lmd_Force_Dark.obj
 0001:001aaa70       ?Force_Lightning_Stop@@YAXPAUgentity_s@@PBX@Z 201aba70 f   Lmd_Force_Dark.obj
 0001:001aab10       ?Force_Rage_Available@@YAHPAUgentity_s@@PBX@Z 201abb10 f   Lmd_Force_Dark.obj
 0001:001aab50       ?Force_Rage_Start@@YAHPAUgentity_s@@PBX@Z 201abb50 f   Lmd_Force_Dark.obj
 0001:001aacc0       ?Force_Rage_Run@@YAHPAUgentity_s@@PBX@Z 201abcc0 f   Lmd_Force_Dark.obj
 0001:001aae10       ?Force_Rage_Stop@@YAXPAUgentity_s@@PBX@Z 201abe10 f   Lmd_Force_Dark.obj
 0001:001aae80       ?Force_TeamReplenish_Start@@YAHPAUgentity_s@@PBX@Z 201abe80 f   Lmd_Force_Dark.obj
 0001:001ab450       ?Force_Drain_Available@@YAHPAUgentity_s@@PBX@Z 201ac450 f   Lmd_Force_Dark.obj
 0001:001ab4c0       ?Force_Drain_Start@@YAHPAUgentity_s@@PBX@Z 201ac4c0 f   Lmd_Force_Dark.obj
 0001:001ab5c0       ?Force_Drain_Run@@YAHPAUgentity_s@@PBX@Z 201ac5c0 f   Lmd_Force_Dark.obj
 0001:001ac200       ?Force_Drain_Stop@@YAXPAUgentity_s@@PBX@Z 201ad200 f   Lmd_Force_Dark.obj
 0001:001ac290       ?Force_Grip_Available@@YAHPAUgentity_s@@PBX@Z 201ad290 f   Lmd_Force_Dark.obj
 0001:001ac300       ?Force_Grip_Start@@YAHPAUgentity_s@@PBX@Z 201ad300 f   Lmd_Force_Dark.obj
 0001:001ac860       ?Force_Grip_Run@@YAHPAUgentity_s@@PBX@Z 201ad860 f   Lmd_Force_Dark.obj
 0001:001ad720       ?Force_Grip_Stop@@YAXPAUgentity_s@@PBX@Z 201ae720 f   Lmd_Force_Dark.obj
 0001:001ad940       ?Force_Lightning_Available@@YAHPAUgentity_s@@PBX@Z 201ae940 f   Lmd_Force_Dark.obj
 0001:001ad9b0       ?Force_Lightning_Start@@YAHPAUgentity_s@@PBX@Z 201ae9b0 f   Lmd_Force_Dark.obj
 0001:001adb00       ?Force_Drain_AbsorbPower@@YAMPAUgentity_s@@0PBUforceDrain_s@@@Z 201aeb00 f   Lmd_Force_Dark.obj
 0001:001adbb0       ?Force_Drain_Damage@@YAXPAUgentity_s@@0QAM1PBUforceDrain_s@@@Z 201aebb0 f   Lmd_Force_Dark.obj
 0001:001adf20       ?Force_Grip_AbsorbPower@@YAMPAUgentity_s@@0PBUforceGrip_s@@@Z 201aef20 f   Lmd_Force_Dark.obj
 0001:001adfd0       ?Force_Grip_Distance@@YAHPAUgentity_s@@PBUforceGrip_s@@@Z 201aefd0 f   Lmd_Force_Dark.obj
 0001:001ae020       ?Force_Lightning_AbsorbPower@@YAMPAUgentity_s@@0PBUforceLightning_s@@@Z 201af020 f   Lmd_Force_Dark.obj
 0001:001ae0d0       ?Force_Lightning_Damage@@YAXPAUgentity_s@@0QAMPBUforceLightning_s@@@Z 201af0d0 f   Lmd_Force_Dark.obj
 0001:001ae4c0       ?Force_Protect_Stop@@YAXPAUgentity_s@@PBX@Z 201af4c0 f   Lmd_Force_Light.obj
 0001:001ae500       ?Force_Absorb_Start@@YAHPAUgentity_s@@PBX@Z 201af500 f   Lmd_Force_Light.obj
 0001:001ae620       ?Force_Absorb_Run@@YAHPAUgentity_s@@PBX@Z 201af620 f   Lmd_Force_Light.obj
 0001:001ae6d0       ?Force_Absorb_Stop@@YAXPAUgentity_s@@PBX@Z 201af6d0 f   Lmd_Force_Light.obj
 0001:001ae710       ?Force_TeamHeal_Start@@YAHPAUgentity_s@@PBX@Z 201af710 f   Lmd_Force_Light.obj
 0001:001aed80       ?Force_Heal_Available@@YAHPAUgentity_s@@PBX@Z 201afd80 f   Lmd_Force_Light.obj
 0001:001aedd0       ?Force_Heal_Start@@YAHPAUgentity_s@@PBX@Z 201afdd0 f   Lmd_Force_Light.obj
 0001:001aeea0       ?Force_Telepathy_Available@@YAHPAUgentity_s@@PBX@Z 201afea0 f   Lmd_Force_Light.obj
 0001:001aef50       ?Force_Telepathy_Start@@YAHPAUgentity_s@@PBX@Z 201aff50 f   Lmd_Force_Light.obj
 0001:001af8a0       ?Force_Telepathy_Stop@@YAXPAUgentity_s@@PBX@Z 201b08a0 f   Lmd_Force_Light.obj
 0001:001af940       ?Force_Protect_Start@@YAHPAUgentity_s@@PBX@Z 201b0940 f   Lmd_Force_Light.obj
 0001:001afa70       ?Force_Protect_Run@@YAHPAUgentity_s@@PBX@Z 201b0a70 f   Lmd_Force_Light.obj
 0001:001afb20       ?ForceTelepathyCheckDirectNPCTarget@@YAHPAUgentity_s@@PAUtrace_t@@PAHPBUforceTelepathy_s@@@Z 201b0b20 f   Lmd_Force_Light.obj
 0001:001b0430       ?Force_Protect_ModifyDamage@@YAHPAUgentity_s@@H@Z 201b1430 f   Lmd_Force_Light.obj
 0001:001b06f0       ?WP_AddAsMindtricked@@YAXPAUforcedata_s@@H@Z 201b16f0 f   Lmd_Force_Light.obj
 0001:001b07d0       ?Force_Push_Start@@YAHPAUgentity_s@@PBX@Z 201b17d0 f   Lmd_Force_Neutral.obj
 0001:001b0800       ?Force_Pull_Start@@YAHPAUgentity_s@@PBX@Z 201b1800 f   Lmd_Force_Neutral.obj
 0001:001b0830       ?Force_See_Start@@YAHPAUgentity_s@@PBX@Z 201b1830 f   Lmd_Force_Neutral.obj
 0001:001b0900       ?Force_See_Stop@@YAXPAUgentity_s@@PBX@Z 201b1900 f   Lmd_Force_Neutral.obj
 0001:001b0940       ?Force_Levitation_Available@@YAHPAUgentity_s@@PBX@Z 201b1940 f   Lmd_Force_Neutral.obj
 0001:001b09a0       ?Force_Levitation_Start@@YAHPAUgentity_s@@PBX@Z 201b19a0 f   Lmd_Force_Neutral.obj
 0001:001b0bb0       ?Force_Levitation_Run@@YAHPAUgentity_s@@PBX@Z 201b1bb0 f   Lmd_Force_Neutral.obj
 0001:001b0c10       ?Force_Speed_Start@@YAHPAUgentity_s@@PBX@Z 201b1c10 f   Lmd_Force_Neutral.obj
 0001:001b0cc0       ?Force_Speed_Stop@@YAXPAUgentity_s@@PBX@Z 201b1cc0 f   Lmd_Force_Neutral.obj
 0001:001b0d00       ?Force_Throw_Available@@YAHPAUgentity_s@@PBX@Z 201b1d00 f   Lmd_Force_Neutral.obj
 0001:001b0ee0       ?Force_Throw_AbsorbPower@@YAMPAUgentity_s@@0PBUforceThrow_s@@H@Z 201b1ee0 f   Lmd_Force_Neutral.obj
 0001:001b0fd0       ?Force_Throw_BreakGrip@@YAHPAUgentity_s@@H0@Z 201b1fd0 f   Lmd_Force_Neutral.obj
 0001:001b1060       ?Force_Throw_CanCounter@@YAHPAUgentity_s@@0H@Z 201b2060 f   Lmd_Force_Neutral.obj
 0001:001b13e0       ?Force_Throw_Client@@YAXPAUgentity_s@@0HHPBUforceThrow_s@@@Z 201b23e0 f   Lmd_Force_Neutral.obj
 0001:001b22a0       ?Force_Throw_Entity@@YAXPAUgentity_s@@QAM0IHPBUforceThrow_s@@@Z 201b32a0 f   Lmd_Force_Neutral.obj
 0001:001b34c0       ?Force_Throw_IsThrowable@@YAHPAUgentity_s@@H@Z 201b44c0 f   Lmd_Force_Neutral.obj
 0001:001b3850       ?Force_Throw_PushPower@@YAHPAUgentity_s@@H@Z 201b4850 f   Lmd_Force_Neutral.obj
 0001:001b38f0       ?Force_Throw_Start@@YAXPAUgentity_s@@HPBUforceThrow_s@@@Z 201b48f0 f   Lmd_Force_Neutral.obj
 0001:001b5400       ?WP_GetVelocityForForceJump@@YAHPAUgentity_s@@QAMPAUusercmd_s@@@Z 201b6400 f   Lmd_Force_Neutral.obj
 0001:001b5a00       ?Accounts_Inventory_Parse@@YAHPAD0PAX1@Z 201b6a00 f   Lmd_Inventory_Core.obj
 0001:001b5b20       ?Accounts_Inventory_Write@@YA?AW4DataWriteResult_t@@PAXQADH1HPAPAX0@Z 201b6b20 f   Lmd_Inventory_Core.obj
 0001:001b5c90       ?Accounts_Inventory_Free@@YAXPAX@Z 201b6c90 f   Lmd_Inventory_Core.obj
 0001:001b5d00       ?Accounts_Inventory_Register@@YAXXZ 201b6d00 f   Lmd_Inventory_Core.obj
 0001:001b5d30       ?Cmd_Inventory_Delete@@YAXPAUgentity_s@@PAUiObjectList_s@@H@Z 201b6d30 f   Lmd_Inventory_Core.obj
 0001:001b60a0       ?Cmd_Inventory_Delete_Item_Confirm@@YAXPAUgentity_s@@PAX@Z 201b70a0 f   Lmd_Inventory_Core.obj
 0001:001b6130       ?Cmd_Inventory_Delete_Type_Confirm@@YAXPAUgentity_s@@PAX@Z 201b7130 f   Lmd_Inventory_Core.obj
 0001:001b6230       ?Cmd_Inventory_List@@YAXPAUgentity_s@@PAUiObjectList_s@@H@Z 201b7230 f   Lmd_Inventory_Core.obj
 0001:001b6520       ?Cmd_Inventory_ListCatagory@@YAXPAUgentity_s@@PAUiObjectList_s@@PAUiObjectCatagory_s@@PADPAH4@Z 201b7520 f   Lmd_Inventory_Core.obj
 0001:001b6730       ?Cmd_Inventory_Use@@YAXPAUgentity_s@@PAUiObjectList_s@@H@Z 201b7730 f   Lmd_Inventory_Core.obj
 0001:001b69b0       ?Cmd_Inventory_f@@YAXPAUgentity_s@@H@Z 201b79b0 f   Lmd_Inventory_Core.obj
 0001:001b6b60       ?Inventory_AddObject@@YAHPAUiObjectList_s@@PAUiObject_s@@@Z 201b7b60 f   Lmd_Inventory_Core.obj
 0001:001b6be0       ?Inventory_CheckCombine@@YAHPAUiObjectList_s@@PAUiObject_s@@@Z 201b7be0 f   Lmd_Inventory_Core.obj
 0001:001b6c70       ?Inventory_ClearAccounts@@YAXXZ 201b7c70 f   Lmd_Inventory_Core.obj
 0001:001b6d40       ?Inventory_DeleteObject@@YAHPAUiObject_s@@@Z 201b7d40 f   Lmd_Inventory_Core.obj
 0001:001b6d90       ?Inventory_DestroyObject@@YAHPAUiObject_s@@@Z 201b7d90 f   Lmd_Inventory_Core.obj
 0001:001b6df0       ?Inventory_FreeObject@@YAXPAUiObject_s@@@Z 201b7df0 f   Lmd_Inventory_Core.obj
 0001:001b6e80       ?Inventory_GetCategory@@YAPAUiObjectCatagory_s@@PAD@Z 201b7e80 f   Lmd_Inventory_Core.obj
 0001:001b6ee0       ?Inventory_GetObjectDef@@YAPAUiObjectDef_s@@PADPAPAUiObjectCatagory_s@@@Z 201b7ee0 f   Lmd_Inventory_Core.obj
 0001:001b6f80       ?Inventory_Holder_LooseObject@@YAHPAUiObject_s@@@Z 201b7f80 f   Lmd_Inventory_Core.obj
 0001:001b7000       ?Inventory_Holder_RemoveObject@@YAXPAUiObject_s@@@Z 201b8000 f   Lmd_Inventory_Core.obj
 0001:001b7050       ?Inventory_LoadObject@@YAPAUiObject_s@@PAUiObjectDef_s@@PAD@Z 201b8050 f   Lmd_Inventory_Core.obj
 0001:001b70e0       ?Inventory_NewObject@@YAPAUiObject_s@@PAUiObjectDef_s@@@Z 201b80e0 f   Lmd_Inventory_Core.obj
 0001:001b7170       ?Inventory_Player_AquireItem@@YAHPAUgentity_s@@PAUiObject_s@@@Z 201b8170 f   Lmd_Inventory_Core.obj
 0001:001b7260       ?Inventory_Player_GetInventory@@YAPAUiObjectList_s@@PAUgentity_s@@@Z 201b8260 f   Lmd_Inventory_Core.obj
 0001:001b72c0       ?Inventory_Player_Login@@YAXPAUgentity_s@@@Z 201b82c0 f   Lmd_Inventory_Core.obj
 0001:001b7340       ?Inventory_Player_Logout@@YAXPAUgentity_s@@@Z 201b8340 f   Lmd_Inventory_Core.obj
 0001:001b73c0       ?Inventory_Player_Modify@@YAXPAUgentity_s@@@Z 201b83c0 f   Lmd_Inventory_Core.obj
 0001:001b7400       ?Inventory_Player_Think@@YAXPAUgentity_s@@@Z 201b8400 f   Lmd_Inventory_Core.obj
 0001:001b74c0       ?Inventory_RemoveObject@@YAXPAUiObject_s@@@Z 201b84c0 f   Lmd_Inventory_Core.obj
 0001:001b75d0       ?Inventory_RunSpawner@@YAHPAUgentity_s@@0@Z 201b85d0 f   Lmd_Inventory_Core.obj
 0001:001b7670       ?Inventory_SetupSpawner@@YAHPAUgentity_s@@@Z 201b8670 f   Lmd_Inventory_Core.obj
 0001:001b78d0       ?Inventory_SpawnObject@@YAXPAUiObject_s@@@Z 201b88d0 f   Lmd_Inventory_Core.obj
 0001:001b7910       ?Inventory_TryCombine@@YAHPAUiObject_s@@0@Z 201b8910 f   Lmd_Inventory_Core.obj
 0001:001b7b90       ?Inventory_WriteObject@@YAXPAUiObject_s@@PADI@Z 201b8b90 f   Lmd_Inventory_Core.obj
 0001:001b7cf0       ?Item_Ammopack_Spawn@@YAXPAUiObject_s@@@Z 201b8cf0 f   Lmd_Inventory_General.obj
 0001:001b7d20       ?Item_Test_Spawn@@YAXPAUiObject_s@@@Z 201b8d20 f   Lmd_Inventory_General.obj
 0001:001b7d40       ?Item_Medpack_Spawn@@YAXPAUiObject_s@@@Z 201b8d40 f   Lmd_Inventory_General.obj
 0001:001b7d70       ?Item_Weaponpack_Spawn@@YAXPAUiObject_s@@@Z 201b8d70 f   Lmd_Inventory_General.obj
 0001:001b7da0       ?Item_Ammopack_Describe@@YAXPAUiObject_s@@PADI@Z 201b8da0 f   Lmd_Inventory_General.obj
 0001:001b7f30       ?Item_Ammopack_Use@@YAXPAUiObject_s@@@Z 201b8f30 f   Lmd_Inventory_General.obj
 0001:001b86b0       ?Item_Madpack_Combine@@YAHPAUiObject_s@@0@Z 201b96b0 f   Lmd_Inventory_General.obj
 0001:001b8760       ?Item_Medpack_Describe@@YAXPAUiObject_s@@PADI@Z 201b9760 f   Lmd_Inventory_General.obj
 0001:001b8870       ?Item_Medpack_Use@@YAXPAUiObject_s@@@Z 201b9870 f   Lmd_Inventory_General.obj
 0001:001b8be0       ?Item_Test_Use@@YAXPAUiObject_s@@@Z 201b9be0 f   Lmd_Inventory_General.obj
 0001:001b8c50       ?Item_Weaponpack_Describe@@YAXPAUiObject_s@@PADI@Z 201b9c50 f   Lmd_Inventory_General.obj
 0001:001b8dd0       ?Item_Weaponpack_Use@@YAXPAUiObject_s@@@Z 201b9dd0 f   Lmd_Inventory_General.obj
 0001:001b9370       ?Item_UpCount_Spawn@@YAXPAUiObject_s@@@Z 201ba370 f   Lmd_Inventory_Quest.obj
 0001:001b93c0       ?Item_DownCount_Spawn@@YAXPAUiObject_s@@@Z 201ba3c0 f   Lmd_Inventory_Quest.obj
 0001:001b9490       ?Inventory_Quest_CheckAccess@@YAHPAUgentity_s@@PAD@Z 201ba490 f   Lmd_Inventory_Quest.obj
 0001:001b94f0       ?Inventory_Quest_DownCount_CheckAccess@@YAHPAUgentity_s@@PAD@Z 201ba4f0 f   Lmd_Inventory_Quest.obj
 0001:001b9620       ?Inventory_Quest_UpCount_CheckAccess@@YAHPAUgentity_s@@PAD@Z 201ba620 f   Lmd_Inventory_Quest.obj
 0001:001b9700       ?Item_DownCount_Combine@@YAHPAUiObject_s@@0@Z 201ba700 f   Lmd_Inventory_Quest.obj
 0001:001b97d0       ?Item_DownCount_Describe@@YAXPAUiObject_s@@PADI@Z 201ba7d0 f   Lmd_Inventory_Quest.obj
 0001:001b98c0       ?Item_UpCount_Combine@@YAHPAUiObject_s@@0@Z 201ba8c0 f   Lmd_Inventory_Quest.obj
 0001:001b9940       ?Item_UpCount_Describe@@YAXPAUiObject_s@@PADI@Z 201ba940 f   Lmd_Inventory_Quest.obj
 0001:001b99a0       ?Cmd_PlayerIPs_f@@YAXPAUgentity_s@@H@Z 201ba9a0 f   Lmd_IPs.obj
 0001:001b9ca0       ?Cmd_FindIP_f@@YAXPAUgentity_s@@H@Z 201baca0 f   Lmd_IPs.obj
 0001:001b9d70       ?Cmd_ListIPs_f@@YAXPAUgentity_s@@H@Z 201bad70 f   Lmd_IPs.obj
 0001:001ba090       ?Cmd_FindIP_FindName@@YAXPAUgentity_s@@PAD@Z 201bb090 f   Lmd_IPs.obj
 0001:001ba2a0       ?Cmd_FindIP_ListNames@@YAXPAUgentity_s@@QAE@Z 201bb2a0 f   Lmd_IPs.obj
 0001:001ba3d0       ?Lmd_HostnameIsValid@@YAHPAD@Z 201bb3d0 f   Lmd_IPs.obj
 0001:001ba5b0       ?Lmd_IPs_AddAccount@@YAXQAEH@Z 201bb5b0 f   Lmd_IPs.obj
 0001:001ba6c0       ?Lmd_IPs_AddName@@YAXQAEPAD@Z 201bb6c0 f   Lmd_IPs.obj
 0001:001ba830       ?Lmd_IPs_CheckUpdatedHostnames@@YAXXZ 201bb830 f   Lmd_IPs.obj
 0001:001baa20       ?Lmd_IPs_CompareIP@@YAHQAE0@Z 201bba20 f   Lmd_IPs.obj
 0001:001baab0       ?Lmd_IPs_CreateIPData@@YAPAUIPData_s@@QAE@Z 201bbab0 f   Lmd_IPs.obj
 0001:001bab30       ?Lmd_IPs_GetHostname@@YAPADQAE@Z 201bbb30 f   Lmd_IPs.obj
 0001:001baba0       ?Lmd_IPs_GetIPData@@YAPAUIPData_s@@QAE@Z 201bbba0 f   Lmd_IPs.obj
 0001:001babf0       ?Lmd_IPs_GetIPIndex@@YAHQAE@Z 201bbbf0 f   Lmd_IPs.obj
 0001:001bac60       ?Lmd_IPs_IPToString@@YAPADQAE@Z 201bbc60 f   Lmd_IPs.obj
 0001:001bad20       ?Lmd_IPs_IdentifyHostname@@YAXQAE@Z 201bbd20 f   Lmd_IPs.obj
 0001:001bad70       ?Lmd_IPs_IdentifyHostnameByData@@YAXPAUIPData_s@@@Z 201bbd70 f   Lmd_IPs.obj
 0001:001bade0       ?Lmd_IPs_IdentifyHostnameCall@@YAIPAUIPData_s@@@Z 201bbde0 f   Lmd_IPs.obj
 0001:001bae50       ?Lmd_IPs_Init@@YAXXZ       201bbe50 f   Lmd_IPs.obj
 0001:001baec0       ?Lmd_IPs_ParseIP@@YAHPADQAE@Z 201bbec0 f   Lmd_IPs.obj
 0001:001bb090       ?Lmd_IPs_QueryHostname@@YAPADQAE@Z 201bc090 f   Lmd_IPs.obj
 0001:001bb170       ?Lmd_IPs_Run@@YAXXZ        201bc170 f   Lmd_IPs.obj
 0001:001bb240       ?Lmd_IPs_SetPlayerIP@@YAXPAUgclient_s@@QAE@Z 201bc240 f   Lmd_IPs.obj
 0001:001bb2d0       ?Lmd_Pairs_Clear@@YAXPAUKeyPairSet_s@@@Z 201bc2d0 f   Lmd_KeyPairs.obj
 0001:001bb390       ?Lmd_Pairs_FindKey@@YAHPAUKeyPairSet_s@@PAD@Z 201bc390 f   Lmd_KeyPairs.obj
 0001:001bb400       ?Lmd_Pairs_GetKey@@YAPADPAUKeyPairSet_s@@PAD@Z 201bc400 f   Lmd_KeyPairs.obj
 0001:001bb450       ?Lmd_Pairs_Merge@@YAXPAUKeyPairSet_s@@0@Z 201bc450 f   Lmd_KeyPairs.obj
 0001:001bb4c0       ?Lmd_Pairs_New@@YAIPAUKeyPairSet_s@@PAD1@Z 201bc4c0 f   Lmd_KeyPairs.obj
 0001:001bb540       ?Lmd_Pairs_ParseDatastring@@YAXPAUKeyPairSet_s@@PAD@Z 201bc540 f   Lmd_KeyPairs.obj
 0001:001bb7f0       ?Lmd_Pairs_Remove@@YAXPAUKeyPairSet_s@@H@Z 201bc7f0 f   Lmd_KeyPairs.obj
 0001:001bb880       ?Lmd_Pairs_SetKey@@YAXPAUKeyPairSet_s@@PAD1@Z 201bc880 f   Lmd_KeyPairs.obj
 0001:001bb910       ?Lmd_Pairs_ToDatastring@@YAPADPAUKeyPairSet_s@@@Z 201bc910 f   Lmd_KeyPairs.obj
 0001:001bbbe0       ?BecomeCommoner@@YAXPAUgentity_s@@@Z 201bcbe0 f   Lmd_King.obj
 0001:001bbd10       ?BecomeKing@@YAXPAUgentity_s@@@Z 201bcd10 f   Lmd_King.obj
 0001:001bbf60       ?CalcScore@@YAXPAUgentity_s@@0@Z 201bcf60 f   Lmd_King.obj
 0001:001bc680       ?Chicken@@YAXPAUgentity_s@@@Z 201bd680 f   Lmd_King.obj
 0001:001bc9a0       ?GetKing@@YAPAUgentity_s@@XZ 201bd9a0 f   Lmd_King.obj
 0001:001bca10       ?IsKing@@YAHPAUgentity_s@@@Z 201bda10 f   Lmd_King.obj
 0001:001bca80       ?RevertKing@@YAXPAUgentity_s@@@Z 201bda80 f   Lmd_King.obj
 0001:001bcb90       ?ThereIsAKing@@YAHXZ       201bdb90 f   Lmd_King.obj
 0001:001bcbf0       ?UndoScore@@YAXPAUgentity_s@@@Z 201bdbf0 f   Lmd_King.obj
 0001:001bcd50       ?checkKingTimer@@YAXPAUgentity_s@@@Z 201bdd50 f   Lmd_King.obj
 0001:001bcea0       ?listWorthy@@YAXPAUgentity_s@@@Z 201bdea0 f   Lmd_King.obj
 0001:001bd0e0       ?scoring@@YAHHH@Z          201be0e0 f   Lmd_King.obj
 0001:001bd190       ?showWinLose@@YAPADPAUgentity_s@@0@Z 201be190 f   Lmd_King.obj
 0001:001bd260       ?winlose@@YAPADHH@Z        201be260 f   Lmd_King.obj
 0001:001bd2f0       ?Cmd_AddLocation_f@@YAXPAUgentity_s@@H@Z 201be2f0 f   Lmd_Locations.obj
 0001:001bd410       ?Cmd_Position_f@@YAXPAUgentity_s@@H@Z 201be410 f   Lmd_Locations.obj
 0001:001bd680       ?Cmd_botReportLocation@@YAXPAUbot_state_s@@PAUgentity_s@@@Z 201be680 f   Lmd_Locations.obj
 0001:001bdba0       ?Cmd_botStatus_f@@YAXXZ    201beba0 f   Lmd_Locations.obj
 0001:001bdff0       ?CreateNewLC_FromObject@@YAXPAUlcobject_s@@@Z 201beff0 f   Lmd_Locations.obj
 0001:001be240       ?LoadLocationData@@YAHXZ   201bf240 f   Lmd_Locations.obj
 0001:001be7a0       ?SaveLocationData@@YAHXZ   201bf7a0 f   Lmd_Locations.obj
 0001:001be930       ?Lmd_PlayerThink@@YAXPAUgentity_s@@@Z 201bf930 f   Lmd_Main.obj
 0001:001bec20       ?Lmd_RunFrame@@YAXXZ       201bfc20 f   Lmd_Main.obj
 0001:001bec60       ?Lmd_Shutdown@@YAXXZ       201bfc60 f   Lmd_Main.obj
 0001:001becb0       ?Lmd_Startup@@YAXXZ        201bfcb0 f   Lmd_Main.obj
 0001:001bee00       ?G_Alloc@@YAPAXH@Z         201bfe00 f   Lmd_mem.obj
 0001:001bee60       ?G_Free@@YAXPAX@Z          201bfe60 f   Lmd_mem.obj
 0001:001bef10       ?G_InitMemory@@YAXXZ       201bff10 f   Lmd_mem.obj
 0001:001bef30       ?G_ShutdownMemory@@YAXXZ   201bff30 f   Lmd_mem.obj
 0001:001bef90       ?Mem_NewPtr@@YAPAUMemAlloc_s@@XZ 201bff90 f   Lmd_mem.obj
 0001:001bf000       ?Svcmd_GameMem_f@@YAXXZ    201c0000 f   Lmd_mem.obj
 0001:001bf070       ?LmdApi_Get_Memory@@YAPBXI@Z 201c0070 f   Lmd_API_Memory.obj
 0001:001bf0a0       ?MouseDroid_Spawn@@YAXPAUgentity_s@@@Z 201c00a0 f   Lmd_Misc.obj
 0001:001bf210       ?lmd_turret@@YAXPAUgentity_s@@@Z 201c0210 f   Lmd_Missile.obj
 0001:001bf270       ?lmd_turret_ai_think@@YAXPAUgentity_s@@@Z 201c0270 f   Lmd_Missile.obj
 0001:001bf290       ?lmd_turret_player_think@@YAXPAUgentity_s@@@Z 201c0290 f   Lmd_Missile.obj
 0001:001bf2b0       ?NextSection@@YAHPAPAD@Z   201c02b0 f   Lmd_ParseField.obj
 0001:001bf320       ?ParseField@@YAHPAPADPADDD@Z 201c0320 f   Lmd_ParseField.obj
 0001:001bf4d0       ?Cmd_Action_f@@YAXPAUgentity_s@@H@Z 201c04d0 f   Lmd_PlayerActions.obj
 0001:001bf6f0       ?PlayerActions_Add@@YAPAUAction_s@@PAUgentity_s@@PAD1P6AH0PAU1@@ZH@Z 201c06f0 f   Lmd_PlayerActions.obj
 0001:001bf850       ?PlayerActions_FindAction@@YAHPAUgentity_s@@PAD@Z 201c0850 f   Lmd_PlayerActions.obj
 0001:001bf8d0       ?PlayerActions_Remove@@YAXPAUgentity_s@@PAUAction_s@@@Z 201c08d0 f   Lmd_PlayerActions.obj
 0001:001bfa30       ?PlayerGuide_Player_Login@@YAXPAUgentity_s@@@Z 201c0a30 f   Lmd_PlayerGuide.obj
 0001:001bfa50       ?Accounts_Profs_Parse@@YAHPAD0PAX1@Z 201c0a50 f   Lmd_Prof_Core.obj
 0001:001bfbd0       ?Accounts_Profs_Write@@YA?AW4DataWriteResult_t@@PAXQADH1HPAPAX0@Z 201c0bd0 f   Lmd_Prof_Core.obj
 0001:001bfd90       ?Lmd_Prof_Alloc@@YAXPAX@Z  201c0d90 f   Lmd_Prof_Core.obj
 0001:001bfe70       ?Lmd_Prof_AccountLoaded@@YAXPAX0@Z 201c0e70 f   Lmd_Prof_Core.obj
 0001:001bff90       ?Lmd_Prof_Free@@YAXPAX@Z   201c0f90 f   Lmd_Prof_Core.obj
 0001:001bffd0       ?Cmd_SkillSelect_f@@YAXPAUgentity_s@@H@Z 201c0fd0 f   Lmd_Prof_Core.obj
 0001:001c00c0       ?Cmd_ResetSkills_f@@YAXPAUgentity_s@@H@Z 201c10c0 f   Lmd_Prof_Core.obj
 0001:001c02c0       ?Cmd_BuyLevel_f@@YAXPAUgentity_s@@H@Z 201c12c0 f   Lmd_Prof_Core.obj
 0001:001c06a0       ?Cmd_Profession_f@@YAXPAUgentity_s@@H@Z 201c16a0 f   Lmd_Prof_Core.obj
 0001:001c0840       ?Accounts_Prof_ClearData@@YAXPAUAccount_s@@@Z 201c1840 f   Lmd_Prof_Core.obj
 0001:001c0900       ?Accounts_Prof_GetFieldData@@YAPAXPAUAccount_s@@@Z 201c1900 f   Lmd_Prof_Core.obj
 0001:001c0950       ?Accounts_Prof_GetLastLevelup@@YAHPAUAccount_s@@@Z 201c1950 f   Lmd_Prof_Core.obj
 0001:001c09a0       ?Accounts_Prof_GetLevel@@YAHPAUAccount_s@@@Z 201c19a0 f   Lmd_Prof_Core.obj
 0001:001c09f0       ?Accounts_Prof_GetProfession@@YAHPAUAccount_s@@@Z 201c19f0 f   Lmd_Prof_Core.obj
 0001:001c0a40       ?Accounts_Prof_Register@@YAXXZ 201c1a40 f   Lmd_Prof_Core.obj
 0001:001c0a70       ?Accounts_Prof_SetLevel@@YAXPAUAccount_s@@H@Z 201c1a70 f   Lmd_Prof_Core.obj
 0001:001c0ad0       ?Accounts_Prof_SetModified@@YAXPAUAccount_s@@@Z 201c1ad0 f   Lmd_Prof_Core.obj
 0001:001c0b00       ?Accounts_Prof_SetProfession@@YAXPAUAccount_s@@H@Z 201c1b00 f   Lmd_Prof_Core.obj
 0001:001c0bc0       ?Cmd_BuyLevel_Confirm@@YAXPAUgentity_s@@PAX@Z 201c1bc0 f   Lmd_Prof_Core.obj
 0001:001c0c30       ?Cmd_SkillSelect@@YAXPAUgentity_s@@HPAUprofSkill_s@@H@Z 201c1c30 f   Lmd_Prof_Core.obj
 0001:001c1400       ?Cmd_SkillSelect_Level@@YAXPAUgentity_s@@HPAUprofSkill_s@@H@Z 201c2400 f   Lmd_Prof_Core.obj
 0001:001c1930       ?Cmd_SkillSelect_List@@YAXPAUgentity_s@@HPAUprofSkill_s@@@Z 201c2930 f   Lmd_Prof_Core.obj
 0001:001c1d20       ?Experience_Level_Up@@YAXPAUgentity_s@@@Z 201c2d20 f   Lmd_Prof_Core.obj
 0001:001c1fd0       ?Lmd_Prof_SkillIsAchieveable@@YAHPAUAccount_s@@HPAUprofSkill_s@@PAPAU2@@Z 201c2fd0 f   Lmd_Prof_Core.obj
 0001:001c2110       ?Lmd_Prof_SkillIsLeveled@@YAHPAUAccount_s@@HPAUprofSkill_s@@@Z 201c3110 f   Lmd_Prof_Core.obj
 0001:001c21d0       ?PlayerAcc_Prof_CanUseProfession@@YAHPAUgentity_s@@@Z 201c31d0 f   Lmd_Prof_Core.obj
 0001:001c2310       ?Prof_Init@@YAXXZ          201c3310 f   Lmd_Prof_Core.obj
 0001:001c2390       ?Profession_DisplayProfs@@YAXPAUgentity_s@@@Z 201c3390 f   Lmd_Prof_Core.obj
 0001:001c2490       ?Profession_UpdateSkillEffects@@YAXPAUgentity_s@@H@Z 201c3490 f   Lmd_Prof_Core.obj
 0001:001c24c0       ?Professions_Add_That_Amount_SkillPoints@@YAHH@Z 201c34c0 f   Lmd_Prof_Core.obj
 0001:001c2550       ?Professions_AvailableSkillPoints@@YAHPAUAccount_s@@HPAUprofSkill_s@@PAPAU2@@Z 201c3550 f   Lmd_Prof_Core.obj
 0001:001c2660       ?Professions_ChooseProf@@YAHPAUgentity_s@@H@Z 201c3660 f   Lmd_Prof_Core.obj
 0001:001c2a70       ?Professions_GetName@@YAPADH@Z 201c3a70 f   Lmd_Prof_Core.obj
 0001:001c2aa0       ?Professions_LevelCost@@YAHHHH@Z 201c3aa0 f   Lmd_Prof_Core.obj
 0001:001c2b60       ?Professions_LevelCost_EXP@@YAHHH@Z 201c3b60 f   Lmd_Prof_Core.obj
 0001:001c2c20       ?Professions_PlayerSpawn@@YAXPAUgentity_s@@@Z 201c3c20 f   Lmd_Prof_Core.obj
 0001:001c2ca0       ?Professions_SetDefaultSkills@@YAXPAUAccount_s@@H@Z 201c3ca0 f   Lmd_Prof_Core.obj
 0001:001c2ce0       ?Professions_SkillCost@@YAHPAUprofSkill_s@@H@Z 201c3ce0 f   Lmd_Prof_Core.obj
 0001:001c2da0       ?Professions_TotalSkillPoints@@YAHHH@Z 201c3da0 f   Lmd_Prof_Core.obj
 0001:001c2dd0       ?Professions_UsedSkillPoints@@YAHPAUAccount_s@@HPAUprofSkill_s@@@Z 201c3dd0 f   Lmd_Prof_Core.obj
 0001:001c2ec0       ?SetDefaultSkills@@YAXPAUAccount_s@@HPAUprofSkill_s@@@Z 201c3ec0 f   Lmd_Prof_Core.obj
 0001:001c2f60       ?SetSkillParents@@YAXPAUprofSkill_s@@@Z 201c3f60 f   Lmd_Prof_Core.obj
 0001:001c2fd0       ?Jedi_Spawn@@YAXPAUgentity_s@@@Z 201c3fd0 f   Lmd_Prof_Jedi.obj
 0001:001c3110       ?Cmd_Ionlysaber_f@@YAXPAUgentity_s@@H@Z 201c4110 f   Lmd_Prof_Jedi.obj
 0001:001c3320       ?Get_Jedi_hp_maxs_value@@YAHPAUgentity_s@@@Z 201c4320 f   Lmd_Prof_Jedi.obj
 0001:001c3410       ?Get_Jedi_mp_maxs_value@@YAHPAUgentity_s@@@Z 201c4410 f   Lmd_Prof_Jedi.obj
 0001:001c3530       ?Get_Jedi_overload_value_cap@@YAHPAUgentity_s@@H@Z 201c4530 f   Lmd_Prof_Jedi.obj
 0001:001c3620       ?Get_Jedi_overload_value_reg@@YAHPAUgentity_s@@H@Z 201c4620 f   Lmd_Prof_Jedi.obj
 0001:001c3750       ?Jedi_Count@@YAIXZ         201c4750 f   Lmd_Prof_Jedi.obj
 0001:001c3800       ?Jedi_GetAccSide@@YAHPAUAccount_s@@@Z 201c4800 f   Lmd_Prof_Jedi.obj
 0001:001c38a0       ?Jedi_GetForceRegenDebounce@@YAHPAUgentity_s@@@Z 201c48a0 f   Lmd_Prof_Jedi.obj
 0001:001c3940       ?Jedi_GetSide@@YAHPAUgentity_s@@@Z 201c4940 f   Lmd_Prof_Jedi.obj
 0001:001c3990       ?Jedi_SetupForce@@YAXPAUgentity_s@@@Z 201c4990 f   Lmd_Prof_Jedi.obj
 0001:001c3ae0       ?Lmd_Prof_Jedi_CanSetLevel@@YAHPAUAccount_s@@PAUprofSkill_s@@H@Z 201c4ae0 f   Lmd_Prof_Jedi.obj
 0001:001c3b40       ?Lmd_Prof_Jedi_CanSetSkill_Absorb@@YAHPAXPAUprofSkill_s@@H@Z 201c4b40 f   Lmd_Prof_Jedi.obj
 0001:001c3bc0       ?Lmd_Prof_Jedi_CanSetSkill_Drain@@YAHPAXPAUprofSkill_s@@H@Z 201c4bc0 f   Lmd_Prof_Jedi.obj
 0001:001c3c40       ?Lmd_Prof_Jedi_CanSetSkill_Energize@@YAHPAXPAUprofSkill_s@@H@Z 201c4c40 f   Lmd_Prof_Jedi.obj
 0001:001c3cc0       ?Lmd_Prof_Jedi_CanSetSkill_Grip@@YAHPAXPAUprofSkill_s@@H@Z 201c4cc0 f   Lmd_Prof_Jedi.obj
 0001:001c3d40       ?Lmd_Prof_Jedi_CanSetSkill_Heal@@YAHPAXPAUprofSkill_s@@H@Z 201c4d40 f   Lmd_Prof_Jedi.obj
 0001:001c3dc0       ?Lmd_Prof_Jedi_CanSetSkill_Jump@@YAHPAXPAUprofSkill_s@@H@Z 201c4dc0 f   Lmd_Prof_Jedi.obj
 0001:001c3e40       ?Lmd_Prof_Jedi_CanSetSkill_Lightning@@YAHPAXPAUprofSkill_s@@H@Z 201c4e40 f   Lmd_Prof_Jedi.obj
 0001:001c3ec0       ?Lmd_Prof_Jedi_CanSetSkill_MindTrick@@YAHPAXPAUprofSkill_s@@H@Z 201c4ec0 f   Lmd_Prof_Jedi.obj
 0001:001c3f40       ?Lmd_Prof_Jedi_CanSetSkill_Protect@@YAHPAXPAUprofSkill_s@@H@Z 201c4f40 f   Lmd_Prof_Jedi.obj
 0001:001c3fc0       ?Lmd_Prof_Jedi_CanSetSkill_Pull@@YAHPAXPAUprofSkill_s@@H@Z 201c4fc0 f   Lmd_Prof_Jedi.obj
 0001:001c4040       ?Lmd_Prof_Jedi_CanSetSkill_Push@@YAHPAXPAUprofSkill_s@@H@Z 201c5040 f   Lmd_Prof_Jedi.obj
 0001:001c40c0       ?Lmd_Prof_Jedi_CanSetSkill_Rage@@YAHPAXPAUprofSkill_s@@H@Z 201c50c0 f   Lmd_Prof_Jedi.obj
 0001:001c4140       ?Lmd_Prof_Jedi_CanSetSkill_Saber_Attack@@YAHPAXPAUprofSkill_s@@H@Z 201c5140 f   Lmd_Prof_Jedi.obj
 0001:001c41c0       ?Lmd_Prof_Jedi_CanSetSkill_Saber_Defend@@YAHPAXPAUprofSkill_s@@H@Z 201c51c0 f   Lmd_Prof_Jedi.obj
 0001:001c4240       ?Lmd_Prof_Jedi_CanSetSkill_Saber_Throw@@YAHPAXPAUprofSkill_s@@H@Z 201c5240 f   Lmd_Prof_Jedi.obj
 0001:001c42c0       ?Lmd_Prof_Jedi_CanSetSkill_Seeing@@YAHPAXPAUprofSkill_s@@H@Z 201c52c0 f   Lmd_Prof_Jedi.obj
 0001:001c4340       ?Lmd_Prof_Jedi_CanSetSkill_Speed@@YAHPAXPAUprofSkill_s@@H@Z 201c5340 f   Lmd_Prof_Jedi.obj
 0001:001c43c0       ?Lmd_Prof_Jedi_CanSetSkill_TeamHeal@@YAHPAXPAUprofSkill_s@@H@Z 201c53c0 f   Lmd_Prof_Jedi.obj
 0001:001c4440       ?Lmd_Prof_Jedi_CanSetSkill_hp_maxs@@YAHPAXPAUprofSkill_s@@H@Z 201c5440 f   Lmd_Prof_Jedi.obj
 0001:001c44c0       ?Lmd_Prof_Jedi_CanSetSkill_mp_maxs@@YAHPAXPAUprofSkill_s@@H@Z 201c54c0 f   Lmd_Prof_Jedi.obj
 0001:001c4540       ?Lmd_Prof_Jedi_CanSetSkill_overload@@YAHPAXPAUprofSkill_s@@H@Z 201c5540 f   Lmd_Prof_Jedi.obj
 0001:001c45c0       ?Lmd_Prof_Jedi_CanSetSkill_thousandcuts@@YAHPAXPAUprofSkill_s@@H@Z 201c55c0 f   Lmd_Prof_Jedi.obj
 0001:001c4640       ?Lmd_Prof_Jedi_GetLevel@@YAHPAUAccount_s@@PAUprofSkill_s@@@Z 201c5640 f   Lmd_Prof_Jedi.obj
 0001:001c4680       ?Lmd_Prof_Jedi_GetSkill_Absorb@@YAHPAXPAUprofSkill_s@@@Z 201c5680 f   Lmd_Prof_Jedi.obj
 0001:001c46f0       ?Lmd_Prof_Jedi_GetSkill_Drain@@YAHPAXPAUprofSkill_s@@@Z 201c56f0 f   Lmd_Prof_Jedi.obj
 0001:001c4760       ?Lmd_Prof_Jedi_GetSkill_Energize@@YAHPAXPAUprofSkill_s@@@Z 201c5760 f   Lmd_Prof_Jedi.obj
 0001:001c47d0       ?Lmd_Prof_Jedi_GetSkill_Grip@@YAHPAXPAUprofSkill_s@@@Z 201c57d0 f   Lmd_Prof_Jedi.obj
 0001:001c4840       ?Lmd_Prof_Jedi_GetSkill_Heal@@YAHPAXPAUprofSkill_s@@@Z 201c5840 f   Lmd_Prof_Jedi.obj
 0001:001c48b0       ?Lmd_Prof_Jedi_GetSkill_Jump@@YAHPAXPAUprofSkill_s@@@Z 201c58b0 f   Lmd_Prof_Jedi.obj
 0001:001c4920       ?Lmd_Prof_Jedi_GetSkill_Lightning@@YAHPAXPAUprofSkill_s@@@Z 201c5920 f   Lmd_Prof_Jedi.obj
 0001:001c4990       ?Lmd_Prof_Jedi_GetSkill_MindTrick@@YAHPAXPAUprofSkill_s@@@Z 201c5990 f   Lmd_Prof_Jedi.obj
 0001:001c4a00       ?Lmd_Prof_Jedi_GetSkill_Protect@@YAHPAXPAUprofSkill_s@@@Z 201c5a00 f   Lmd_Prof_Jedi.obj
 0001:001c4a70       ?Lmd_Prof_Jedi_GetSkill_Pull@@YAHPAXPAUprofSkill_s@@@Z 201c5a70 f   Lmd_Prof_Jedi.obj
 0001:001c4ae0       ?Lmd_Prof_Jedi_GetSkill_Push@@YAHPAXPAUprofSkill_s@@@Z 201c5ae0 f   Lmd_Prof_Jedi.obj
 0001:001c4b50       ?Lmd_Prof_Jedi_GetSkill_Rage@@YAHPAXPAUprofSkill_s@@@Z 201c5b50 f   Lmd_Prof_Jedi.obj
 0001:001c4bc0       ?Lmd_Prof_Jedi_GetSkill_Saber_Attack@@YAHPAXPAUprofSkill_s@@@Z 201c5bc0 f   Lmd_Prof_Jedi.obj
 0001:001c4c30       ?Lmd_Prof_Jedi_GetSkill_Saber_Defend@@YAHPAXPAUprofSkill_s@@@Z 201c5c30 f   Lmd_Prof_Jedi.obj
 0001:001c4ca0       ?Lmd_Prof_Jedi_GetSkill_Saber_Throw@@YAHPAXPAUprofSkill_s@@@Z 201c5ca0 f   Lmd_Prof_Jedi.obj
 0001:001c4d10       ?Lmd_Prof_Jedi_GetSkill_Seeing@@YAHPAXPAUprofSkill_s@@@Z 201c5d10 f   Lmd_Prof_Jedi.obj
 0001:001c4d80       ?Lmd_Prof_Jedi_GetSkill_Speed@@YAHPAXPAUprofSkill_s@@@Z 201c5d80 f   Lmd_Prof_Jedi.obj
 0001:001c4df0       ?Lmd_Prof_Jedi_GetSkill_TeamHeal@@YAHPAXPAUprofSkill_s@@@Z 201c5df0 f   Lmd_Prof_Jedi.obj
 0001:001c4e60       ?Lmd_Prof_Jedi_GetSkill_hp_maxs@@YAHPAXPAUprofSkill_s@@@Z 201c5e60 f   Lmd_Prof_Jedi.obj
 0001:001c4ed0       ?Lmd_Prof_Jedi_GetSkill_mp_maxs@@YAHPAXPAUprofSkill_s@@@Z 201c5ed0 f   Lmd_Prof_Jedi.obj
 0001:001c4f40       ?Lmd_Prof_Jedi_GetSkill_overload@@YAHPAXPAUprofSkill_s@@@Z 201c5f40 f   Lmd_Prof_Jedi.obj
 0001:001c4fb0       ?Lmd_Prof_Jedi_GetSkill_thousandcuts@@YAHPAXPAUprofSkill_s@@@Z 201c5fb0 f   Lmd_Prof_Jedi.obj
 0001:001c5020       ?Lmd_Prof_Jedi_GetThousandCutsSkill@@YAHPAUAccount_s@@@Z 201c6020 f   Lmd_Prof_Jedi.obj
 0001:001c5060       ?Lmd_Prof_Jedi_SetLevel@@YAHPAUAccount_s@@PAUprofSkill_s@@H@Z 201c6060 f   Lmd_Prof_Jedi.obj
 0001:001c50c0       ?Lmd_Prof_Jedi_SetSkill_Absorb@@YAHPAXPAUprofSkill_s@@H@Z 201c60c0 f   Lmd_Prof_Jedi.obj
 0001:001c5140       ?Lmd_Prof_Jedi_SetSkill_Drain@@YAHPAXPAUprofSkill_s@@H@Z 201c6140 f   Lmd_Prof_Jedi.obj
 0001:001c51c0       ?Lmd_Prof_Jedi_SetSkill_Energize@@YAHPAXPAUprofSkill_s@@H@Z 201c61c0 f   Lmd_Prof_Jedi.obj
 0001:001c5240       ?Lmd_Prof_Jedi_SetSkill_Grip@@YAHPAXPAUprofSkill_s@@H@Z 201c6240 f   Lmd_Prof_Jedi.obj
 0001:001c52c0       ?Lmd_Prof_Jedi_SetSkill_Heal@@YAHPAXPAUprofSkill_s@@H@Z 201c62c0 f   Lmd_Prof_Jedi.obj
 0001:001c5340       ?Lmd_Prof_Jedi_SetSkill_Jump@@YAHPAXPAUprofSkill_s@@H@Z 201c6340 f   Lmd_Prof_Jedi.obj
 0001:001c53c0       ?Lmd_Prof_Jedi_SetSkill_Lightning@@YAHPAXPAUprofSkill_s@@H@Z 201c63c0 f   Lmd_Prof_Jedi.obj
 0001:001c5440       ?Lmd_Prof_Jedi_SetSkill_MindTrick@@YAHPAXPAUprofSkill_s@@H@Z 201c6440 f   Lmd_Prof_Jedi.obj
 0001:001c54c0       ?Lmd_Prof_Jedi_SetSkill_Protect@@YAHPAXPAUprofSkill_s@@H@Z 201c64c0 f   Lmd_Prof_Jedi.obj
 0001:001c5540       ?Lmd_Prof_Jedi_SetSkill_Pull@@YAHPAXPAUprofSkill_s@@H@Z 201c6540 f   Lmd_Prof_Jedi.obj
 0001:001c55c0       ?Lmd_Prof_Jedi_SetSkill_Push@@YAHPAXPAUprofSkill_s@@H@Z 201c65c0 f   Lmd_Prof_Jedi.obj
 0001:001c5640       ?Lmd_Prof_Jedi_SetSkill_Rage@@YAHPAXPAUprofSkill_s@@H@Z 201c6640 f   Lmd_Prof_Jedi.obj
 0001:001c56c0       ?Lmd_Prof_Jedi_SetSkill_Saber_Attack@@YAHPAXPAUprofSkill_s@@H@Z 201c66c0 f   Lmd_Prof_Jedi.obj
 0001:001c5740       ?Lmd_Prof_Jedi_SetSkill_Saber_Defend@@YAHPAXPAUprofSkill_s@@H@Z 201c6740 f   Lmd_Prof_Jedi.obj
 0001:001c57c0       ?Lmd_Prof_Jedi_SetSkill_Saber_Throw@@YAHPAXPAUprofSkill_s@@H@Z 201c67c0 f   Lmd_Prof_Jedi.obj
 0001:001c5840       ?Lmd_Prof_Jedi_SetSkill_Seeing@@YAHPAXPAUprofSkill_s@@H@Z 201c6840 f   Lmd_Prof_Jedi.obj
 0001:001c58c0       ?Lmd_Prof_Jedi_SetSkill_Speed@@YAHPAXPAUprofSkill_s@@H@Z 201c68c0 f   Lmd_Prof_Jedi.obj
 0001:001c5940       ?Lmd_Prof_Jedi_SetSkill_TeamHeal@@YAHPAXPAUprofSkill_s@@H@Z 201c6940 f   Lmd_Prof_Jedi.obj
 0001:001c59c0       ?Lmd_Prof_Jedi_SetSkill_hp_maxs@@YAHPAXPAUprofSkill_s@@H@Z 201c69c0 f   Lmd_Prof_Jedi.obj
 0001:001c5a40       ?Lmd_Prof_Jedi_SetSkill_mp_maxs@@YAHPAXPAUprofSkill_s@@H@Z 201c6a40 f   Lmd_Prof_Jedi.obj
 0001:001c5ac0       ?Lmd_Prof_Jedi_SetSkill_overload@@YAHPAXPAUprofSkill_s@@H@Z 201c6ac0 f   Lmd_Prof_Jedi.obj
 0001:001c5b40       ?Lmd_Prof_Jedi_SetSkill_thousandcuts@@YAHPAXPAUprofSkill_s@@H@Z 201c6b40 f   Lmd_Prof_Jedi.obj
 0001:001c5bc0       ?Merc_Spawn@@YAXPAUgentity_s@@@Z 201c6bc0 f   Lmd_Prof_Merc.obj
 0001:001c5e70       ?Cmd_Cortosis_f@@YAXPAUgentity_s@@H@Z 201c6e70 f   Lmd_Prof_Merc.obj
 0001:001c5fa0       ?Cmd_Flame_f@@YAXPAUgentity_s@@H@Z 201c6fa0 f   Lmd_Prof_Merc.obj
 0001:001c6020       ?Cmd_MercWeapon_f@@YAXPAUgentity_s@@H@Z 201c7020 f   Lmd_Prof_Merc.obj
 0001:001c6110       ?Cmd_Ysalamiri_f@@YAXPAUgentity_s@@H@Z 201c7110 f   Lmd_Prof_Merc.obj
 0001:001c6440       ?Get_Merc_hp_maxs_value@@YAHPAUgentity_s@@@Z 201c7440 f   Lmd_Prof_Merc.obj
 0001:001c6510       ?Get_Merc_sd_maxs_value@@YAHPAUgentity_s@@@Z 201c7510 f   Lmd_Prof_Merc.obj
 0001:001c6590       ?Lmd_Prof_Merc_CanSetSkill_ammo@@YAHPAXPAUprofSkill_s@@H@Z 201c7590 f   Lmd_Prof_Merc.obj
 0001:001c6620       ?Lmd_Prof_Merc_CanSetSkill_armor@@YAHPAXPAUprofSkill_s@@H@Z 201c7620 f   Lmd_Prof_Merc.obj
 0001:001c66b0       ?Lmd_Prof_Merc_CanSetSkill_binoculars@@YAHPAXPAUprofSkill_s@@H@Z 201c76b0 f   Lmd_Prof_Merc.obj
 0001:001c6740       ?Lmd_Prof_Merc_CanSetSkill_flame@@YAHPAXPAUprofSkill_s@@H@Z 201c7740 f   Lmd_Prof_Merc.obj
 0001:001c67d0       ?Lmd_Prof_Merc_CanSetSkill_forceresist@@YAHPAXPAUprofSkill_s@@H@Z 201c77d0 f   Lmd_Prof_Merc.obj
 0001:001c6860       ?Lmd_Prof_Merc_CanSetSkill_fuel@@YAHPAXPAUprofSkill_s@@H@Z 201c7860 f   Lmd_Prof_Merc.obj
 0001:001c68f0       ?Lmd_Prof_Merc_CanSetSkill_hp_maxs@@YAHPAXPAUprofSkill_s@@H@Z 201c78f0 f   Lmd_Prof_Merc.obj
 0001:001c6980       ?Lmd_Prof_Merc_CanSetSkill_lethality@@YAHPAXPAUprofSkill_s@@H@Z 201c7980 f   Lmd_Prof_Merc.obj
 0001:001c6a10       ?Lmd_Prof_Merc_CanSetSkill_melee@@YAHPAXPAUprofSkill_s@@H@Z 201c7a10 f   Lmd_Prof_Merc.obj
 0001:001c6aa0       ?Lmd_Prof_Merc_CanSetSkill_rifle_master@@YAHPAXPAUprofSkill_s@@H@Z 201c7aa0 f   Lmd_Prof_Merc.obj
 0001:001c6b30       ?Lmd_Prof_Merc_CanSetSkill_sd_maxs@@YAHPAXPAUprofSkill_s@@H@Z 201c7b30 f   Lmd_Prof_Merc.obj
 0001:001c6bc0       ?Lmd_Prof_Merc_CanSetSkill_weapon@@YAHPAXPAUprofSkill_s@@H@Z 201c7bc0 f   Lmd_Prof_Merc.obj
 0001:001c6c50       ?Lmd_Prof_Merc_CanSetSkill_ysalamiri@@YAHPAXPAUprofSkill_s@@H@Z 201c7c50 f   Lmd_Prof_Merc.obj
 0001:001c6ce0       ?Lmd_Prof_Merc_GetAmmoSkill@@YAHPAUAccount_s@@@Z 201c7ce0 f   Lmd_Prof_Merc.obj
 0001:001c6d20       ?Lmd_Prof_Merc_GetForceResistanceSkill@@YAHPAUAccount_s@@@Z 201c7d20 f   Lmd_Prof_Merc.obj
 0001:001c6d60       ?Lmd_Prof_Merc_GetLethalitySkill@@YAHPAUAccount_s@@@Z 201c7d60 f   Lmd_Prof_Merc.obj
 0001:001c6da0       ?Lmd_Prof_Merc_GetMeleeSkill@@YAHPAUAccount_s@@@Z 201c7da0 f   Lmd_Prof_Merc.obj
 0001:001c6de0       ?Lmd_Prof_Merc_GetSkill_ammo@@YAHPAXPAUprofSkill_s@@@Z 201c7de0 f   Lmd_Prof_Merc.obj
 0001:001c6e40       ?Lmd_Prof_Merc_GetSkill_armor@@YAHPAXPAUprofSkill_s@@@Z 201c7e40 f   Lmd_Prof_Merc.obj
 0001:001c6ea0       ?Lmd_Prof_Merc_GetSkill_binoculars@@YAHPAXPAUprofSkill_s@@@Z 201c7ea0 f   Lmd_Prof_Merc.obj
 0001:001c6f00       ?Lmd_Prof_Merc_GetSkill_flame@@YAHPAXPAUprofSkill_s@@@Z 201c7f00 f   Lmd_Prof_Merc.obj
 0001:001c6f60       ?Lmd_Prof_Merc_GetSkill_forceresist@@YAHPAXPAUprofSkill_s@@@Z 201c7f60 f   Lmd_Prof_Merc.obj
 0001:001c6fc0       ?Lmd_Prof_Merc_GetSkill_fuel@@YAHPAXPAUprofSkill_s@@@Z 201c7fc0 f   Lmd_Prof_Merc.obj
 0001:001c7020       ?Lmd_Prof_Merc_GetSkill_hp_maxs@@YAHPAXPAUprofSkill_s@@@Z 201c8020 f   Lmd_Prof_Merc.obj
 0001:001c7080       ?Lmd_Prof_Merc_GetSkill_lethality@@YAHPAXPAUprofSkill_s@@@Z 201c8080 f   Lmd_Prof_Merc.obj
 0001:001c70e0       ?Lmd_Prof_Merc_GetSkill_melee@@YAHPAXPAUprofSkill_s@@@Z 201c80e0 f   Lmd_Prof_Merc.obj
 0001:001c7140       ?Lmd_Prof_Merc_GetSkill_rifle_master@@YAHPAXPAUprofSkill_s@@@Z 201c8140 f   Lmd_Prof_Merc.obj
 0001:001c71a0       ?Lmd_Prof_Merc_GetSkill_sd_maxs@@YAHPAXPAUprofSkill_s@@@Z 201c81a0 f   Lmd_Prof_Merc.obj
 0001:001c7200       ?Lmd_Prof_Merc_GetSkill_weapon@@YAHPAXPAUprofSkill_s@@@Z 201c8200 f   Lmd_Prof_Merc.obj
 0001:001c7260       ?Lmd_Prof_Merc_GetSkill_ysalamiri@@YAHPAXPAUprofSkill_s@@@Z 201c8260 f   Lmd_Prof_Merc.obj
 0001:001c72c0       ?Lmd_Prof_Merc_GetStashRangeSkill@@YAHPAUAccount_s@@@Z 201c82c0 f   Lmd_Prof_Merc.obj
 0001:001c7300       ?Lmd_Prof_Merc_GetYsalamiriSkill@@YAHPAUAccount_s@@@Z 201c8300 f   Lmd_Prof_Merc.obj
 0001:001c7340       ?Lmd_Prof_Merc_Getrifle_masterSkill@@YAHPAUAccount_s@@@Z 201c8340 f   Lmd_Prof_Merc.obj
 0001:001c7380       ?Lmd_Prof_Merc_SetSkill_ammo@@YAHPAXPAUprofSkill_s@@H@Z 201c8380 f   Lmd_Prof_Merc.obj
 0001:001c7400       ?Lmd_Prof_Merc_SetSkill_armor@@YAHPAXPAUprofSkill_s@@H@Z 201c8400 f   Lmd_Prof_Merc.obj
 0001:001c7480       ?Lmd_Prof_Merc_SetSkill_binoculars@@YAHPAXPAUprofSkill_s@@H@Z 201c8480 f   Lmd_Prof_Merc.obj
 0001:001c7500       ?Lmd_Prof_Merc_SetSkill_flame@@YAHPAXPAUprofSkill_s@@H@Z 201c8500 f   Lmd_Prof_Merc.obj
 0001:001c7580       ?Lmd_Prof_Merc_SetSkill_forceresist@@YAHPAXPAUprofSkill_s@@H@Z 201c8580 f   Lmd_Prof_Merc.obj
 0001:001c7600       ?Lmd_Prof_Merc_SetSkill_fuel@@YAHPAXPAUprofSkill_s@@H@Z 201c8600 f   Lmd_Prof_Merc.obj
 0001:001c7680       ?Lmd_Prof_Merc_SetSkill_hp_maxs@@YAHPAXPAUprofSkill_s@@H@Z 201c8680 f   Lmd_Prof_Merc.obj
 0001:001c7700       ?Lmd_Prof_Merc_SetSkill_lethality@@YAHPAXPAUprofSkill_s@@H@Z 201c8700 f   Lmd_Prof_Merc.obj
 0001:001c7780       ?Lmd_Prof_Merc_SetSkill_melee@@YAHPAXPAUprofSkill_s@@H@Z 201c8780 f   Lmd_Prof_Merc.obj
 0001:001c77f0       ?Lmd_Prof_Merc_SetSkill_rifle_master@@YAHPAXPAUprofSkill_s@@H@Z 201c87f0 f   Lmd_Prof_Merc.obj
 0001:001c7870       ?Lmd_Prof_Merc_SetSkill_sd_maxs@@YAHPAXPAUprofSkill_s@@H@Z 201c8870 f   Lmd_Prof_Merc.obj
 0001:001c78f0       ?Lmd_Prof_Merc_SetSkill_weapon@@YAHPAXPAUprofSkill_s@@H@Z 201c88f0 f   Lmd_Prof_Merc.obj
 0001:001c7970       ?Lmd_Prof_Merc_SetSkill_ysalamiri@@YAHPAXPAUprofSkill_s@@H@Z 201c8970 f   Lmd_Prof_Merc.obj
 0001:001c79f0       ?Merc_CheckHook@@YAHPAUgentity_s@@@Z 201c89f0 f   Lmd_Prof_Merc.obj
 0001:001c8260       ?Merc_ChooseWeapon@@YAXPAUgentity_s@@PAD@Z 201c9260 f   Lmd_Prof_Merc.obj
 0001:001c84f0       ?Merc_CreateGrappleNode@@YAXPAUgentity_s@@QAM@Z 201c94f0 f   Lmd_Prof_Merc.obj
 0001:001c8740       ?Merc_DisplayWeapons@@YAXPAUgentity_s@@@Z 201c9740 f   Lmd_Prof_Merc.obj
 0001:001c89c0       ?Merc_DrawHook@@YAXPAUgentity_s@@@Z 201c99c0 f   Lmd_Prof_Merc.obj
 0001:001c8f20       ?Merc_FireGrapplingHook@@YAXPAUgentity_s@@H@Z 201c9f20 f   Lmd_Prof_Merc.obj
 0001:001c94e0       ?Merc_GiveStartingWeapons@@YAXPAUgentity_s@@@Z 201ca4e0 f   Lmd_Prof_Merc.obj
 0001:001c97d0       ?Merc_JetpackDefuel@@YAHPAUgentity_s@@@Z 201ca7d0 f   Lmd_Prof_Merc.obj
 0001:001c98a0       ?Merc_JetpackRefuel@@YAHPAUgentity_s@@@Z 201ca8a0 f   Lmd_Prof_Merc.obj
 0001:001c9910       ?Merc_SpeedFactor@@YAMPAUgentity_s@@@Z 201ca910 f   Lmd_Prof_Merc.obj
 0001:001c9990       ?Merc_TotalWeaponPoints@@YAHPAUgentity_s@@@Z 201ca990 f   Lmd_Prof_Merc.obj
 0001:001c99e0       ?Merc_Unhook@@YAXPAUgentity_s@@@Z 201ca9e0 f   Lmd_Prof_Merc.obj
 0001:001c9af0       ?Merc_UsedWeaponPoints@@YAHPAUgentity_s@@@Z 201caaf0 f   Lmd_Prof_Merc.obj
 0001:001c9b90       ?Prof_Merc_Flame@@YAXPAUgentity_s@@@Z 201cab90 f   Lmd_Prof_Merc.obj
 0001:001ca980       ?YsalamiriBlast@@YAXQAMH@Z 201cb980 f   Lmd_Prof_Merc.obj
 0001:001cabb0       ?Spawn_NoProf@@YAXPAUgentity_s@@@Z 201cbbb0 f   Lmd_Prof_Other.obj
 0001:001cac30       ?Spawn_GodProf@@YAXPAUgentity_s@@@Z 201cbc30 f   Lmd_Prof_Other.obj
 0001:001cacf0       ?SP_random_spot@@YAXPAUgentity_s@@@Z 201cbcf0 f   Lmd_RandomSpot.obj
 0001:001caef0       ?count_random_spots@@YAHXZ 201cbef0 f   Lmd_RandomSpot.obj
 0001:001cafb0       ?pick_random_spot@@YAPAUgentity_s@@XZ 201cbfb0 f   Lmd_RandomSpot.obj
 0001:001cb0c0       ?random_spot_think@@YAXPAUgentity_s@@@Z 201cc0c0 f   Lmd_RandomSpot.obj
 0001:001cb120       ?countZoneStashes@@YAIPAD@Z 201cc120 f   Lmd_StashZone.obj
 0001:001cb1f0       ?dropMoneyStash@@YAXPAUgentity_s@@@Z 201cc1f0 f   Lmd_StashZone.obj
 0001:001cb2d0       ?entityInStashZone@@YAPAUgentity_s@@PAU1@PAD@Z 201cc2d0 f   Lmd_StashZone.obj
 0001:001cb780       ?findLmdStashSpawnpoints@@YAIPADQAPAUgentity_s@@IH@Z 201cc780 f   Lmd_StashZone.obj
 0001:001cb880       ?lmd_stash@@YAXPAUgentity_s@@@Z 201cc880 f   Lmd_StashZone.obj
 0001:001cb940       ?lmd_stash_canPickup@@YAHPAUgentity_s@@0@Z 201cc940 f   Lmd_StashZone.obj
 0001:001cbc60       ?lmd_stash_deposit@@YAXPAUgentity_s@@HPAD@Z 201ccc60 f   Lmd_StashZone.obj
 0001:001cc050       ?lmd_stash_destroy@@YAXPAUgentity_s@@@Z 201cd050 f   Lmd_StashZone.obj
 0001:001cc100       ?lmd_stash_drop@@YAXPAUgentity_s@@@Z 201cd100 f   Lmd_StashZone.obj
 0001:001cc3b0       ?lmd_stash_pickup@@YAXPAUgentity_s@@0@Z 201cd3b0 f   Lmd_StashZone.obj
 0001:001cc7d0       ?lmd_stash_reset@@YAXPAUgentity_s@@0@Z 201cd7d0 f   Lmd_StashZone.obj
 0001:001cca10       ?lmd_stash_spawn@@YAXPAUgentity_s@@@Z 201cda10 f   Lmd_StashZone.obj
 0001:001ccaa0       ?lmd_stash_startDeposit@@YAXPAUgentity_s@@PAD@Z 201cdaa0 f   Lmd_StashZone.obj
 0001:001ccda0       ?lmd_stash_stopcarry@@YAXPAUgentity_s@@@Z 201cdda0 f   Lmd_StashZone.obj
 0001:001ccdf0       ?lmd_stash_think@@YAXPAUgentity_s@@@Z 201cddf0 f   Lmd_StashZone.obj
 0001:001cd380       ?lmd_stash_touch@@YAXPAUgentity_s@@0PAUtrace_t@@@Z 201ce380 f   Lmd_StashZone.obj
 0001:001cd3b0       ?lmd_stash_tryPickup@@YAXPAUgentity_s@@0@Z 201ce3b0 f   Lmd_StashZone.obj
 0001:001cd400       ?lmd_stash_tryReset@@YAXPAUgentity_s@@@Z 201ce400 f   Lmd_StashZone.obj
 0001:001cd4d0       ?lmd_stash_validParent@@YAHPAUgentity_s@@@Z 201ce4d0 f   Lmd_StashZone.obj
 0001:001cd540       ?lmd_stashdepo@@YAXPAUgentity_s@@@Z 201ce540 f   Lmd_StashZone.obj
 0001:001cd870       ?lmd_stashdepo_deposit@@YAXPAUgentity_s@@0@Z 201ce870 f   Lmd_StashZone.obj
 0001:001cd950       ?lmd_stashdepo_makezone@@YAHPAUgentity_s@@@Z 201ce950 f   Lmd_StashZone.obj
 0001:001cdb70       ?lmd_stashdepo_use@@YAXPAUgentity_s@@00@Z 201ceb70 f   Lmd_StashZone.obj
 0001:001ce080       ?lmd_stashdepozone_think@@YAXPAUgentity_s@@@Z 201cf080 f   Lmd_StashZone.obj
 0001:001ce150       ?lmd_stashspawnpoint@@YAXPAUgentity_s@@@Z 201cf150 f   Lmd_StashZone.obj
 0001:001cebd0       ?lmd_stashspawnpoint_spawnstash@@YAXPAUgentity_s@@@Z 201cfbd0 f   Lmd_StashZone.obj
 0001:001cf5f0       ?lmd_stashspawnpoint_think@@YAXPAUgentity_s@@@Z 201d05f0 f   Lmd_StashZone.obj
 0001:001cf670       ?lmd_stashspawnpoint_use@@YAXPAUgentity_s@@00@Z 201d0670 f   Lmd_StashZone.obj
 0001:001cf6b0       ?lmd_stashzone@@YAXPAUgentity_s@@@Z 201d06b0 f   Lmd_StashZone.obj
 0001:001cf770       ?tryStashSpawnCheck@@YAHPAUgentity_s@@H@Z 201d0770 f   Lmd_StashZone.obj
 0001:001cf990       ?Time_Days@@YAII@Z         201d0990 f   Lmd_Time.obj
 0001:001cf9d0       ?Time_DaysToTime@@YAII@Z   201d09d0 f   Lmd_Time.obj
 0001:001cf9f0       ?Time_DurationString@@YAXHPADH@Z 201d09f0 f   Lmd_Time.obj
 0001:001cfba0       ?Time_MonthFromDays@@YAIPAI0@Z 201d0ba0 f   Lmd_Time.obj
 0001:001cfc30       ?Time_Now@@YAIXZ           201d0c30 f   Lmd_Time.obj
 0001:001cfca0       ?Time_ParseDayValue@@YAII@Z 201d0ca0 f   Lmd_Time.obj
 0001:001cfd50       ?Time_ParseString@@YAIPAD@Z 201d0d50 f   Lmd_Time.obj
 0001:001d01d0       ?Time_ToHumanString@@YAXIPADI@Z 201d11d0 f   Lmd_Time.obj
 0001:001d0400       ?Time_ToString@@YAXIPADI@Z 201d1400 f   Lmd_Time.obj
 0001:001d06c0       ?daysformonth@@YAIII@Z     201d16c0 f   Lmd_Time.obj
 0001:001d0790       ?Weapon_Flechette_AltFire@@YAXPAUgentity_s@@0PAUweaponFire_s@@@Z 201d1790 f   Lmd_Weapons_Core.obj
 0001:001d0a20       ?Weapon_RocketLauncher_Primary@@YAXPAUgentity_s@@0PAUweaponFire_s@@@Z 201d1a20 f   Lmd_Weapons_Core.obj
 0001:001d0a50       ?Weapon_RocketLauncher_Alt@@YAXPAUgentity_s@@0PAUweaponFire_s@@@Z 201d1a50 f   Lmd_Weapons_Core.obj
 0001:001d0aa0       ?Weapon_Concussion_AltFire@@YAXPAUgentity_s@@0PAUweaponFire_s@@@Z 201d1aa0 f   Lmd_Weapons_Core.obj
 0001:001d1db0       ?Weapon_Bryar_AltFire@@YAXPAUgentity_s@@0PAUweaponFire_s@@@Z 201d2db0 f   Lmd_Weapons_Core.obj
 0001:001d2020       ?Weapon_Disruptor_Fire@@YAXPAUgentity_s@@0PAUweaponFire_s@@@Z 201d3020 f   Lmd_Weapons_Core.obj
 0001:001d2b90       ?Weapon_Disruptor_AltFire@@YAXPAUgentity_s@@0PAUweaponFire_s@@@Z 201d3b90 f   Lmd_Weapons_Core.obj
 0001:001d3d90       ?Weapon_Bowcaster_Fire@@YAXPAUgentity_s@@0PAUweaponFire_s@@@Z 201d4d90 f   Lmd_Weapons_Core.obj
 0001:001d4390       ?Weapon_Repeater_AltFire@@YAXPAUgentity_s@@0PAUweaponFire_s@@@Z 201d5390 f   Lmd_Weapons_Core.obj
 0001:001d4420       ?Weapon_DEMP2_AltFire@@YAXPAUgentity_s@@0PAUweaponFire_s@@@Z 201d5420 f   Lmd_Weapons_Core.obj
 0001:001d4a80       ?G_CanDisruptify@@YAHPAUgentity_s@@@Z 201d5a80 f   Lmd_Weapons_Core.obj
 0001:001d4ca0       ?Weapon_DEMP2_AltDetonate@@YAXPAUgentity_s@@@Z 201d5ca0 f   Lmd_Weapons_Core.obj
 0001:001d4e40       ?Weapon_DEMP2_AltRadiusDamage@@YAXPAUgentity_s@@@Z 201d5e40 f   Lmd_Weapons_Core.obj
 0001:001d5750       ?Weapon_Fire@@YAHPAUgentity_s@@HH@Z 201d6750 f   Lmd_Weapons_Core.obj
 0001:001d5840       ?Weapon_FireEnergy@@YAHPAUgentity_s@@HH@Z 201d6840 f   Lmd_Weapons_Core.obj
 0001:001d58b0       ?Weapon_FireProjectile@@YAXPAUgentity_s@@HHPAUweaponFire_s@@@Z 201d68b0 f   Lmd_Weapons_Core.obj
 0001:001d5f60       ?Weapon_FireRate@@YAHPAUgentity_s@@HH@Z 201d6f60 f   Lmd_Weapons_Core.obj
 0001:001d5ff0       ?Weapon_Flechette_AltFireDo@@YAXQAM0PAUgentity_s@@PAUweaponFire_s@@@Z 201d6ff0 f   Lmd_Weapons_Core.obj
 0001:001d6460       ?Weapon_Flechette_Alt_Explode@@YAXPAUgentity_s@@@Z 201d7460 f   Lmd_Weapons_Core.obj
 0001:001d6670       ?Weapon_Flechette_Alt_Think@@YAXPAUgentity_s@@@Z 201d7670 f   Lmd_Weapons_Core.obj
 0001:001d67f0       ?Weapon_Homing_Think@@YAXPAUgentity_s@@@Z 201d77f0 f   Lmd_Weapons_Core.obj
 0001:001d7680       ?Weapon_RocketLauncher_Fire@@YAXPAUgentity_s@@0PAUweaponFire_s@@H@Z 201d8680 f   Lmd_Weapons_Core.obj
 0001:001d79e0       ?Weapon_RocketLauncher_RocketDie@@YAXPAUgentity_s@@00HH@Z 201d89e0 f   Lmd_Weapons_Core.obj
 0001:001d7a50       ?BodyRemovalPadTime@@YAHPAUgentity_s@@@Z 201d8a50 f   NPC.obj
 0001:001d7b10       ?ClearNPCGlobals@@YAXXZ    201d8b10 f   NPC.obj
 0001:001d7b50       ?CorpsePhysics@@YAXPAUgentity_s@@@Z 201d8b50 f   NPC.obj
 0001:001d8510       ?G_DroidSounds@@YAXPAUgentity_s@@@Z 201d9510 f   NPC.obj
 0001:001d8730       ?NPC_ApplyScriptFlags@@YAXXZ 201d9730 f   NPC.obj
 0001:001d88d0       ?NPC_AvoidWallsAndCliffs@@YAXXZ 201d98d0 f   NPC.obj
 0001:001d88f0       ?NPC_BehaviorSet_ATST@@YAXH@Z 201d98f0 f   NPC.obj
 0001:001d8960       ?NPC_BehaviorSet_Charmed@@YAXH@Z 201d9960 f   NPC.obj
 0001:001d8a10       ?NPC_BehaviorSet_Default@@YAXH@Z 201d9a10 f   NPC.obj
 0001:001d8b10       ?NPC_BehaviorSet_Droid@@YAXH@Z 201d9b10 f   NPC.obj
 0001:001d8b60       ?NPC_BehaviorSet_Grenadier@@YAXH@Z 201d9b60 f   NPC.obj
 0001:001d8bd0       ?NPC_BehaviorSet_Howler@@YAXH@Z 201d9bd0 f   NPC.obj
 0001:001d8c40       ?NPC_BehaviorSet_ImperialProbe@@YAXH@Z 201d9c40 f   NPC.obj
 0001:001d8cb0       ?NPC_BehaviorSet_Interrogator@@YAXH@Z 201d9cb0 f   NPC.obj
 0001:001d8d20       ?NPC_BehaviorSet_Jedi@@YAXH@Z 201d9d20 f   NPC.obj
 0001:001d8da0       ?NPC_BehaviorSet_Mark1@@YAXH@Z 201d9da0 f   NPC.obj
 0001:001d8df0       ?NPC_BehaviorSet_Mark2@@YAXH@Z 201d9df0 f   NPC.obj
 0001:001d8e60       ?NPC_BehaviorSet_MineMonster@@YAXH@Z 201d9e60 f   NPC.obj
 0001:001d8ed0       ?NPC_BehaviorSet_Rancor@@YAXH@Z 201d9ed0 f   NPC.obj
 0001:001d8f40       ?NPC_BehaviorSet_Remote@@YAXH@Z 201d9f40 f   NPC.obj
 0001:001d8f60       ?NPC_BehaviorSet_Seeker@@YAXH@Z 201d9f60 f   NPC.obj
 0001:001d8fd0       ?NPC_BehaviorSet_Sentry@@YAXH@Z 201d9fd0 f   NPC.obj
 0001:001d9040       ?NPC_BehaviorSet_Sniper@@YAXH@Z 201da040 f   NPC.obj
 0001:001d90b0       ?NPC_BehaviorSet_Stormtrooper@@YAXH@Z 201da0b0 f   NPC.obj
 0001:001d9140       ?NPC_CheckAttackHold@@YAXXZ 201da140 f   NPC.obj
 0001:001d9360       ?NPC_CheckAttackScript@@YAXXZ 201da360 f   NPC.obj
 0001:001d93a0       ?NPC_CheckInSolid@@YAXXZ   201da3a0 f   NPC.obj
 0001:001d9600       ?NPC_ExecuteBState@@YAXPAUgentity_s@@@Z 201da600 f   NPC.obj
 0001:001d9bf0       ?NPC_HandleAIFlags@@YAXXZ  201dabf0 f   NPC.obj
 0001:001d9d80       ?NPC_InitAI@@YAXXZ         201dad80 f   NPC.obj
 0001:001d9da0       ?NPC_InitGame@@YAXXZ       201dada0 f   NPC.obj
 0001:001d9dc0       ?NPC_KeepCurrentFacing@@YAXXZ 201dadc0 f   NPC.obj
 0001:001d9ed0       ?NPC_RemoveBody@@YAXPAUgentity_s@@@Z 201daed0 f   NPC.obj
 0001:001da330       ?NPC_RunBehavior@@YAXHH@Z  201db330 f   NPC.obj
 0001:001da9a0       ?NPC_SetAnim@@YAXPAUgentity_s@@HHH@Z 201db9a0 f   NPC.obj
 0001:001da9e0       ?NPC_ShowDebugInfo@@YAXXZ  201db9e0 f   NPC.obj
 0001:001dac60       ?NPC_Think@@YAXPAUgentity_s@@@Z 201dbc60 f   NPC.obj
 0001:001db5a0       ?RestoreNPCGlobals@@YAXXZ  201dc5a0 f   NPC.obj
 0001:001db600       ?SaveNPCGlobals@@YAXXZ     201dc600 f   NPC.obj
 0001:001db660       ?SetNPCGlobals@@YAXPAUgentity_s@@@Z 201dc660 f   NPC.obj
 0001:001db810       ?pitch_roll_for_slope@@YAXPAUgentity_s@@QAM@Z 201dc810 f   NPC.obj
 0001:001dbf50       ?ATST_Attack@@YAXXZ        201dcf50 f   NPC_AI_Atst.obj
 0001:001dc1d0       ?ATST_Hunt@@YAXHH@Z        201dd1d0 f   NPC_AI_Atst.obj
 0001:001dc240       ?ATST_Idle@@YAXXZ          201dd240 f   NPC_AI_Atst.obj
 0001:001dc280       ?ATST_Patrol@@YAXXZ        201dd280 f   NPC_AI_Atst.obj
 0001:001dc300       ?ATST_Ranged@@YAXHHH@Z     201dd300 f   NPC_AI_Atst.obj
 0001:001dc3c0       ?G_ATSTCheckPain@@YAXPAUgentity_s@@0H@Z 201dd3c0 f   NPC_AI_Atst.obj
 0001:001dc420       ?NPC_ATST_Pain@@YAXPAUgentity_s@@0H@Z 201dd420 f   NPC_AI_Atst.obj
 0001:001dc470       ?NPC_ATST_Precache@@YAXXZ  201dd470 f   NPC_AI_Atst.obj
 0001:001dc510       ?NPC_BSATST_Default@@YAXXZ 201dd510 f   NPC_AI_Atst.obj
 0001:001dc5a0       ?NPC_BSDefault@@YAXXZ      201dd5a0 f   NPC_AI_Default.obj
 0001:001dcbb0       ?NPC_BSFace@@YAXXZ         201ddbb0 f   NPC_AI_Default.obj
 0001:001dcc50       ?NPC_BSHuntAndKill@@YAXXZ  201ddc50 f   NPC_AI_Default.obj
 0001:001dd140       ?NPC_BSIdle@@YAXXZ         201de140 f   NPC_AI_Default.obj
 0001:001dd190       ?NPC_BSMove@@YAXXZ         201de190 f   NPC_AI_Default.obj
 0001:001dd220       ?NPC_BSPatrol@@YAXXZ       201de220 f   NPC_AI_Default.obj
 0001:001dd310       ?NPC_BSPointShoot@@YAXH@Z  201de310 f   NPC_AI_Default.obj
 0001:001dd900       ?NPC_BSRun@@YAXXZ          201de900 f   NPC_AI_Default.obj
 0001:001dd940       ?NPC_BSRunAndShoot@@YAXXZ  201de940 f   NPC_AI_Default.obj
 0001:001ddcb0       ?NPC_BSShoot@@YAXXZ        201decb0 f   NPC_AI_Default.obj
 0001:001ddd20       ?NPC_BSStandAndShoot@@YAXXZ 201ded20 f   NPC_AI_Default.obj
 0001:001ddeb0       ?NPC_BSStandGuard@@YAXXZ   201deeb0 f   NPC_AI_Default.obj
 0001:001de050       ?NPC_LostEnemyDecideChase@@YAXXZ 201df050 f   NPC_AI_Default.obj
 0001:001de0f0       ?NPC_StandIdle@@YAXXZ      201df0f0 f   NPC_AI_Default.obj
 0001:001de110       ?NPC_StandTrackAndShoot@@YAHPAUgentity_s@@H@Z 201df110 f   NPC_AI_Default.obj
 0001:001de380       ?tan@@YAMM@Z               201df380 f i NPC_AI_Default.obj
 0001:001de3b0       _tanf                      201df3b0 f i NPC_AI_Default.obj
 0001:001de3f0       ?Droid_Idle@@YAXXZ         201df3f0 f   NPC_AI_Droid.obj
 0001:001de410       ?Droid_Pain@@YAXXZ         201df410 f   NPC_AI_Droid.obj
 0001:001de460       ?Droid_Patrol@@YAXXZ       201df460 f   NPC_AI_Droid.obj
 0001:001de880       ?Droid_Run@@YAXXZ          201df880 f   NPC_AI_Droid.obj
 0001:001de990       ?Droid_Spin@@YAXXZ         201df990 f   NPC_AI_Droid.obj
 0001:001decc0       ?NPC_BSDroid_Default@@YAXXZ 201dfcc0 f   NPC_AI_Droid.obj
 0001:001deda0       ?NPC_Droid_Pain@@YAXPAUgentity_s@@0H@Z 201dfda0 f   NPC_AI_Droid.obj
 0001:001df760       ?NPC_Gonk_Precache@@YAXXZ  201e0760 f   NPC_AI_Droid.obj
 0001:001df7e0       ?NPC_Mouse_Precache@@YAXXZ 201e07e0 f   NPC_AI_Droid.obj
 0001:001df870       ?NPC_Protocol_Precache@@YAXXZ 201e0870 f   NPC_AI_Droid.obj
 0001:001df8b0       ?NPC_R2D2_Precache@@YAXXZ  201e08b0 f   NPC_AI_Droid.obj
 0001:001df980       ?NPC_R5D2_Precache@@YAXXZ  201e0980 f   NPC_AI_Droid.obj
 0001:001dfa50       ?R2D2_PartsMove@@YAXXZ     201e0a50 f   NPC_AI_Droid.obj
 0001:001dfbd0       ?R2D2_TurnAnims@@YAXXZ     201e0bd0 f   NPC_AI_Droid.obj
 0001:001e0a90       ?GM_Dying@@YAXPAUgentity_s@@@Z 201e1a90 f   NPC_AI_GalakMech.obj
 0001:001e1190       ?GM_StartGloat@@YAXXZ      201e2190 f   NPC_AI_GalakMech.obj
 0001:001e12c0       ?NPC_BSGM_Attack@@YAXXZ    201e22c0 f   NPC_AI_GalakMech.obj
 0001:001e3a00       ?NPC_BSGM_Default@@YAXXZ   201e4a00 f   NPC_AI_GalakMech.obj
 0001:001e3ed0       ?NPC_BSGM_Patrol@@YAXXZ    201e4ed0 f   NPC_AI_GalakMech.obj
 0001:001e3f40       ?NPC_GM_Pain@@YAXPAUgentity_s@@0H@Z 201e4f40 f   NPC_AI_GalakMech.obj
 0001:001e4380       ?NPC_GM_StartLaser@@YAXXZ  201e5380 f   NPC_AI_GalakMech.obj
 0001:001e4470       ?NPC_GalakMech_Init@@YAXPAUgentity_s@@@Z 201e5470 f   NPC_AI_GalakMech.obj
 0001:001e47e0       ?NPC_GalakMech_Precache@@YAXXZ 201e57e0 f   NPC_AI_GalakMech.obj
 0001:001e4ed0       ?Grenadier_ClearTimers@@YAXPAUgentity_s@@@Z 201e5ed0 f   NPC_AI_Grenadier.obj
 0001:001e5010       ?Grenadier_EvaluateShot@@YAHH@Z 201e6010 f   NPC_AI_Grenadier.obj
 0001:001e5350       ?NPC_BSGrenadier_Attack@@YAXXZ 201e6350 f   NPC_AI_Grenadier.obj
 0001:001e5db0       ?NPC_BSGrenadier_Default@@YAXXZ 201e6db0 f   NPC_AI_Grenadier.obj
 0001:001e5e10       ?NPC_BSGrenadier_Patrol@@YAXXZ 201e6e10 f   NPC_AI_Grenadier.obj
 0001:001e6320       ?NPC_Grenadier_Pain@@YAXPAUgentity_s@@0H@Z 201e7320 f   NPC_AI_Grenadier.obj
 0001:001e63e0       ?NPC_Grenadier_PlayConfusionSound@@YAXPAUgentity_s@@@Z 201e73e0 f   NPC_AI_Grenadier.obj
 0001:001e6660       ?Howler_Attack@@YAXXZ      201e7660 f   NPC_AI_Howler.obj
 0001:001e6770       ?Howler_Combat@@YAXXZ      201e7770 f   NPC_AI_Howler.obj
 0001:001e68f0       ?Howler_Idle@@YAXXZ        201e78f0 f   NPC_AI_Howler.obj
 0001:001e6910       ?Howler_Move@@YAXH@Z       201e7910 f   NPC_AI_Howler.obj
 0001:001e69a0       ?Howler_Patrol@@YAXXZ      201e79a0 f   NPC_AI_Howler.obj
 0001:001e6a80       ?Howler_TryDamage@@YAXPAUgentity_s@@H@Z 201e7a80 f   NPC_AI_Howler.obj
 0001:001e6c70       ?NPC_BSHowler_Default@@YAXXZ 201e7c70 f   NPC_AI_Howler.obj
 0001:001e6e20       ?NPC_Howler_Pain@@YAXPAUgentity_s@@0H@Z 201e7e20 f   NPC_AI_Howler.obj
 0001:001e6f40       ?NPC_Howler_Precache@@YAXXZ 201e7f40 f   NPC_AI_Howler.obj
 0001:001e74b0       ?ImperialProbe_AttackDecision@@YAXXZ 201e84b0 f   NPC_AI_ImperialProbe.obj
 0001:001e7690       ?ImperialProbe_FireBlaster@@YAXXZ 201e8690 f   NPC_AI_ImperialProbe.obj
 0001:001e7a20       ?ImperialProbe_Hunt@@YAXHH@Z 201e8a20 f   NPC_AI_ImperialProbe.obj
 0001:001e7d40       ?ImperialProbe_Idle@@YAXXZ 201e8d40 f   NPC_AI_ImperialProbe.obj
 0001:001e7d60       ?ImperialProbe_MaintainHeight@@YAXXZ 201e8d60 f   NPC_AI_ImperialProbe.obj
 0001:001e8360       ?ImperialProbe_Patrol@@YAXXZ 201e9360 f   NPC_AI_ImperialProbe.obj
 0001:001e8500       ?ImperialProbe_Ranged@@YAXHH@Z 201e9500 f   NPC_AI_ImperialProbe.obj
 0001:001e85f0       ?ImperialProbe_Strafe@@YAXXZ 201e95f0 f   NPC_AI_ImperialProbe.obj
 0001:001e89b0       ?ImperialProbe_Wait@@YAXXZ 201e99b0 f   NPC_AI_ImperialProbe.obj
 0001:001e8b70       ?NPC_BSImperialProbe_Default@@YAXXZ 201e9b70 f   NPC_AI_ImperialProbe.obj
 0001:001e8c00       ?NPC_Probe_Pain@@YAXPAUgentity_s@@0H@Z 201e9c00 f   NPC_AI_ImperialProbe.obj
 0001:001e9110       ?NPC_Probe_Precache@@YAXXZ 201ea110 f   NPC_AI_ImperialProbe.obj
 0001:001e9210       ?Interrogator_Attack@@YAXXZ 201ea210 f   NPC_AI_Interrogator.obj
 0001:001e93e0       ?Interrogator_Hunt@@YAXHH@Z 201ea3e0 f   NPC_AI_Interrogator.obj
 0001:001e9710       ?Interrogator_Idle@@YAXXZ  201ea710 f   NPC_AI_Interrogator.obj
 0001:001e9770       ?Interrogator_MaintainHeight@@YAXXZ 201ea770 f   NPC_AI_Interrogator.obj
 0001:001e9db0       ?Interrogator_Melee@@YAXHH@Z 201eadb0 f   NPC_AI_Interrogator.obj
 0001:001e9fa0       ?Interrogator_PartsMove@@YAXXZ 201eafa0 f   NPC_AI_Interrogator.obj
 0001:001ea480       ?Interrogator_Strafe@@YAXXZ 201eb480 f   NPC_AI_Interrogator.obj
 0001:001ea910       ?Interrogator_die@@YAXPAUgentity_s@@00HHHH@Z 201eb910 f   NPC_AI_Interrogator.obj
 0001:001eaa00       ?NPC_BSInterrogator_Default@@YAXXZ 201eba00 f   NPC_AI_Interrogator.obj
 0001:001eaa40       ?NPC_Interrogator_Precache@@YAXPAUgentity_s@@@Z 201eba40 f   NPC_AI_Interrogator.obj
 0001:001eaf60       ?Boba_ChangeWeapon@@YAXH@Z 201ebf60 f   NPC_AI_Jedi.obj
 0001:001eafc0       ?Boba_DoFlameThrower@@YAXPAUgentity_s@@@Z 201ebfc0 f   NPC_AI_Jedi.obj
 0001:001eb040       ?Boba_FireDecide@@YAXXZ    201ec040 f   NPC_AI_Jedi.obj
 0001:001ec120       ?Boba_FireFlameThrower@@YAXPAUgentity_s@@@Z 201ed120 f   NPC_AI_Jedi.obj
 0001:001ec410       ?Boba_FlyStart@@YAXPAUgentity_s@@@Z 201ed410 f   NPC_AI_Jedi.obj
 0001:001ec540       ?Boba_FlyStop@@YAXPAUgentity_s@@@Z 201ed540 f   NPC_AI_Jedi.obj
 0001:001ec670       ?Boba_Flying@@YAHPAUgentity_s@@@Z 201ed670 f   NPC_AI_Jedi.obj
 0001:001ec6a0       ?Boba_Precache@@YAXXZ      201ed6a0 f   NPC_AI_Jedi.obj
 0001:001ec710       ?Boba_StartFlameThrower@@YAXPAUgentity_s@@@Z 201ed710 f   NPC_AI_Jedi.obj
 0001:001ec8a0       ?Boba_StopKnockdown@@YAHPAUgentity_s@@0QAMH@Z 201ed8a0 f   NPC_AI_Jedi.obj
 0001:001ecee0       ?G_StartMatrixEffect@@YAXPAUgentity_s@@@Z 201edee0 f   NPC_AI_Jedi.obj
 0001:001ed3b0       ?Jedi_Ambush@@YAXPAUgentity_s@@@Z 201ee3b0 f   NPC_AI_Jedi.obj
 0001:001eef80       ?Jedi_CanPullBackSaber@@YAHPAUgentity_s@@@Z 201eff80 f   NPC_AI_Jedi.obj
 0001:001ef080       ?Jedi_CheckAmbushPlayer@@YAHXZ 201f0080 f   NPC_AI_Jedi.obj
 0001:001ef360       ?Jedi_CheckCloak@@YAXXZ    201f0360 f   NPC_AI_Jedi.obj
 0001:001ef480       ?Jedi_CheckDanger@@YAHXZ   201f0480 f   NPC_AI_Jedi.obj
 0001:001f0410       ?Jedi_CheckFlipEvasions@@YA?AW4evasionType_t@@PAUgentity_s@@MM@Z 201f1410 f   NPC_AI_Jedi.obj
 0001:001f2eb0       ?Jedi_ClearTimers@@YAXPAUgentity_s@@@Z 201f3eb0 f   NPC_AI_Jedi.obj
 0001:001f30f0       ?Jedi_Cloak@@YAXPAUgentity_s@@@Z 201f40f0 f   NPC_AI_Jedi.obj
 0001:001f68a0       ?Jedi_Decloak@@YAXPAUgentity_s@@@Z 201f78a0 f   NPC_AI_Jedi.obj
 0001:001f8150       ?Jedi_FindEnemyInCone@@YAPAUgentity_s@@PAU1@0M@Z 201f9150 f   NPC_AI_Jedi.obj
 0001:001fa790       ?Jedi_PlayBlockedPushSound@@YAXPAUgentity_s@@@Z 201fb790 f   NPC_AI_Jedi.obj
 0001:001fa850       ?Jedi_PlayDeflectSound@@YAXPAUgentity_s@@@Z 201fb850 f   NPC_AI_Jedi.obj
 0001:001fa930       ?Jedi_QuickReactions@@YAHPAUgentity_s@@@Z 201fb930 f   NPC_AI_Jedi.obj
 0001:001fab30       ?Jedi_RageStop@@YAXPAUgentity_s@@@Z 201fbb30 f   NPC_AI_Jedi.obj
 0001:001fab90       ?Jedi_ReCalcParryTime@@YAHPAUgentity_s@@W4evasionType_t@@@Z 201fbb90 f   NPC_AI_Jedi.obj
 0001:001fc430       ?Jedi_SaberBlockGo@@YA?AW4evasionType_t@@PAUgentity_s@@PAUusercmd_s@@QAM20M@Z 201fd430 f   NPC_AI_Jedi.obj
 0001:001fe190       ?Jedi_SaberBusy@@YAHPAUgentity_s@@@Z 201ff190 f   NPC_AI_Jedi.obj
 0001:001ff7c0       ?Jedi_WaitingAmbush@@YAHPAUgentity_s@@@Z 202007c0 f   NPC_AI_Jedi.obj
 0001:001ff810       ?NPC_BSJedi_Default@@YAXXZ 20200810 f   NPC_AI_Jedi.obj
 0001:001ffaf0       ?NPC_BSJedi_FollowLeader@@YAXXZ 20200af0 f   NPC_AI_Jedi.obj
 0001:001ffed0       ?NPC_Jedi_Pain@@YAXPAUgentity_s@@0H@Z 20200ed0 f   NPC_AI_Jedi.obj
 0001:002004c0       ?NPC_Jedi_PlayConfusionSound@@YAXPAUgentity_s@@@Z 202014c0 f   NPC_AI_Jedi.obj
 0001:002005c0       ?NPC_Jedi_RateNewEnemy@@YAXPAUgentity_s@@0@Z 202015c0 f   NPC_AI_Jedi.obj
 0001:002007d0       ?NPC_MoveDirClear@@YAHHHH@Z 202017d0 f   NPC_AI_Jedi.obj
 0001:00201080       ?NPC_ShadowTrooper_Precache@@YAXXZ 20202080 f   NPC_AI_Jedi.obj
 0001:002012d0       ?WP_ResistForcePush@@YAXPAUgentity_s@@0H@Z 202022d0 f   NPC_AI_Jedi.obj
 0001:00201c30       ?Mark1Dead_FireBlaster@@YAXXZ 20202c30 f   NPC_AI_Mark1.obj
 0001:00201e00       ?Mark1Dead_FireRocket@@YAXXZ 20202e00 f   NPC_AI_Mark1.obj
 0001:00202130       ?Mark1_AttackDecision@@YAXXZ 20203130 f   NPC_AI_Mark1.obj
 0001:00202430       ?Mark1_BlasterAttack@@YAXH@Z 20203430 f   NPC_AI_Mark1.obj
 0001:00202600       ?Mark1_FireBlaster@@YAXXZ  20203600 f   NPC_AI_Mark1.obj
 0001:00202a10       ?Mark1_FireRocket@@YAXXZ   20203a10 f   NPC_AI_Mark1.obj
 0001:00202e10       ?Mark1_Hunt@@YAXXZ         20203e10 f   NPC_AI_Mark1.obj
 0001:00202e80       ?Mark1_Idle@@YAXXZ         20203e80 f   NPC_AI_Mark1.obj
 0001:00202ec0       ?Mark1_Patrol@@YAXXZ       20203ec0 f   NPC_AI_Mark1.obj
 0001:00202f60       ?Mark1_RocketAttack@@YAXH@Z 20203f60 f   NPC_AI_Mark1.obj
 0001:00202ff0       ?Mark1_die@@YAXPAUgentity_s@@00HHHH@Z 20203ff0 f   NPC_AI_Mark1.obj
 0001:00203090       ?Mark1_dying@@YAXPAUgentity_s@@@Z 20204090 f   NPC_AI_Mark1.obj
 0001:002032c0       ?NPC_BSMark1_Default@@YAXXZ 202042c0 f   NPC_AI_Mark1.obj
 0001:00203340       ?NPC_Mark1_Pain@@YAXPAUgentity_s@@0H@Z 20204340 f   NPC_AI_Mark1.obj
 0001:00203690       ?NPC_Mark1_Part_Explode@@YAXPAUgentity_s@@H@Z 20204690 f   NPC_AI_Mark1.obj
 0001:002037a0       ?NPC_Mark1_Precache@@YAXXZ 202047a0 f   NPC_AI_Mark1.obj
 0001:00203db0       ?Mark2_AttackDecision@@YAXXZ 20204db0 f   NPC_AI_Mark2.obj
 0001:002041d0       ?Mark2_BlasterAttack@@YAXH@Z 202051d0 f   NPC_AI_Mark2.obj
 0001:002042a0       ?Mark2_FireBlaster@@YAXH@Z 202052a0 f   NPC_AI_Mark2.obj
 0001:002045a0       ?Mark2_Hunt@@YAXXZ         202055a0 f   NPC_AI_Mark2.obj
 0001:00204610       ?Mark2_Idle@@YAXXZ         20205610 f   NPC_AI_Mark2.obj
 0001:00204630       ?Mark2_Patrol@@YAXXZ       20205630 f   NPC_AI_Mark2.obj
 0001:00204700       ?NPC_BSMark2_Default@@YAXXZ 20205700 f   NPC_AI_Mark2.obj
 0001:00204780       ?NPC_Mark2_Pain@@YAXPAUgentity_s@@0H@Z 20205780 f   NPC_AI_Mark2.obj
 0001:00204900       ?NPC_Mark2_Part_Explode@@YAXPAUgentity_s@@H@Z 20205900 f   NPC_AI_Mark2.obj
 0001:00204a20       ?NPC_Mark2_Precache@@YAXXZ 20205a20 f   NPC_AI_Mark2.obj
 0001:00204b20       ?MineMonster_Attack@@YAXXZ 20205b20 f   NPC_AI_MineMonster.obj
 0001:00204e80       ?MineMonster_Combat@@YAXXZ 20205e80 f   NPC_AI_MineMonster.obj
 0001:00205000       ?MineMonster_Idle@@YAXXZ   20206000 f   NPC_AI_MineMonster.obj
 0001:00205040       ?MineMonster_Move@@YAXH@Z  20206040 f   NPC_AI_MineMonster.obj
 0001:002050b0       ?MineMonster_Patrol@@YAXXZ 202060b0 f   NPC_AI_MineMonster.obj
 0001:00205300       ?MineMonster_TryDamage@@YAXPAUgentity_s@@H@Z 20206300 f   NPC_AI_MineMonster.obj
 0001:00205580       ?NPC_BSMineMonster_Default@@YAXXZ 20206580 f   NPC_AI_MineMonster.obj
 0001:002055f0       ?NPC_MineMonster_Pain@@YAXPAUgentity_s@@0H@Z 202065f0 f   NPC_AI_MineMonster.obj
 0001:002057a0       ?NPC_MineMonster_Precache@@YAXXZ 202067a0 f   NPC_AI_MineMonster.obj
 0001:00205b20       ?NPC_BSRancor_Default@@YAXXZ 20206b20 f   NPC_AI_Rancor.obj
 0001:002061f0       ?NPC_Rancor_Pain@@YAXPAUgentity_s@@0H@Z 202071f0 f   NPC_AI_Rancor.obj
 0001:002066a0       ?NPC_Rancor_Precache@@YAXXZ 202076a0 f   NPC_AI_Rancor.obj
 0001:00206720       ?Rancor_Attack@@YAXMH@Z    20207720 f   NPC_AI_Rancor.obj
 0001:00207580       ?Rancor_Bite@@YAXXZ        20208580 f   NPC_AI_Rancor.obj
 0001:00207910       ?Rancor_CheckDropVictim@@YAXXZ 20208910 f   NPC_AI_Rancor.obj
 0001:00207c60       ?Rancor_CheckRoar@@YAHPAUgentity_s@@@Z 20208c60 f   NPC_AI_Rancor.obj
 0001:00207d20       ?Rancor_Combat@@YAXXZ      20208d20 f   NPC_AI_Rancor.obj
 0001:002080e0       ?Rancor_Crush@@YAXXZ       202090e0 f   NPC_AI_Rancor.obj
 0001:002081c0       ?Rancor_DropVictim@@YAXPAUgentity_s@@@Z 202091c0 f   NPC_AI_Rancor.obj
 0001:002084f0       ?Rancor_Idle@@YAXXZ        202094f0 f   NPC_AI_Rancor.obj
 0001:00208540       ?Rancor_Move@@YAXH@Z       20209540 f   NPC_AI_Rancor.obj
 0001:002085e0       ?Rancor_Patrol@@YAXXZ      202095e0 f   NPC_AI_Rancor.obj
 0001:00208720       ?Rancor_SetBolts@@YAXPAUgentity_s@@@Z 20209720 f   NPC_AI_Rancor.obj
 0001:00208820       ?Rancor_Smash@@YAXXZ       20209820 f   NPC_AI_Rancor.obj
 0001:00208b70       ?Rancor_Swing@@YAXH@Z      20209b70 f   NPC_AI_Rancor.obj
 0001:00209440       ?NPC_BSRemote_Default@@YAXXZ 2020a440 f   NPC_AI_Remote.obj
 0001:002094a0       ?NPC_Remote_Pain@@YAXPAUgentity_s@@0H@Z 2020a4a0 f   NPC_AI_Remote.obj
 0001:002094f0       ?NPC_Remote_Precache@@YAXXZ 2020a4f0 f   NPC_AI_Remote.obj
 0001:00209540       ?Remote_Attack@@YAXXZ      2020a540 f   NPC_AI_Remote.obj
 0001:00209780       ?Remote_Fire@@YAXXZ        2020a780 f   NPC_AI_Remote.obj
 0001:00209a00       ?Remote_Hunt@@YAXHHH@Z     2020aa00 f   NPC_AI_Remote.obj
 0001:00209d30       ?Remote_Idle@@YAXXZ        2020ad30 f   NPC_AI_Remote.obj
 0001:00209d50       ?Remote_MaintainHeight@@YAXXZ 2020ad50 f   NPC_AI_Remote.obj
 0001:0020a380       ?Remote_Patrol@@YAXXZ      2020b380 f   NPC_AI_Remote.obj
 0001:0020a3f0       ?Remote_Ranged@@YAXHHH@Z   2020b3f0 f   NPC_AI_Remote.obj
 0001:0020a490       ?Remote_Strafe@@YAXXZ      2020b490 f   NPC_AI_Remote.obj
 0001:0020aad0       ?NPC_BSSand_creature_Default@@YAXXZ 2020bad0 f   NPC_AI_Sand_creature.obj
 0001:0020b230       ?NPC_Sand_creature_Precache@@YAXXZ 2020c230 f   NPC_AI_Sand_creature.obj
 0001:0020b260       ?Sand_creature_Attack@@YAXM@Z 2020c260 f   NPC_AI_Sand_creature.obj
 0001:0020b490       ?Sand_creature_Bite@@YAXXZ 2020c490 f   NPC_AI_Sand_creature.obj
 0001:0020b6e0       ?Sand_creature_CheckRoar@@YAHPAUgentity_s@@@Z 2020c6e0 f   NPC_AI_Sand_creature.obj
 0001:0020b790       ?Sand_creature_Combat@@YAXXZ 2020c790 f   NPC_AI_Sand_creature.obj
 0001:0020b9a0       ?Sand_creature_Idle@@YAXXZ 2020c9a0 f   NPC_AI_Sand_creature.obj
 0001:0020b9f0       ?Sand_creature_Move@@YAXH@Z 2020c9f0 f   NPC_AI_Sand_creature.obj
 0001:0020bdc0       ?Sand_creature_Patrol@@YAXXZ 2020cdc0 f   NPC_AI_Sand_creature.obj
 0001:0020bf00       ?Sand_creature_SetBolts@@YAXPAUgentity_s@@@Z 2020cf00 f   NPC_AI_Sand_creature.obj
 0001:0020c020       ?NPC_BSSeeker_Default@@YAXXZ 2020d020 f   NPC_AI_Seeker.obj
 0001:0020c220       ?NPC_Seeker_Pain@@YAXPAUgentity_s@@0H@Z 2020d220 f   NPC_AI_Seeker.obj
 0001:0020c2c0       ?NPC_Seeker_Precache@@YAXXZ 2020d2c0 f   NPC_AI_Seeker.obj
 0001:0020c310       ?Seeker_Attack@@YAXXZ      2020d310 f   NPC_AI_Seeker.obj
 0001:0020c440       ?Seeker_FindEnemy@@YAXXZ   2020d440 f   NPC_AI_Seeker.obj
 0001:0020c770       ?Seeker_Fire@@YAXXZ        2020d770 f   NPC_AI_Seeker.obj
 0001:0020ca80       ?Seeker_FollowOwner@@YAXXZ 2020da80 f   NPC_AI_Seeker.obj
 0001:0020d190       ?Seeker_Hunt@@YAXHH@Z      2020e190 f   NPC_AI_Seeker.obj
 0001:0020d4a0       ?Seeker_MaintainHeight@@YAXXZ 2020e4a0 f   NPC_AI_Seeker.obj
 0001:0020db90       ?Seeker_Ranged@@YAXHH@Z    2020eb90 f   NPC_AI_Seeker.obj
 0001:0020dcb0       ?Seeker_Strafe@@YAXXZ      2020ecb0 f   NPC_AI_Seeker.obj
 0001:0020ed40       ?NPC_BSSentry_Default@@YAXXZ 2020fd40 f   NPC_AI_Sentry.obj
 0001:0020edd0       ?NPC_Sentry_Pain@@YAXPAUgentity_s@@0H@Z 2020fdd0 f   NPC_AI_Sentry.obj
 0001:0020eed0       ?NPC_Sentry_Patrol@@YAXXZ  2020fed0 f   NPC_AI_Sentry.obj
 0001:0020efe0       ?NPC_Sentry_Precache@@YAXXZ 2020ffe0 f   NPC_AI_Sentry.obj
 0001:0020f0d0       ?Sentry_AttackDecision@@YAXXZ 202100d0 f   NPC_AI_Sentry.obj
 0001:0020f2f0       ?Sentry_Fire@@YAXXZ        202102f0 f   NPC_AI_Sentry.obj
 0001:0020f730       ?Sentry_Hunt@@YAXHH@Z      20210730 f   NPC_AI_Sentry.obj
 0001:0020fa40       ?Sentry_Idle@@YAXXZ        20210a40 f   NPC_AI_Sentry.obj
 0001:0020fb00       ?Sentry_MaintainHeight@@YAXXZ 20210b00 f   NPC_AI_Sentry.obj
 0001:00210150       ?Sentry_RangedAttack@@YAXHH@Z 20211150 f   NPC_AI_Sentry.obj
 0001:00210320       ?Sentry_Strafe@@YAXXZ      20211320 f   NPC_AI_Sentry.obj
 0001:002106e0       ?sentry_use@@YAXPAUgentity_s@@00@Z 202116e0 f   NPC_AI_Sentry.obj
 0001:002108c0       ?NPC_BSSniper_Attack@@YAXXZ 202118c0 f   NPC_AI_Sniper.obj
 0001:002111f0       ?NPC_BSSniper_Default@@YAXXZ 202121f0 f   NPC_AI_Sniper.obj
 0001:00211230       ?NPC_BSSniper_Patrol@@YAXXZ 20212230 f   NPC_AI_Sniper.obj
 0001:00211790       ?NPC_Sniper_Pain@@YAXPAUgentity_s@@0H@Z 20212790 f   NPC_AI_Sniper.obj
 0001:00211850       ?NPC_Sniper_PlayConfusionSound@@YAXPAUgentity_s@@@Z 20212850 f   NPC_AI_Sniper.obj
 0001:00211f80       ?Sniper_ClearTimers@@YAXPAUgentity_s@@@Z 20212f80 f   NPC_AI_Sniper.obj
 0001:002120c0       ?Sniper_EvaluateShot@@YAHH@Z 202130c0 f   NPC_AI_Sniper.obj
 0001:002121e0       ?Sniper_FaceEnemy@@YAXXZ   202131e0 f   NPC_AI_Sniper.obj
 0001:002133f0       ?Sniper_StartHide@@YAXXZ   202143f0 f   NPC_AI_Sniper.obj
 0001:00213490       ?Sniper_UpdateEnemyPos@@YAXXZ 20214490 f   NPC_AI_Sniper.obj
 0001:002139a0       ?NPC_BSST_Attack@@YAXXZ    202149a0 f   NPC_AI_Stormtrooper.obj
 0001:00214780       ?NPC_BSST_Default@@YAXXZ   20215780 f   NPC_AI_Stormtrooper.obj
 0001:002147e0       ?NPC_BSST_Investigate@@YAXXZ 202157e0 f   NPC_AI_Stormtrooper.obj
 0001:00214b20       ?NPC_BSST_Patrol@@YAXXZ    20215b20 f   NPC_AI_Stormtrooper.obj
 0001:00214f00       ?NPC_BSST_Sleep@@YAXXZ     20215f00 f   NPC_AI_Stormtrooper.obj
 0001:00214fc0       ?NPC_CheckEnemyStealth@@YAHPAUgentity_s@@@Z 20215fc0 f   NPC_AI_Stormtrooper.obj
 0001:00215b70       ?NPC_CheckPlayerTeamStealth@@YAHXZ 20216b70 f   NPC_AI_Stormtrooper.obj
 0001:00216620       ?NPC_ST_Pain@@YAXPAUgentity_s@@0H@Z 20217620 f   NPC_AI_Stormtrooper.obj
 0001:002166f0       ?NPC_ST_SayMovementSpeech@@YAXXZ 202176f0 f   NPC_AI_Stormtrooper.obj
 0001:00216920       ?NPC_ST_StoreMovementSpeech@@YAXHM@Z 20217920 f   NPC_AI_Stormtrooper.obj
 0001:00216960       ?ST_AggressionAdjust@@YAXPAUgentity_s@@H@Z 20217960 f   NPC_AI_Stormtrooper.obj
 0001:00216a40       ?ST_ApproachEnemy@@YAHPAUgentity_s@@@Z 20217a40 f   NPC_AI_Stormtrooper.obj
 0001:00217760       ?ST_ClearTimers@@YAXPAUgentity_s@@@Z 20218760 f   NPC_AI_Stormtrooper.obj
 0001:002178c0       ?ST_Commander@@YAXXZ       202188c0 f   NPC_AI_Stormtrooper.obj
 0001:00219340       ?ST_GetCPFlags@@YAHXZ      2021a340 f   NPC_AI_Stormtrooper.obj
 0001:00219710       ?ST_HuntEnemy@@YAXPAUgentity_s@@@Z 2021a710 f   NPC_AI_Stormtrooper.obj
 0001:002199c0       ?ST_MarkToCover@@YAXPAUgentity_s@@@Z 2021a9c0 f   NPC_AI_Stormtrooper.obj
 0001:00219e30       ?ST_ResolveBlockedShot@@YAXH@Z 2021ae30 f   NPC_AI_Stormtrooper.obj
 0001:0021a510       ?ST_StartFlee@@YAXPAUgentity_s@@0QAMHHH@Z 2021b510 f   NPC_AI_Stormtrooper.obj
 0001:0021a5c0       ?ST_TrackEnemy@@YAXPAUgentity_s@@QAM@Z 2021b5c0 f   NPC_AI_Stormtrooper.obj
 0001:0021a6e0       ?ST_TransferMoveGoal@@YAXPAUgentity_s@@0@Z 2021b6e0 f   NPC_AI_Stormtrooper.obj
 0001:0021a900       ?ST_TransferTimers@@YAXPAUgentity_s@@0@Z 2021b900 f   NPC_AI_Stormtrooper.obj
 0001:0021ac40       ?AI_CheckEnemyCollision@@YAHPAUgentity_s@@H@Z 2021bc40 f   NPC_AI_Utils.obj
 0001:0021ad10       ?AI_ClosestGroupEntityNumToPoint@@YAHPAUAIGroupInfo_s@@QAM@Z 2021bd10 f   NPC_AI_Utils.obj
 0001:0021ae20       ?AI_DeleteGroupMember@@YAXPAUAIGroupInfo_s@@H@Z 2021be20 f   NPC_AI_Utils.obj
 0001:0021af80       ?AI_DeleteSelfFromGroup@@YAXPAUgentity_s@@@Z 2021bf80 f   NPC_AI_Utils.obj
 0001:0021b020       ?AI_DistributeAttack@@YAPAUgentity_s@@PAU1@0HH@Z 2021c020 f   NPC_AI_Utils.obj
 0001:0021b2e0       ?AI_FindSelfInPreviousGroup@@YAHPAUgentity_s@@@Z 2021c2e0 f   NPC_AI_Utils.obj
 0001:0021b3b0       ?AI_GetGroup@@YAXPAUgentity_s@@@Z 2021c3b0 f   NPC_AI_Utils.obj
 0001:0021b840       ?AI_GetGroupSize2@@YAHPAUgentity_s@@H@Z 2021c840 f   NPC_AI_Utils.obj
 0001:0021b8b0       ?AI_GetGroupSize@@YAHQAMHHPAUgentity_s@@@Z 2021c8b0 f   NPC_AI_Utils.obj
 0001:0021ba90       ?AI_GetNextEmptyGroup@@YAHPAUgentity_s@@@Z 2021ca90 f   NPC_AI_Utils.obj
 0001:0021bb50       ?AI_GroupContainsEntNum@@YAHPAUAIGroupInfo_s@@H@Z 2021cb50 f   NPC_AI_Utils.obj
 0001:0021bbc0       ?AI_GroupMemberKilled@@YAXPAUgentity_s@@@Z 2021cbc0 f   NPC_AI_Utils.obj
 0001:0021bfa0       ?AI_GroupUpdateClearShotTime@@YAXPAUAIGroupInfo_s@@@Z 2021cfa0 f   NPC_AI_Utils.obj
 0001:0021bfd0       ?AI_GroupUpdateEnemyLastSeen@@YAXPAUAIGroupInfo_s@@QAM@Z 2021cfd0 f   NPC_AI_Utils.obj
 0001:0021c070       ?AI_GroupUpdateSquadstates@@YAXPAUAIGroupInfo_s@@PAUgentity_s@@H@Z 2021d070 f   NPC_AI_Utils.obj
 0001:0021c180       ?AI_InsertGroupMember@@YAXPAUAIGroupInfo_s@@PAUgentity_s@@@Z 2021d180 f   NPC_AI_Utils.obj
 0001:0021c2a0       ?AI_RefreshGroup@@YAHPAUAIGroupInfo_s@@@Z 2021d2a0 f   NPC_AI_Utils.obj
 0001:0021c980       ?AI_SetClosestBuddy@@YAXPAUAIGroupInfo_s@@@Z 2021d980 f   NPC_AI_Utils.obj
 0001:0021ca90       ?AI_SetNewGroupCommander@@YAXPAUAIGroupInfo_s@@@Z 2021da90 f   NPC_AI_Utils.obj
 0001:0021cb70       ?AI_SortGroupByPathCostToEnemy@@YAXPAUAIGroupInfo_s@@@Z 2021db70 f   NPC_AI_Utils.obj
 0001:0021cf90       ?AI_TryJoinPreviousGroup@@YAHPAUgentity_s@@@Z 2021df90 f   NPC_AI_Utils.obj
 0001:0021d060       ?AI_UpdateGroups@@YAXXZ    2021e060 f   NPC_AI_Utils.obj
 0001:0021d100       ?AI_ValidateGroupMember@@YAHPAUAIGroupInfo_s@@PAUgentity_s@@@Z 2021e100 f   NPC_AI_Utils.obj
 0001:0021d450       ?AI_ValidateNoEnemyGroupMember@@YAHPAUAIGroupInfo_s@@PAUgentity_s@@@Z 2021e450 f   NPC_AI_Utils.obj
 0001:0021da20       ?NPC_BSWampa_Default@@YAXXZ 2021ea20 f   NPC_AI_Wampa.obj
 0001:0021e0b0       ?NPC_Wampa_Pain@@YAXPAUgentity_s@@0H@Z 2021f0b0 f   NPC_AI_Wampa.obj
 0001:0021e560       ?NPC_Wampa_Precache@@YAXXZ 2021f560 f   NPC_AI_Wampa.obj
 0001:0021e640       ?Wampa_Attack@@YAXMH@Z     2021f640 f   NPC_AI_Wampa.obj
 0001:0021ec00       ?Wampa_CheckRoar@@YAHPAUgentity_s@@@Z 2021fc00 f   NPC_AI_Wampa.obj
 0001:0021ecc0       ?Wampa_Combat@@YAXXZ       2021fcc0 f   NPC_AI_Wampa.obj
 0001:0021f0c0       ?Wampa_Idle@@YAXXZ         202200c0 f   NPC_AI_Wampa.obj
 0001:0021f110       ?Wampa_Move@@YAXH@Z        20220110 f   NPC_AI_Wampa.obj
 0001:0021f3b0       ?Wampa_Patrol@@YAXXZ       202203b0 f   NPC_AI_Wampa.obj
 0001:0021f4f0       ?Wampa_SetBolts@@YAXPAUgentity_s@@@Z 202204f0 f   NPC_AI_Wampa.obj
 0001:0021f670       ?Wampa_Slash@@YAXHH@Z      20220670 f   NPC_AI_Wampa.obj
 0001:0021fe60       ?BeamOut@@YAXPAUgentity_s@@@Z 20220e60 f   NPC_behavior.obj
 0001:0021fee0       ?Disappear@@YAXPAUgentity_s@@@Z 20220ee0 f   NPC_behavior.obj
 0001:00220090       ?G_StartFlee@@YAXPAUgentity_s@@0QAMHHH@Z 20221090 f   NPC_behavior.obj
 0001:00220100       ?NPC_BSAdvanceFight@@YAXXZ 20221100 f   NPC_behavior.obj
 0001:00220cc0       ?NPC_BSCinematic@@YAXXZ    20221cc0 f   NPC_behavior.obj
 0001:00220eb0       ?NPC_BSEmplaced@@YAXXZ     20221eb0 f   NPC_behavior.obj
 0001:00221250       ?NPC_BSFlee@@YAXXZ         20222250 f   NPC_behavior.obj
 0001:002219f0       ?NPC_BSFollowLeader@@YAXXZ 202229f0 f   NPC_behavior.obj
 0001:00222910       ?NPC_BSInvestigate@@YAXXZ  20223910 f   NPC_behavior.obj
 0001:00222930       ?NPC_BSJump@@YAXXZ         20223930 f   NPC_behavior.obj
 0001:00223ae0       ?NPC_BSNoClip@@YAXXZ       20224ae0 f   NPC_behavior.obj
 0001:00223f40       ?NPC_BSRemove@@YAXXZ       20224f40 f   NPC_behavior.obj
 0001:00224060       ?NPC_BSSearch@@YAXXZ       20225060 f   NPC_behavior.obj
 0001:00224840       ?NPC_BSSearchStart@@YAXHW4bState_t@@@Z 20225840 f   NPC_behavior.obj
 0001:00224930       ?NPC_BSSleep@@YAXXZ        20225930 f   NPC_behavior.obj
 0001:00224980       ?NPC_BSWait@@YAXXZ         20225980 f   NPC_behavior.obj
 0001:002249b0       ?NPC_BSWander@@YAXXZ       202259b0 f   NPC_behavior.obj
 0001:00224fb0       ?NPC_CheckInvestigate@@YAHH@Z 20225fb0 f   NPC_behavior.obj
 0001:002253c0       ?NPC_CheckSurrender@@YAHXZ 202263c0 f   NPC_behavior.obj
 0001:002256f0       ?NPC_StartFlee@@YAXPAUgentity_s@@QAMHHH@Z 202266f0 f   NPC_behavior.obj
 0001:00225b30       ?NPC_Surrender@@YAXXZ      20226b30 f   NPC_behavior.obj
 0001:00225df0       ?CP_FindCombatPointWaypoints@@YAXXZ 20226df0 f   NPC_combat.obj
 0001:00225e90       ?CanShoot@@YAHPAUgentity_s@@0@Z 20226e90 f   NPC_combat.obj
 0001:002261b0       ?ChangeWeapon@@YAXPAUgentity_s@@H@Z 202271b0 f   NPC_combat.obj
 0001:00226cb0       ?EntIsGlass@@YAHPAUgentity_s@@@Z 20227cb0 f   NPC_combat.obj
 0001:00226d20       ?G_AimSet@@YAXPAUgentity_s@@H@Z 20227d20 f   NPC_combat.obj
 0001:00226db0       ?G_AngerAlert@@YAXPAUgentity_s@@@Z 20227db0 f   NPC_combat.obj
 0001:00226e60       ?G_AttackDelay@@YAXPAUgentity_s@@0@Z 20227e60 f   NPC_combat.obj
 0001:00227590       ?G_ClearEnemy@@YAXPAUgentity_s@@@Z 20228590 f   NPC_combat.obj
 0001:00227660       ?G_ForceSaberOn@@YAXPAUgentity_s@@@Z 20228660 f   NPC_combat.obj
 0001:00227790       ?G_SetEnemy@@YAXPAUgentity_s@@0@Z 20228790 f   NPC_combat.obj
 0001:00227ce0       ?G_TeamEnemy@@YAHPAUgentity_s@@@Z 20228ce0 f   NPC_combat.obj
 0001:00227e60       ?HaveWeapon@@YAHH@Z        20228e60 f   NPC_combat.obj
 0001:00227ea0       ?IdealDistance@@YAMPAUgentity_s@@@Z 20228ea0 f   NPC_combat.obj
 0001:00227f30       ?NPC_AimAdjust@@YAXH@Z     20228f30 f   NPC_combat.obj
 0001:002280b0       ?NPC_ApplyWeaponFireDelay@@YAXXZ 202290b0 f   NPC_combat.obj
 0001:00228150       ?NPC_AttackDebounceForWeapon@@YAHXZ 20229150 f   NPC_combat.obj
 0001:002281a0       ?NPC_ChangeWeapon@@YAXH@Z  202291a0 f   NPC_combat.obj
 0001:002281c0       ?NPC_CheckAttack@@YAHM@Z   202291c0 f   NPC_combat.obj
 0001:00228280       ?NPC_CheckCanAttack@@YAHMH@Z 20229280 f   NPC_combat.obj
 0001:00228f70       ?NPC_CheckDefend@@YAHM@Z   20229f70 f   NPC_combat.obj
 0001:00229010       ?NPC_CheckEnemy@@YAPAUgentity_s@@HHH@Z 2022a010 f   NPC_combat.obj
 0001:00229520       ?NPC_CheckGetNewWeapon@@YAXXZ 2022a520 f   NPC_combat.obj
 0001:00229630       ?NPC_CheckPossibleEnemy@@YAXPAUgentity_s@@W4visibility_t@@@Z 2022a630 f   NPC_combat.obj
 0001:00229940       ?NPC_ClearShot@@YAHPAUgentity_s@@@Z 2022a940 f   NPC_combat.obj
 0001:00229cd0       ?NPC_EnemyTooFar@@YAHPAUgentity_s@@MH@Z 2022acd0 f   NPC_combat.obj
 0001:00229e60       ?NPC_EvaluateShot@@YAHHH@Z 2022ae60 f   NPC_combat.obj
 0001:00229ee0       ?NPC_FindCombatPoint@@YAHQBM0QAMHMH@Z 2022aee0 f   NPC_combat.obj
 0001:0022ab60       ?NPC_FindSquadPoint@@YAHQAM@Z 2022bb60 f   NPC_combat.obj
 0001:0022ac20       ?NPC_FreeCombatPoint@@YAHHH@Z 2022bc20 f   NPC_combat.obj
 0001:0022ac90       ?NPC_MaxDistSquaredForWeapon@@YAMXZ 2022bc90 f   NPC_combat.obj
 0001:0022aef0       ?NPC_PickAlly@@YAPAUgentity_s@@HMHH@Z 2022bef0 f   NPC_combat.obj
 0001:0022b400       ?NPC_PickEnemy@@YAPAUgentity_s@@PAU1@HHHH@Z 2022c400 f   NPC_combat.obj
 0001:0022c380       ?NPC_ReserveCombatPoint@@YAHH@Z 2022d380 f   NPC_combat.obj
 0001:0022c3e0       ?NPC_SearchForWeapons@@YAPAUgentity_s@@XZ 2022d3e0 f   NPC_combat.obj
 0001:0022c610       ?NPC_SetCombatPoint@@YAHH@Z 2022d610 f   NPC_combat.obj
 0001:0022c690       ?NPC_SetPickUpGoal@@YAXPAUgentity_s@@@Z 2022d690 f   NPC_combat.obj
 0001:0022c810       ?NPC_ShotEntity@@YAHPAUgentity_s@@QAM@Z 2022d810 f   NPC_combat.obj
 0001:0022cc20       ?SP_point_combat@@YAXPAUgentity_s@@@Z 2022dc20 f   NPC_combat.obj
 0001:0022ce10       ?ShootThink@@YAXXZ         2022de10 f   NPC_combat.obj
 0001:0022d0c0       ?ShotThroughGlass@@YAHPAUtrace_t@@PAUgentity_s@@QAMH@Z 2022e0c0 f   NPC_combat.obj
 0001:0022d1d0       ?ValidEnemy@@YAHPAUgentity_s@@@Z 2022e1d0 f   NPC_combat.obj
 0001:0022d4d0       ?WeaponThink@@YAXH@Z       2022e4d0 f   NPC_combat.obj
 0001:0022d5a0       ?G_BoundsOverlap@@YAHQBM000@Z 2022e5a0 f   NPC_goal.obj
 0001:0022d6e0       ?NPC_ClearGoal@@YAXXZ      2022e6e0 f   NPC_goal.obj
 0001:0022d7b0       ?NPC_ReachedGoal@@YAXXZ    2022e7b0 f   NPC_goal.obj
 0001:0022d820       ?NPC_SetGoal@@YAXPAUgentity_s@@M@Z 2022e820 f   NPC_goal.obj
 0001:0022d8c0       ?ReachedGoal@@YAHPAUgentity_s@@@Z 2022e8c0 f   NPC_goal.obj
 0001:0022d970       ?SetGoal@@YAXPAUgentity_s@@M@Z 2022e970 f   NPC_goal.obj
 0001:0022d9b0       ?UpdateGoal@@YAPAUgentity_s@@XZ 2022e9b0 f   NPC_goal.obj
 0001:0022da40       ?Debug_NPCPrintf@@YAXPAUgentity_s@@PAUvmCvar_t@@HPADZZ 2022ea40 f   NPC_misc.obj
 0001:0022db40       ?Debug_Printf@@YAXPAUvmCvar_t@@HPADZZ 2022eb40 f   NPC_misc.obj
 0001:0022dd30       ?G_UcmdMoveForDir@@YAXPAUgentity_s@@PAUusercmd_s@@QAM@Z 2022ed30 f   NPC_move.obj
 0001:0022e020       ?NAV_GetLastMove@@YAXPAUnavInfo_s@@@Z 2022f020 f   NPC_move.obj
 0001:0022e050       ?NPC_ApplyRoff@@YAXXZ      2022f050 f   NPC_move.obj
 0001:0022e0a0       ?NPC_CheckCombatMove@@YAHXZ 2022f0a0 f i NPC_move.obj
 0001:0022e160       ?NPC_ClearPathToGoal@@YAHQAMPAUgentity_s@@@Z 2022f160 f   NPC_move.obj
 0001:0022e3e0       ?NPC_GetMoveDirection@@YAHQAMPAM@Z 2022f3e0 f   NPC_move.obj
 0001:0022e7d0       ?NPC_GetMoveDirectionAltRoute@@YAHQAMPAMH@Z 2022f7d0 f   NPC_move.obj
 0001:0022ec60       ?NPC_GetMoveInformation@@YAHQAMPAM@Z 2022fc60 f i NPC_move.obj
 0001:0022ef20       ?NPC_MoveToGoal@@YAHH@Z    2022ff20 f   NPC_move.obj
 0001:0022f1e0       ?NPC_SlideMoveToGoal@@YAHXZ 202301e0 f   NPC_move.obj
 0001:0022f310       ?NPC_CheckAllClear@@YAXXZ  20230310 f   NPC_reactions.obj
 0001:0022f530       ?NPC_CheckPlayerAim@@YAXXZ 20230530 f   NPC_reactions.obj
 0001:0022f550       ?NPC_ChoosePainAnimation@@YAXPAUgentity_s@@0QAMHHHH@Z 20230550 f   NPC_reactions.obj
 0001:0022faf0       ?NPC_GetPainChance@@YAMPAUgentity_s@@H@Z 20230af0 f   NPC_reactions.obj
 0001:0022fc70       ?NPC_Pain@@YAXPAUgentity_s@@0H@Z 20230c70 f   NPC_reactions.obj
 0001:002302f0       ?NPC_Respond@@YAXPAUgentity_s@@H@Z 202312f0 f   NPC_reactions.obj
 0001:00230bc0       ?NPC_SetPainEvent@@YAXPAUgentity_s@@@Z 20231bc0 f   NPC_reactions.obj
 0001:00230c90       ?NPC_TempLookTarget@@YAXPAUgentity_s@@HHH@Z 20231c90 f   NPC_reactions.obj
 0001:00230d40       ?NPC_Touch@@YAXPAUgentity_s@@0PAUtrace_t@@@Z 20231d40 f   NPC_reactions.obj
 0001:00230ee0       ?NPC_Use@@YAXPAUgentity_s@@00@Z 20231ee0 f   NPC_reactions.obj
 0001:002310d0       ?NPC_UseResponse@@YAXPAUgentity_s@@0H@Z 202320d0 f   NPC_reactions.obj
 0001:002311f0       ?AddSightEvent@@YAXPAUgentity_s@@QAMMW4alertEventLevel_e@@M@Z 202321f0 f   NPC_senses.obj
 0001:00231380       ?AddSoundEvent@@YAXPAUgentity_s@@QAMMW4alertEventLevel_e@@H@Z 20232380 f   NPC_senses.obj
 0001:00231540       ?CanSee@@YAHPAUgentity_s@@@Z 20232540 f   NPC_senses.obj
 0001:00231720       ?ClearPlayerAlertEvents@@YAXXZ 20232720 f   NPC_senses.obj
 0001:002319e0       ?G_CheckAlertEvents@@YAHPAUgentity_s@@HHMMHHH@Z 202329e0 f   NPC_senses.obj
 0001:00231cb0       ?G_CheckForDanger@@YAHPAUgentity_s@@H@Z 20232cb0 f   NPC_senses.obj
 0001:002321c0       ?G_ClearLOS2@@YAHPAUgentity_s@@0QBM@Z 202331c0 f   NPC_senses.obj
 0001:00232220       ?G_ClearLOS3@@YAHPAUgentity_s@@QBM0@Z 20233220 f   NPC_senses.obj
 0001:002322d0       ?G_ClearLOS4@@YAHPAUgentity_s@@0@Z 202332d0 f   NPC_senses.obj
 0001:00232330       ?G_ClearLOS5@@YAHPAUgentity_s@@QBM@Z 20233330 f   NPC_senses.obj
 0001:00232390       ?G_ClearLOS@@YAHPAUgentity_s@@QBM1@Z 20233390 f   NPC_senses.obj
 0001:002324c0       ?G_ClearLineOfSight@@YAHQBM0HH@Z 202334c0 f   NPC_senses.obj
 0001:00232620       ?G_FindLocalInterestPoint@@YAHPAUgentity_s@@@Z 20233620 f   NPC_senses.obj
 0001:002329a0       ?G_GetLightLevel@@YAMQAM0@Z 202339a0 f   NPC_senses.obj
 0001:002329d0       ?InFOV2@@YAHQAMPAUgentity_s@@HH@Z 202339d0 f   NPC_senses.obj
 0001:00232b30       ?InFOV3@@YAHQAM00HH@Z      20233b30 f   NPC_senses.obj
 0001:00232d40       ?InFOV@@YAHPAUgentity_s@@0HH@Z 20233d40 f   NPC_senses.obj
 0001:00233510       ?InFront@@YAHQAM00M@Z      20234510 f   NPC_senses.obj
 0001:00233750       ?InVisrange@@YAHPAUgentity_s@@@Z 20234750 f   NPC_senses.obj
 0001:002338b0       ?NPC_CheckAlertEvents@@YAHHHHHH@Z 202348b0 f   NPC_senses.obj
 0001:00233920       ?NPC_CheckForDanger@@YAHH@Z 20234920 f   NPC_senses.obj
 0001:00233950       ?NPC_CheckVisibility@@YA?AW4visibility_t@@PAUgentity_s@@H@Z 20234950 f   NPC_senses.obj
 0001:00233ad0       ?NPC_GetHFOVPercentage@@YAMQAM00M@Z 20234ad0 f   NPC_senses.obj
 0001:00233c50       ?NPC_GetVFOVPercentage@@YAMQAM00M@Z 20234c50 f   NPC_senses.obj
 0001:00233dd0       ?RemoveOldestAlert@@YAHXZ  20234dd0 f   NPC_senses.obj
 0001:00233f30       ?SP_target_interest@@YAXPAUgentity_s@@@Z 20234f30 f   NPC_senses.obj
 0001:002341e0       ?G_AddVoiceEvent@@YAXPAUgentity_s@@HH@Z 202351e0 f   NPC_sounds.obj
 0001:00234340       ?NPC_PlayConfusionSound@@YAXPAUgentity_s@@@Z 20235340 f   NPC_sounds.obj
 0001:002344b0       ?Cmd_NPC_f@@YAXPAUgentity_s@@@Z 202354b0 f   NPC_spawn.obj
 0001:00234960       ?NPC_Begin@@YAXPAUgentity_s@@@Z 20235960 f   NPC_spawn.obj
 0001:00235ee0       ?NPC_DefaultScriptFlags@@YAXPAUgentity_s@@@Z 20236ee0 f   NPC_spawn.obj
 0001:00235f30       ?NPC_Kill_f@@YAXXZ         20236f30 f   NPC_spawn.obj
 0001:002365f0       ?NPC_PainFunc@@YAP6AXPAUgentity_s@@0H@Z0@Z 202375f0 f   NPC_spawn.obj
 0001:002367b0       ?NPC_PrecacheType@@YAXPAD@Z 202377b0 f   NPC_spawn.obj
 0001:00236810       ?NPC_PrintScore@@YAXPAUgentity_s@@@Z 20237810 f   NPC_spawn.obj
 0001:00236860       ?NPC_SetFX_SpawnStates@@YAXPAUgentity_s@@@Z 20237860 f   NPC_spawn.obj
 0001:002368b0       ?NPC_SetMiscDefaultData@@YAXPAUgentity_s@@@Z 202378b0 f   NPC_spawn.obj
 0001:002372d0       ?NPC_SetWeapons@@YAXPAUgentity_s@@@Z 202382d0 f   NPC_spawn.obj
 0001:00237470       ?NPC_ShySpawn@@YAXPAUgentity_s@@@Z 20238470 f   NPC_spawn.obj
 0001:00237580       ?NPC_Spawn@@YAXPAUgentity_s@@00@Z 20238580 f   NPC_spawn.obj
 0001:00237670       ?NPC_SpawnEffect@@YAXPAUgentity_s@@@Z 20238670 f   NPC_spawn.obj
 0001:002377b0       ?NPC_SpawnType@@YAPAUgentity_s@@PAU1@PAD1H@Z 202387b0 f   NPC_spawn.obj
 0001:00237fb0       ?NPC_Spawn_Do@@YAPAUgentity_s@@PAU1@@Z 20238fb0 f   NPC_spawn.obj
 0001:00239590       ?NPC_Spawn_Go@@YAXPAUgentity_s@@@Z 2023a590 f   NPC_spawn.obj
 0001:002395c0       ?NPC_Spawn_Tjo@@YAXPAUgentity_s@@@Z 2023a5c0 f   NPC_spawn.obj
 0001:0023adb0       ?NPC_Spawn_f@@YAXPAUgentity_s@@@Z 2023bdb0 f   NPC_spawn.obj
 0001:0023aec0       ?NPC_SpotWouldTelefrag@@YAHPAUgentity_s@@@Z 2023bec0 f   NPC_spawn.obj
 0001:0023b310       ?NPC_TouchFunc@@YAP6AXPAUgentity_s@@0PAUtrace_t@@@Z0@Z 2023c310 f   NPC_spawn.obj
 0001:0023b330       ?NPC_VehiclePrecache@@YAHPAUgentity_s@@@Z 2023c330 f   NPC_spawn.obj
 0001:0023b6a0       ?NPC_VehicleSpawnUse@@YAXPAUgentity_s@@00@Z 2023c6a0 f   NPC_spawn.obj
 0001:0023b710       ?NPC_WeaponsForTeam@@YAHHHPBD@Z 2023c710 f   NPC_spawn.obj
 0001:0023be20       ?New_NPC_t@@YAPAUgNPC_t@@H@Z 2023ce20 f   NPC_spawn.obj
 0001:0023be50       ?SP_LMD_spawner@@YAXPAUgentity_s@@@Z 2023ce50 f   NPC_spawn.obj
 0001:0023c440       ?SP_NPC_Alora@@YAXPAUgentity_s@@@Z 2023d440 f   NPC_spawn.obj
 0001:0023c4a0       ?SP_NPC_Bartender@@YAXPAUgentity_s@@@Z 2023d4a0 f   NPC_spawn.obj
 0001:0023c4e0       ?SP_NPC_BespinCop@@YAXPAUgentity_s@@@Z 2023d4e0 f   NPC_spawn.obj
 0001:0023c550       ?SP_NPC_Cultist@@YAXPAUgentity_s@@@Z 2023d550 f   NPC_spawn.obj
 0001:0023c700       ?SP_NPC_Cultist_Commando@@YAXPAUgentity_s@@@Z 2023d700 f   NPC_spawn.obj
 0001:0023c750       ?SP_NPC_Cultist_Destroyer@@YAXPAUgentity_s@@@Z 2023d750 f   NPC_spawn.obj
 0001:0023c790       ?SP_NPC_Cultist_Saber@@YAXPAUgentity_s@@@Z 2023d790 f   NPC_spawn.obj
 0001:0023c8e0       ?SP_NPC_Cultist_Saber_Powers@@YAXPAUgentity_s@@@Z 2023d8e0 f   NPC_spawn.obj
 0001:0023ca30       ?SP_NPC_Desann@@YAXPAUgentity_s@@@Z 2023da30 f   NPC_spawn.obj
 0001:0023ca80       ?SP_NPC_Droid_ATST@@YAXPAUgentity_s@@@Z 2023da80 f   NPC_spawn.obj
 0001:0023cae0       ?SP_NPC_Droid_Gonk@@YAXPAUgentity_s@@@Z 2023dae0 f   NPC_spawn.obj
 0001:0023cb20       ?SP_NPC_Droid_Interrogator@@YAXPAUgentity_s@@@Z 2023db20 f   NPC_spawn.obj
 0001:0023cb70       ?SP_NPC_Droid_Mark1@@YAXPAUgentity_s@@@Z 2023db70 f   NPC_spawn.obj
 0001:0023cbb0       ?SP_NPC_Droid_Mark2@@YAXPAUgentity_s@@@Z 2023dbb0 f   NPC_spawn.obj
 0001:0023cbf0       ?SP_NPC_Droid_Mouse@@YAXPAUgentity_s@@@Z 2023dbf0 f   NPC_spawn.obj
 0001:0023cc30       ?SP_NPC_Droid_Probe@@YAXPAUgentity_s@@@Z 2023dc30 f   NPC_spawn.obj
 0001:0023cc70       ?SP_NPC_Droid_Protocol@@YAXPAUgentity_s@@@Z 2023dc70 f   NPC_spawn.obj
 0001:0023ccd0       ?SP_NPC_Droid_R2D2@@YAXPAUgentity_s@@@Z 2023dcd0 f   NPC_spawn.obj
 0001:0023cd30       ?SP_NPC_Droid_R5D2@@YAXPAUgentity_s@@@Z 2023dd30 f   NPC_spawn.obj
 0001:0023cd90       ?SP_NPC_Droid_Remote@@YAXPAUgentity_s@@@Z 2023dd90 f   NPC_spawn.obj
 0001:0023cdd0       ?SP_NPC_Droid_Seeker@@YAXPAUgentity_s@@@Z 2023ddd0 f   NPC_spawn.obj
 0001:0023ce10       ?SP_NPC_Droid_Sentry@@YAXPAUgentity_s@@@Z 2023de10 f   NPC_spawn.obj
 0001:0023ce50       ?SP_NPC_Galak@@YAXPAUgentity_s@@@Z 2023de50 f   NPC_spawn.obj
 0001:0023ceb0       ?SP_NPC_Gran@@YAXPAUgentity_s@@@Z 2023deb0 f   NPC_spawn.obj
 0001:0023cf70       ?SP_NPC_HazardTrooper@@YAXPAUgentity_s@@@Z 2023df70 f   NPC_spawn.obj
 0001:0023cfb0       ?SP_NPC_ImpWorker@@YAXPAUgentity_s@@@Z 2023dfb0 f   NPC_spawn.obj
 0001:0023d040       ?SP_NPC_Imperial@@YAXPAUgentity_s@@@Z 2023e040 f   NPC_spawn.obj
 0001:0023d0d0       ?SP_NPC_Jan@@YAXPAUgentity_s@@@Z 2023e0d0 f   NPC_spawn.obj
 0001:0023d110       ?SP_NPC_Jawa@@YAXPAUgentity_s@@@Z 2023e110 f   NPC_spawn.obj
 0001:0023d180       ?SP_NPC_Jedi@@YAXPAUgentity_s@@@Z 2023e180 f   NPC_spawn.obj
 0001:0023d220       ?SP_NPC_Kyle@@YAXPAUgentity_s@@@Z 2023e220 f   NPC_spawn.obj
 0001:0023d270       ?SP_NPC_Lando@@YAXPAUgentity_s@@@Z 2023e270 f   NPC_spawn.obj
 0001:0023d2b0       ?SP_NPC_Luke@@YAXPAUgentity_s@@@Z 2023e2b0 f   NPC_spawn.obj
 0001:0023d300       ?SP_NPC_MineMonster@@YAXPAUgentity_s@@@Z 2023e300 f   NPC_spawn.obj
 0001:0023d340       ?SP_NPC_MonMothma@@YAXPAUgentity_s@@@Z 2023e340 f   NPC_spawn.obj
 0001:0023d380       ?SP_NPC_Monster_Claw@@YAXPAUgentity_s@@@Z 2023e380 f   NPC_spawn.obj
 0001:0023d3c0       ?SP_NPC_Monster_Fish@@YAXPAUgentity_s@@@Z 2023e3c0 f   NPC_spawn.obj
 0001:0023d400       ?SP_NPC_Monster_Flier2@@YAXPAUgentity_s@@@Z 2023e400 f   NPC_spawn.obj
 0001:0023d440       ?SP_NPC_Monster_Glider@@YAXPAUgentity_s@@@Z 2023e440 f   NPC_spawn.obj
 0001:0023d480       ?SP_NPC_Monster_Howler@@YAXPAUgentity_s@@@Z 2023e480 f   NPC_spawn.obj
 0001:0023d4c0       ?SP_NPC_Monster_Lizard@@YAXPAUgentity_s@@@Z 2023e4c0 f   NPC_spawn.obj
 0001:0023d500       ?SP_NPC_Monster_Murjj@@YAXPAUgentity_s@@@Z 2023e500 f   NPC_spawn.obj
 0001:0023d540       ?SP_NPC_Monster_Rancor@@YAXPAUgentity_s@@@Z 2023e540 f   NPC_spawn.obj
 0001:0023d580       ?SP_NPC_Monster_Swamp@@YAXPAUgentity_s@@@Z 2023e580 f   NPC_spawn.obj
 0001:0023d5c0       ?SP_NPC_Monster_Wampa@@YAXPAUgentity_s@@@Z 2023e5c0 f   NPC_spawn.obj
 0001:0023d600       ?SP_NPC_MorganKatarn@@YAXPAUgentity_s@@@Z 2023e600 f   NPC_spawn.obj
 0001:0023d640       ?SP_NPC_Noghri@@YAXPAUgentity_s@@@Z 2023e640 f   NPC_spawn.obj
 0001:0023d690       ?SP_NPC_Prisoner@@YAXPAUgentity_s@@@Z 2023e690 f   NPC_spawn.obj
 0001:0023d700       ?SP_NPC_Rebel@@YAXPAUgentity_s@@@Z 2023e700 f   NPC_spawn.obj
 0001:0023d770       ?SP_NPC_Reborn@@YAXPAUgentity_s@@@Z 2023e770 f   NPC_spawn.obj
 0001:0023d860       ?SP_NPC_Reborn_New@@YAXPAUgentity_s@@@Z 2023e860 f   NPC_spawn.obj
 0001:0023d960       ?SP_NPC_Reelo@@YAXPAUgentity_s@@@Z 2023e960 f   NPC_spawn.obj
 0001:0023d9a0       ?SP_NPC_Rodian@@YAXPAUgentity_s@@@Z 2023e9a0 f   NPC_spawn.obj
 0001:0023da10       ?SP_NPC_Saboteur@@YAXPAUgentity_s@@@Z 2023ea10 f   NPC_spawn.obj
 0001:0023da50       ?SP_NPC_ShadowTrooper@@YAXPAUgentity_s@@@Z 2023ea50 f   NPC_spawn.obj
 0001:0023dad0       ?SP_NPC_Snowtrooper@@YAXPAUgentity_s@@@Z 2023ead0 f   NPC_spawn.obj
 0001:0023db10       ?SP_NPC_Stormtrooper@@YAXPAUgentity_s@@@Z 2023eb10 f   NPC_spawn.obj
 0001:0023dc00       ?SP_NPC_StormtrooperOfficer@@YAXPAUgentity_s@@@Z 2023ec00 f   NPC_spawn.obj
 0001:0023dc40       ?SP_NPC_SwampTrooper@@YAXPAUgentity_s@@@Z 2023ec40 f   NPC_spawn.obj
 0001:0023dcb0       ?SP_NPC_Tavion@@YAXPAUgentity_s@@@Z 2023ecb0 f   NPC_spawn.obj
 0001:0023dd00       ?SP_NPC_Tavion_New@@YAXPAUgentity_s@@@Z 2023ed00 f   NPC_spawn.obj
 0001:0023dd80       ?SP_NPC_Tie_Pilot@@YAXPAUgentity_s@@@Z 2023ed80 f   NPC_spawn.obj
 0001:0023ddc0       ?SP_NPC_Trandoshan@@YAXPAUgentity_s@@@Z 2023edc0 f   NPC_spawn.obj
 0001:0023de10       ?SP_NPC_Tusken@@YAXPAUgentity_s@@@Z 2023ee10 f   NPC_spawn.obj
 0001:0023de80       ?SP_NPC_Ugnaught@@YAXPAUgentity_s@@@Z 2023ee80 f   NPC_spawn.obj
 0001:0023def0       ?SP_NPC_Vehicle@@YAXPAUgentity_s@@@Z 2023eef0 f   NPC_spawn.obj
 0001:0023e150       ?SP_NPC_Weequay@@YAXPAUgentity_s@@@Z 2023f150 f   NPC_spawn.obj
 0001:0023e210       ?SP_NPC_spawner@@YAXPAUgentity_s@@@Z 2023f210 f   NPC_spawn.obj
 0001:0023e460       ?WP_SetSaberModel@@YAHPAUgclient_s@@W4class_t@@@Z 2023f460 f   NPC_spawn.obj
 0001:0023e480       ?G_ParseAnimFileSet@@YAHPBD0PAH@Z 2023f480 f   NPC_stats.obj
 0001:0023e4d0       ?NPC_LoadParms@@YAXXZ      2023f4d0 f   NPC_stats.obj
 0001:0023e7d0       ?NPC_ParseParms@@YAHPBDPAUgentity_s@@@Z 2023f7d0 f   NPC_stats.obj
 0001:00243ab0       ?NPC_Precache@@YAXPAUgentity_s@@@Z 20244ab0 f   NPC_stats.obj
 0001:00244340       ?NPC_PrecacheAnimationCFG@@YAXPBD@Z 20245340 f   NPC_stats.obj
 0001:00244360       ?NPC_PrecacheWeapons@@YAXHHPAD@Z 20245360 f   NPC_stats.obj
 0001:002443e0       ?NPC_ReactionTime@@YAHXZ   202453e0 f   NPC_stats.obj
 0001:002449f0       ?CalcEntitySpot@@YAXPBUgentity_s@@W4spot_t@@QAM@Z 202459f0 f   NPC_utils.obj
 0001:002459d0       ?G_ActivateBehavior@@YAHPAUgentity_s@@H@Z 202469d0 f   NPC_utils.obj
 0001:00245b20       ?G_GetBoltPosition@@YAXPAUgentity_s@@HQAMH@Z 20246b20 f   NPC_utils.obj
 0001:00245d30       ?NPC_AimWiggle@@YAXQAM@Z   20246d30 f   NPC_utils.obj
 0001:00246010       ?NPC_CheckCanAttackExt@@YAHXZ 20247010 f   NPC_utils.obj
 0001:00246080       ?NPC_CheckCharmed@@YAXXZ   20247080 f   NPC_utils.obj
 0001:002461d0       ?NPC_CheckEnemyExt@@YAHH@Z 202471d0 f   NPC_utils.obj
 0001:00246200       ?NPC_CheckLookTarget@@YAHPAUgentity_s@@@Z 20247200 f   NPC_utils.obj
 0001:002463a0       ?NPC_ClearLOS2@@YAHPAUgentity_s@@QBM@Z 202473a0 f   NPC_utils.obj
 0001:002463d0       ?NPC_ClearLOS3@@YAHQBMPAUgentity_s@@@Z 202473d0 f   NPC_utils.obj
 0001:00246400       ?NPC_ClearLOS4@@YAHPAUgentity_s@@@Z 20247400 f   NPC_utils.obj
 0001:00246430       ?NPC_ClearLOS5@@YAHQBM@Z   20247430 f   NPC_utils.obj
 0001:00246460       ?NPC_ClearLOS@@YAHQBM0@Z   20247460 f   NPC_utils.obj
 0001:00246490       ?NPC_ClearLookTarget@@YAXPAUgentity_s@@@Z 20247490 f   NPC_utils.obj
 0001:00246500       ?NPC_EnemyRangeFromBolt@@YAMH@Z 20247500 f   NPC_utils.obj
 0001:00246540       ?NPC_EntRangeFromBolt@@YAMPAUgentity_s@@H@Z 20247540 f   NPC_utils.obj
 0001:002465c0       ?NPC_FaceEnemy@@YAHH@Z     202475c0 f   NPC_utils.obj
 0001:00246620       ?NPC_FaceEntity@@YAHPAUgentity_s@@H@Z 20247620 f   NPC_utils.obj
 0001:00246680       ?NPC_FacePosition@@YAHQAMH@Z 20247680 f   NPC_utils.obj
 0001:00246ac0       ?NPC_FindEnemy@@YAHH@Z     20247ac0 f   NPC_utils.obj
 0001:00246c00       ?NPC_FindNearestEnemy@@YAHPAUgentity_s@@@Z 20247c00 f   NPC_utils.obj
 0001:00246e70       ?NPC_FindPlayer@@YAHXZ     20247e70 f   NPC_utils.obj
 0001:00246ea0       ?NPC_GetEntsNearBolt@@YAHPAHMHQAM@Z 20247ea0 f   NPC_utils.obj
 0001:00246fd0       ?NPC_PickEnemyExt@@YAPAUgentity_s@@H@Z 20247fd0 f   NPC_utils.obj
 0001:00247100       ?NPC_SetBoneAngles@@YAXPAUgentity_s@@PADQAM@Z 20248100 f   NPC_utils.obj
 0001:00247380       ?NPC_SetLookTarget@@YAXPAUgentity_s@@HH@Z 20248380 f   NPC_utils.obj
 0001:002473f0       ?NPC_SetSurfaceOnOff@@YAXPAUgentity_s@@PBDH@Z 202483f0 f   NPC_utils.obj
 0001:00247560       ?NPC_SomeoneLookingAtMe@@YAHPAUgentity_s@@@Z 20248560 f   NPC_utils.obj
 0001:00247670       ?NPC_TargetVisible@@YAHPAUgentity_s@@@Z 20248670 f   NPC_utils.obj
 0001:00247740       ?NPC_UpdateAngles@@YAHHH@Z 20248740 f   NPC_utils.obj
 0001:00247d70       ?NPC_UpdateFiringAngles@@YAHHH@Z 20248d70 f   NPC_utils.obj
 0001:00248350       ?NPC_UpdateShootAngles@@YAXQAMHH@Z 20249350 f   NPC_utils.obj
 0001:00248680       ?NPC_ValidEnemy@@YAHPAUgentity_s@@@Z 20249680 f   NPC_utils.obj
 0001:00248a30       ?SetTeamNumbers@@YAXXZ     20249a30 f   NPC_utils.obj
 0001:00248dd0       ?AddPointToBounds@@YAXQBMQAM1@Z 20249dd0 f   q_math.obj
 0001:00248fb0       ?AngleDelta@@YAMMM@Z       20249fb0 f   q_math.obj
 0001:00248ff0       ?AngleMod@@YAMM@Z          20249ff0 f   q_math.obj
 0001:00249040       ?AngleNormalize180@@YAMM@Z 2024a040 f   q_math.obj
 0001:002490b0       ?AngleNormalize360@@YAMM@Z 2024a0b0 f   q_math.obj
 0001:00249100       ?AngleSubtract@@YAMMM@Z    2024a100 f   q_math.obj
 0001:002491b0       ?AngleVectors@@YAXQBMQAM11@Z 2024a1b0 f   q_math.obj
 0001:00249560       ?AnglesSubtract@@YAXQAM00@Z 2024a560 f   q_math.obj
 0001:00249670       ?AnglesToAxis@@YAXQBMQAY02M@Z 2024a670 f   q_math.obj
 0001:002497b0       ?AxisClear@@YAXQAY02M@Z    2024a7b0 f   q_math.obj
 0001:00249930       ?AxisCopy@@YAXQAY02M0@Z    2024a930 f   q_math.obj
 0001:00249b30       ?BoxOnPlaneSide@@YAHQAM0PAUcplane_s@@@Z 2024ab30 f   q_math.obj
 0001:00249e00       ?ByteToDir@@YAXHQAM@Z      2024ae00 f   q_math.obj
 0001:00249f10       ?ClampChar@@YACH@Z         2024af10 f   q_math.obj
 0001:00249f40       ?ClampShort@@YAFH@Z        2024af40 f   q_math.obj
 0001:00249f90       ?ClearBounds@@YAXQAM0@Z    2024af90 f   q_math.obj
 0001:0024a060       ?ColorBytes3@@YAIMMM@Z     2024b060 f   q_math.obj
 0001:0024a0f0       ?ColorBytes4@@YAIMMMM@Z    2024b0f0 f   q_math.obj
 0001:0024a2f0       ?DirToByte@@YAHQAM@Z       2024b2f0 f   q_math.obj
 0001:0024a520       ?DistanceHorizontal@@YAMQBM0@Z 2024b520 f   q_math.obj
 0001:0024a660       ?DistanceHorizontalSquared@@YAMQBM0@Z 2024b660 f   q_math.obj
 0001:0024a7a0       ?DotProductNormalize@@YAMQBM0@Z 2024b7a0 f   q_math.obj
 0001:0024a880       ?G_FindClosestPointOnLineSegment@@YAHQBM00QAM@Z 2024b880 f   q_math.obj
 0001:0024b0e0       ?G_PointDistFromLineSegment@@YAMQBM00@Z 2024c0e0 f   q_math.obj
 0001:0024b6a0       ?LerpAngle@@YAMMMM@Z       2024c6a0 f   q_math.obj
 0001:0024b740       ?MakeNormalVectors@@YAXQBMQAM1@Z 2024c740 f   q_math.obj
 0001:0024b970       ?MatrixMultiply@@YAXQAY02M00@Z 2024c970 f   q_math.obj
 0001:0024c110       ?NormalToLatLong@@YAXQBMQAE@Z 2024d110 f   q_math.obj
 0001:0024c2f0       ?NormalizeColor@@YAMQBMQAM@Z 2024d2f0 f   q_math.obj
 0001:0024c490       ?PerpendicularVector@@YAXQAMQBM@Z 2024d490 f   q_math.obj
 0001:0024c5f0       ?PlaneFromPoints@@YAHQAMQBM11@Z 2024d5f0 f   q_math.obj
 0001:0024c870       ?ProjectPointOnPlane@@YAXQAMQBM1@Z 2024d870 f   q_math.obj
 0001:0024cb70       ?Q_crandom@@YAMPAH@Z       2024db70 f   q_math.obj
 0001:0024cbc0       ?Q_fabs@@YAMM@Z            2024dbc0 f   q_math.obj
 0001:0024cbf0       ?Q_flrand@@YAMMM@Z         2024dbf0 f   q_math.obj
 0001:0024cc30       ?Q_irand@@YAHHH@Z          2024dc30 f   q_math.obj
 0001:0024cc60       ?Q_log2@@YAHH@Z            2024dc60 f   q_math.obj
 0001:0024cca0       ?Q_powf@@YAMMH@Z           2024dca0 f   q_math.obj
 0001:0024cd00       ?Q_rand@@YAHPAH@Z          2024dd00 f   q_math.obj
 0001:0024cd30       ?Q_random@@YAMPAH@Z        2024dd30 f   q_math.obj
 0001:0024cd80       ?Q_round@@YAMM@Z           2024dd80 f   q_math.obj
 0001:0024cdc0       ?Q_rsqrt@@YAMM@Z           2024ddc0 f   q_math.obj
 0001:0024ce60       ?RadiusFromBounds@@YAMQBM0@Z 2024de60 f   q_math.obj
 0001:0024cf40       ?Rand_Init@@YAXH@Z         2024df40 f   q_math.obj
 0001:0024cf60       ?RotateAroundDirection@@YAXQAY02MM@Z 2024df60 f   q_math.obj
 0001:0024d0c0       ?RotatePointAroundVector@@YAXQAMQBM1M@Z 2024e0c0 f   q_math.obj
 0001:0024d780       ?SetPlaneSignbits@@YAXPAUcplane_s@@@Z 2024e780 f   q_math.obj
 0001:0024d800       ?Vector4Scale@@YAXQBMMQAM@Z 2024e800 f   q_math.obj
 0001:0024da20       ?VectorNormalize2@@YAMQBMQAM@Z 2024ea20 f   q_math.obj
 0001:0024dbf0       ?VectorNormalize@@YAMQAM@Z 2024ebf0 f   q_math.obj
 0001:0024dd60       ?VectorRotate@@YAXQAMQAY02M0@Z 2024ed60 f   q_math.obj
 0001:0024df90       ?_DotProduct@@YAMQBM0@Z    2024ef90 f   q_math.obj
 0001:0024e030       ?_VectorAdd@@YAXQBM0QAM@Z  2024f030 f   q_math.obj
 0001:0024e100       ?_VectorCopy@@YAXQBMQAM@Z  2024f100 f   q_math.obj
 0001:0024e180       ?_VectorMA@@YAXQBMM0QAM@Z  2024f180 f   q_math.obj
 0001:0024e260       ?_VectorScale@@YAXQBMMQAM@Z 2024f260 f   q_math.obj
 0001:0024e300       ?_VectorSubtract@@YAXQBM0QAM@Z 2024f300 f   q_math.obj
 0001:0024e3d0       ?flrand@@YAMMM@Z           2024f3d0 f   q_math.obj
 0001:0024e470       ?irand@@YAHHH@Z            2024f470 f   q_math.obj
 0001:0024e4e0       ?vectoangles@@YAXQBMQAM@Z  2024f4e0 f   q_math.obj
 0001:0024e7d0       ?COM_BeginParseSession@@YAXPBD@Z 2024f7d0 f   q_shared.obj
 0001:0024e820       ?COM_Compress@@YAHPAD@Z    2024f820 f   q_shared.obj
 0001:0024eac0       ?COM_DefaultExtension@@YAXPADHPBD@Z 2024fac0 f   q_shared.obj
 0001:0024eb80       ?COM_GetCurrentParseLine@@YAHXZ 2024fb80 f   q_shared.obj
 0001:0024eba0       ?COM_MatchToken@@YAXPAPBDPAD@Z 2024fba0 f   q_shared.obj
 0001:0024ec00       ?COM_Parse@@YAPADPAPBD@Z   2024fc00 f   q_shared.obj
 0001:0024ec30       ?COM_ParseDatastring@@YAPADPAPBD@Z 2024fc30 f   q_shared.obj
 0001:0024f040       ?COM_ParseError@@YAXPADZZ  20250040 f   q_shared.obj
 0001:0024f0b0       ?COM_ParseExt@@YAPADPAPBDH@Z 202500b0 f   q_shared.obj
 0001:0024f3f0       ?COM_ParseFloat@@YAHPAPBDPAM@Z 202503f0 f   q_shared.obj
 0001:0024f470       ?COM_ParseInt@@YAHPAPBDPAH@Z 20250470 f   q_shared.obj
 0001:0024f4f0       ?COM_ParseLine@@YAPADPAPBD@Z 202504f0 f   q_shared.obj
 0001:0024f8d0       ?COM_ParseString@@YAHPAPBD0@Z 202508d0 f   q_shared.obj
 0001:0024f930       ?COM_ParseVec4@@YAHPAPBDPAY03M@Z 20250930 f   q_shared.obj
 0001:0024f9a0       ?COM_ParseWarning@@YAXPADZZ 202509a0 f   q_shared.obj
 0001:0024fa10       ?COM_SkipPath@@YAPADPAD@Z  20250a10 f   q_shared.obj
 0001:0024fa70       ?COM_StripExtension@@YAXPBDPAD@Z 20250a70 f   q_shared.obj
 0001:0024fad0       ?Com_Clamp@@YAMMMM@Z       20250ad0 f   q_shared.obj
 0001:0024fb10       ?Com_Clampi@@YAHHHH@Z      20250b10 f   q_shared.obj
 0001:0024fb50       ?Com_sprintf@@YAXPADHPBDZZ 20250b50 f   q_shared.obj
 0001:0024fbc0       ?FloatNoSwap@@YAMPBM@Z     20250bc0 f   q_shared.obj
 0001:0024fbe0       ?FloatSwap@@YAMPBM@Z       20250be0 f   q_shared.obj
 0001:0024fc20       ?GetIDForString@@YAHPAUstringID_table_s@@PBD@Z 20250c20 f   q_shared.obj
 0001:0024fcb0       ?GetStringForID@@YAPBDPAUstringID_table_s@@H@Z 20250cb0 f   q_shared.obj
 0001:0024fd30       ?Info_NextPair@@YAXPAPBDPAD1@Z 20250d30 f   q_shared.obj
 0001:0024fe60       ?Info_RemoveKey@@YAXPADPBD@Z 20250e60 f   q_shared.obj
 0001:00250040       ?Info_RemoveKey_Big@@YAXPADPBD@Z 20251040 f   q_shared.obj
 0001:00250230       ?Info_SetValueForKey@@YAXPADPBD1@Z 20251230 f   q_shared.obj
 0001:00250430       ?Info_SetValueForKey_Big@@YAXPADPBD1@Z 20251430 f   q_shared.obj
 0001:00250620       ?Info_Validate@@YAHPBD@Z   20251620 f   q_shared.obj
 0001:00250680       ?Info_ValueForKey@@YAPADPBD0@Z 20251680 f   q_shared.obj
 0001:00250880       ?Long64NoSwap@@YA?AUqint64@@U1@@Z 20251880 f   q_shared.obj
 0001:002508a0       ?Long64Swap@@YA?AUqint64@@U1@@Z 202518a0 f   q_shared.obj
 0001:00250900       ?LongNoSwap@@YAHH@Z        20251900 f   q_shared.obj
 0001:00250920       ?LongSwap@@YAHH@Z          20251920 f   q_shared.obj
 0001:002509a0       ?Parse1DMatrix@@YAXPAPBDHPAM@Z 202519a0 f   q_shared.obj
 0001:00250a30       ?Parse2DMatrix@@YAXPAPBDHHPAM@Z 20251a30 f   q_shared.obj
 0001:00250ac0       ?Parse3DMatrix@@YAXPAPBDHHHPAM@Z 20251ac0 f   q_shared.obj
 0001:00250b60       ?Q_CleanStr2@@YAPADPAD@Z   20251b60 f   q_shared.obj
 0001:00250c80       ?Q_CleanStr@@YAPADPAD@Z    20251c80 f   q_shared.obj
 0001:00250d60       ?Q_CleanStrC@@YAPADPAD@Z   20251d60 f   q_shared.obj
 0001:00250e30       ?Q_MorphColorCodes@@YAPADPAD@Z 20251e30 f   q_shared.obj
 0001:00250f40       ?Q_PrintStrlen@@YAHPBD@Z   20251f40 f   q_shared.obj
 0001:00251000       ?Q_SkipTag@@YAPADPAD@Z     20252000 f   q_shared.obj
 0001:002511b0       ?Q_StripTags@@YAPADPAD@Z   202521b0 f   q_shared.obj
 0001:002512f0       ?Q_isalpha@@YAHH@Z         202522f0 f   q_shared.obj
 0001:00251330       ?Q_islower@@YAHH@Z         20252330 f   q_shared.obj
 0001:00251360       ?Q_isnumeric@@YAHH@Z       20252360 f   q_shared.obj
 0001:00251390       ?Q_isprint@@YAHH@Z         20252390 f   q_shared.obj
 0001:002513c0       ?Q_isupper@@YAHH@Z         202523c0 f   q_shared.obj
 0001:002513f0       ?Q_strcat@@YAXPADHPBD@Z    202523f0 f   q_shared.obj
 0001:00251460       ?Q_stricmp@@YAHPBD0@Z      20252460 f   q_shared.obj
 0001:002514b0       ?Q_stricmpn@@YAHPBD0H@Z    202524b0 f   q_shared.obj
 0001:002515d0       ?Q_stricmpname@@YAHPBD0@Z  202525d0 f   q_shared.obj
 0001:00251780       ?Q_stricmpword@@YAHPBD0@Z  20252780 f   q_shared.obj
 0001:002518f0       ?Q_strlwr@@YAPADPAD@Z      202528f0 f   q_shared.obj
 0001:00251950       ?Q_strncmp@@YAHPBD0H@Z     20252950 f   q_shared.obj
 0001:002519f0       ?Q_strncpyz@@YAXPADPBDH@Z  202529f0 f   q_shared.obj
 0001:00251a80       ?Q_strrchr@@YAPADPBDH@Z    20252a80 f   q_shared.obj
 0001:00251b00       ?Q_strupr@@YAPADPAD@Z      20252b00 f   q_shared.obj
 0001:00251b60       ?Q_vsnprintf@@YAHPADHPBD0@Z 20252b60 f   q_shared.obj
 0001:00251bd0       ?Q_wordInLine@@YAHPBD0@Z   20252bd0 f   q_shared.obj
 0001:00251ca0       ?Q_wordsInLine@@YAHPBD0PAPAD@Z 20252ca0 f   q_shared.obj
 0001:00251e00       ?ShortNoSwap@@YAFF@Z       20252e00 f   q_shared.obj
 0001:00251e20       ?ShortSwap@@YAFF@Z         20252e20 f   q_shared.obj
 0001:00251e70       ?SkipBracedSection@@YAXPAPBD@Z 20252e70 f   q_shared.obj
 0001:00251f20       ?SkipRestOfLine@@YAXPAPBD@Z 20252f20 f   q_shared.obj
 0001:00251f90       ?SkipWhitespace@@YAPBDPBDPAH@Z 20252f90 f   q_shared.obj
 0001:00252000       ?skipline@@YAPADPBD@Z      20253000 f   q_shared.obj
 0001:00252080       ?va@@YAPADPADZZ            20253080 f   q_shared.obj
 0001:00252160       ?AnimateRiders@@YAXPAUVehicle_s@@@Z 20253160 f   SpeederNPC.obj
 0001:00252d70       ?AnimateVehicle@@YAXPAUVehicle_s@@@Z 20253d70 f   SpeederNPC.obj
 0001:00253230       ?G_CreateSpeederNPC@@YAXPAPAUVehicle_s@@PBD@Z 20254230 f   SpeederNPC.obj
 0001:002532a0       ?G_SetSpeederVehicleFunctions@@YAXPAUvehicleInfo_t@@@Z 202542a0 f   SpeederNPC.obj
 0001:00253ba0       ?ProcessOrientCommands@@YAXPAUVehicle_s@@@Z 20254ba0 f   SpeederNPC.obj
 0001:00253e40       ?Update@@YAHPAUVehicle_s@@PBUusercmd_s@@@Z 20254e40 f   SpeederNPC.obj
 0001:00253ec0       ?VEH_StartStrafeRam@@YAHPAUVehicle_s@@HH@Z 20254ec0 f   SpeederNPC.obj
 0001:00253ee0       ?coplanar_tri_tri@@YAHQAM000000@Z 20254ee0 f   tri_coll_test.obj
 0001:00255840       ?tri_tri_intersect@@YAHQAM00000@Z 20256840 f   tri_coll_test.obj
 0001:00256ed0       ?FindGenericEnemyIndex@@YAXPAUgentity_s@@@Z 20257ed0 f   w_force.obj
 0001:002571c0       ?ForceAbsorb@@YAXPAUgentity_s@@@Z 202581c0 f   w_force.obj
 0001:002571f0       ?ForceDrain@@YAXPAUgentity_s@@@Z 202581f0 f   w_force.obj
 0001:00257220       ?ForceGrip@@YAXPAUgentity_s@@@Z 20258220 f   w_force.obj
 0001:00257250       ?ForceHeal@@YAXPAUgentity_s@@@Z 20258250 f   w_force.obj
 0001:00257280       ?ForceJump@@YAXPAUgentity_s@@PAUusercmd_s@@@Z 20258280 f   w_force.obj
 0001:002572b0       ?ForceJumpCharge@@YAXPAUgentity_s@@PAUusercmd_s@@@Z 202582b0 f   w_force.obj
 0001:00257660       ?ForceLightning@@YAXPAUgentity_s@@@Z 20258660 f   w_force.obj
 0001:00257690       ?ForcePowerUsableOn@@YAHPAUgentity_s@@0H@Z 20258690 f   w_force.obj
 0001:00257c70       ?ForceProtect@@YAXPAUgentity_s@@@Z 20258c70 f   w_force.obj
 0001:00257ca0       ?ForceRage@@YAXPAUgentity_s@@@Z 20258ca0 f   w_force.obj
 0001:00257cd0       ?ForceSeeing@@YAXPAUgentity_s@@@Z 20258cd0 f   w_force.obj
 0001:00257d00       ?ForceSpeed@@YAXPAUgentity_s@@H@Z 20258d00 f   w_force.obj
 0001:00257d30       ?ForceTeamForceReplenish@@YAXPAUgentity_s@@@Z 20258d30 f   w_force.obj
 0001:00257d60       ?ForceTeamHeal@@YAXPAUgentity_s@@@Z 20258d60 f   w_force.obj
 0001:00257d90       ?ForceTelepathy@@YAXPAUgentity_s@@@Z 20258d90 f   w_force.obj
 0001:00257dc0       ?ForceThrow@@YAXPAUgentity_s@@H@Z 20258dc0 f   w_force.obj
 0001:00257e10       ?G_InGetUpAnim@@YAHPAUplayerState_s@@@Z 20258e10 f   w_force.obj
 0001:00257f00       ?G_IsMindTricked@@YAHPAUforcedata_s@@H@Z 20258f00 f   w_force.obj
 0001:00257ff0       ?G_LetGoOfWall@@YAXPAUgentity_s@@@Z 20258ff0 f   w_force.obj
 0001:002580f0       ?G_PreDefSound@@YAPAUgentity_s@@QAMH@Z 202590f0 f   w_force.obj
 0001:002581a0       ?G_SpecialRollGetup@@YAHPAUgentity_s@@@Z 202591a0 f   w_force.obj
 0001:002583d0       ?HolocronUpdate@@YAXPAUgentity_s@@@Z 202593d0 f   w_force.obj
 0001:00258790       ?JediMasterUpdate@@YAXPAUgentity_s@@@Z 20259790 f   w_force.obj
 0001:00258a10       ?Jedi_DodgeEvasion@@YAHPAUgentity_s@@0PAUtrace_t@@H@Z 20259a10 f   w_force.obj
 0001:00258e70       ?SeekerDroneUpdate@@YAXPAUgentity_s@@@Z 20259e70 f   w_force.obj
 0001:00259e90       ?WP_AbsorbConversion@@YAHPAUgentity_s@@H0HHH@Z 2025ae90 f   w_force.obj
 0001:0025a050       ?WP_AddToClientBitflags@@YAXPAUgentity_s@@H@Z 2025b050 f   w_force.obj
 0001:0025a130       ?WP_DoSpecificPower@@YAHPAUgentity_s@@PAUusercmd_s@@H@Z 2025b130 f   w_force.obj
 0001:0025a750       ?WP_ForcePowerAvailable@@YAHPAUgentity_s@@HH@Z 2025b750 f   w_force.obj
 0001:0025a940       ?WP_ForcePowerInUse@@YAHPAUgentity_s@@H@Z 2025b940 f   w_force.obj
 0001:0025a990       ?WP_ForcePowerRegenerate@@YAXPAUgentity_s@@H@Z 2025b990 f   w_force.obj
 0001:0025ad80       ?WP_ForcePowerStart@@YAXPAUgentity_s@@HH@Z 2025bd80 f   w_force.obj
 0001:0025aef0       ?WP_ForcePowerStop@@YAXPAUgentity_s@@H@Z 2025bef0 f   w_force.obj
 0001:0025af70       ?WP_ForcePowerUsable@@YAHPAUgentity_s@@H@Z 2025bf70 f   w_force.obj
 0001:0025b3d0       ?WP_ForcePowersUpdate@@YAXPAUgentity_s@@PAUusercmd_s@@@Z 2025c3d0 f   w_force.obj
 0001:0025cf50       ?WP_HasForcePowers@@YAHPBUplayerState_s@@@Z 2025df50 f   w_force.obj
 0001:0025cfe0       ?WP_InitForcePowers@@YAXPAUgentity_s@@@Z 2025dfe0 f   w_force.obj
 0001:0025e690       ?WP_SpawnInitForcePowers@@YAXPAUgentity_s@@@Z 2025f690 f   w_force.obj
 0001:00266740       ?DeadSaberThink@@YAXPAUgentity_s@@@Z 20267740 f   w_saber.obj
 0001:00266a10       ?DownedSaberThink@@YAXPAUgentity_s@@@Z 20267a10 f   w_saber.obj
 0001:00269a30       ?G_CanBeEnemy@@YAHPAUgentity_s@@0@Z 2026aa30 f   w_saber.obj
 0001:0026a370       ?G_DebugBoxLines@@YAXQAM0H@Z 2026b370 f   w_saber.obj
 0001:0026fbd0       ?G_KnockawayForParry@@YAHH@Z 20270bd0 f   w_saber.obj
 0001:00270b10       ?G_SPSaberDamageTraceLerped@@YAXPAUgentity_s@@HHQAM1H@Z 20271b10 f   w_saber.obj
 0001:00273c70       ?G_SaberLockAnim@@YAHHHHHH@Z 20274c70 f   w_saber.obj
 0001:00274090       ?HasSetSaberOnly@@YAHXZ    20275090 f   w_saber.obj
 0001:00274140       ?MakeDeadSaber@@YAXPAUgentity_s@@@Z 20275140 f   w_saber.obj
 0001:00274920       ?RandFloat@@YAMMM@Z        20275920 f   w_saber.obj
 0001:00274af0       ?SaberBounceSound@@YAXPAUgentity_s@@0PAUtrace_t@@@Z 20275af0 f   w_saber.obj
 0001:00274ba0       ?SaberGotHit@@YAXPAUgentity_s@@0PAUtrace_t@@@Z 20275ba0 f   w_saber.obj
 0001:00274bd0       ?SaberUpdateSelf@@YAXPAUgentity_s@@@Z 20275bd0 f   w_saber.obj
 0001:00276280       ?UpdateClientRenderBolts@@YAXPAUgentity_s@@QAM1@Z 20277280 f   w_saber.obj
 0001:00276d00       ?UpdateClientRenderinfo@@YAXPAUgentity_s@@QAM1@Z 20277d00 f   w_saber.obj
 0001:00277e60       ?VectorCompare2@@YAHQBM0@Z 20278e60 f i w_saber.obj
 0001:002781e0       ?WPDEBUG_SaberColor@@YAHH@Z 202791e0 f   w_saber.obj
 0001:00278280       ?WP_ActivateSaber@@YAXPAUgentity_s@@@Z 20279280 f   w_saber.obj
 0001:00278430       ?WP_DeactivateSaber@@YAXPAUgentity_s@@H@Z 20279430 f   w_saber.obj
 0001:00279340       ?WP_MissileBlockForBlock@@YAHH@Z 2027a340 f   w_saber.obj
 0001:002793e0       ?WP_SaberAddG2Model@@YAXPAUgentity_s@@PBDH@Z 2027a3e0 f   w_saber.obj
 0001:00279490       ?WP_SaberApplyDamage@@YAXPAUgentity_s@@@Z 2027a490 f   w_saber.obj
 0001:002795e0       ?WP_SaberBladeLength@@YAMPAUsaberInfo_t@@@Z 2027a5e0 f   w_saber.obj
 0001:00279670       ?WP_SaberBlock@@YAXPAUgentity_s@@QAMH@Z 2027a670 f   w_saber.obj
 0001:00279af0       ?WP_SaberBlockNonRandom@@YAXPAUgentity_s@@QAMH@Z 2027aaf0 f   w_saber.obj
 0001:00279f60       ?WP_SaberBounceSound@@YAXPAUgentity_s@@HH@Z 2027af60 f   w_saber.obj
 0001:0027a2b0       ?WP_SaberCanBlock@@YAHPAUgentity_s@@QAMHHHH@Z 2027b2b0 f   w_saber.obj
 0001:0027a740       ?WP_SaberClearDamage@@YAXXZ 2027b740 f   w_saber.obj
 0001:0027a820       ?WP_SaberDamageAdd@@YAXHQAM0HHH@Z 2027b820 f   w_saber.obj
 0001:0027aa90       ?WP_SaberDoClash@@YAXPAUgentity_s@@HH@Z 2027ba90 f   w_saber.obj
 0001:0027abf0       ?WP_SaberDoHit@@YAXPAUgentity_s@@HH@Z 2027bbf0 f   w_saber.obj
 0001:0027b180       ?WP_SaberInitBladeData@@YAXPAUgentity_s@@@Z 2027c180 f   w_saber.obj
 0001:0027b470       ?WP_SaberLength@@YAMPAUgentity_s@@@Z 2027c470 f   w_saber.obj
 0001:0027b520       ?WP_SaberPositionUpdate@@YAXPAUgentity_s@@PAUusercmd_s@@@Z 2027c520 f   w_saber.obj
 0001:002815e0       ?WP_SaberRadiusDamage@@YAXPAUgentity_s@@QAMMHM@Z 202825e0 f   w_saber.obj
 0001:00281b40       ?WP_SaberRemoveG2Model@@YAXPAUgentity_s@@@Z 20282b40 f   w_saber.obj
 0001:00281b80       ?WP_SaberStartMissileBlockCheck@@YAXPAUgentity_s@@PAUusercmd_s@@@Z 20282b80 f   w_saber.obj
 0001:00284cf0       ?WP_SabersCheckLock@@YAHPAUgentity_s@@0@Z 20285cf0 f   w_saber.obj
 0001:002865f0       ?WP_SabersIntersect@@YAHPAUgentity_s@@HH0H@Z 202875f0 f   w_saber.obj
 0001:00288200       ?saberBackToOwner@@YAXPAUgentity_s@@@Z 20289200 f   w_saber.obj
 0001:00288c70       ?saberCheckKnockdown_BrokenParry@@YAHPAUgentity_s@@00@Z 20289c70 f   w_saber.obj
 0001:00289210       ?saberCheckKnockdown_DuelLoss@@YAHPAUgentity_s@@00@Z 2028a210 f   w_saber.obj
 0001:00289900       ?saberCheckKnockdown_Smashed@@YAHPAUgentity_s@@00H@Z 2028a900 f   w_saber.obj
 0001:00289a70       ?saberCheckKnockdown_Thrown@@YAHPAUgentity_s@@00@Z 2028aa70 f   w_saber.obj
 0001:00289ce0       ?saberFirstThrown@@YAXPAUgentity_s@@@Z 2028ace0 f   w_saber.obj
 0001:0028a780       ?saberKnockDown@@YAXPAUgentity_s@@00@Z 2028b780 f   w_saber.obj
 0001:0028acf0       ?saberKnockOutOfHand@@YAHPAUgentity_s@@0QAM@Z 2028bcf0 f   w_saber.obj
 0001:0028b650       ?saberReactivate@@YAXPAUgentity_s@@0@Z 2028c650 f   w_saber.obj
 0001:0028b780       ?thrownSaberTouch@@YAXPAUgentity_s@@0PAUtrace_t@@@Z 2028c780 f   w_saber.obj
 0001:0028bc00       ?G_CreateWalkerNPC@@YAXPAPAUVehicle_s@@PBD@Z 2028cc00 f   WalkerNPC.obj
 0001:0028bc70       ?G_SetWalkerVehicleFunctions@@YAXPAUvehicleInfo_t@@@Z 2028cc70 f   WalkerNPC.obj
 0001:0028c750       ?WalkerYawAdjust@@YAXPAUVehicle_s@@PAUplayerState_s@@1@Z 2028d750 f   WalkerNPC.obj
 0001:0028c960       ?B_Alloc@@YAPAXH@Z         2028d960 f   ai_util.obj
 0001:0028c990       ?B_CleanupAlloc@@YAXXZ     2028d990 f   ai_util.obj
 0001:0028c9b0       ?B_Free@@YAXPAX@Z          2028d9b0 f   ai_util.obj
 0001:0028c9d0       ?B_InitAlloc@@YAXXZ        2028d9d0 f   ai_util.obj
 0001:0028ca00       ?B_TempAlloc@@YAPAXH@Z     2028da00 f   ai_util.obj
 0001:0028ca30       ?B_TempFree@@YAXH@Z        2028da30 f   ai_util.obj
 0001:0028ca60       ?BotChatBack@@YAHPBDPAUgentity_s@@1@Z 2028da60 f   ai_util.obj
 0001:0028d460       ?BotDoChat@@YAHPAUbot_state_s@@PADH@Z 2028e460 f   ai_util.obj
 0001:0028db20       ?BotDoCmd@@YAXPAUbot_state_s@@PAUgentity_s@@PAD@Z 2028eb20 f   ai_util.obj
 0001:0028e860       ?BotDoSpawn@@YAPAUgentity_s@@PAUbot_state_s@@PAD@Z 2028f860 f   ai_util.obj
 0001:0028e960       ?BotUtilizePersonality@@YAXPAUbot_state_s@@@Z 2028f960 f   ai_util.obj
 0001:0028f360       ?Cmd_BotCallVote@@YAXPAUbot_state_s@@PAD@Z 20290360 f   ai_util.obj
 0001:0028f3e0       ?Cmd_BotThrow@@YAXPAUbot_state_s@@PAD@Z 202903e0 f   ai_util.obj
 0001:0028f420       ?Cmd_BotVote@@YAXPAUbot_state_s@@H@Z 20290420 f   ai_util.obj
 0001:0028f530       ?Cmd_Surrender_f@@YAXPAUgentity_s@@H@Z 20290530 f   ai_util.obj
 0001:0028f6d0       ?Cmd_talkingBot_f@@YAXXZ   202906d0 f   ai_util.obj
 0001:0028f960       ?GetPairedValue@@YAHPAD00@Z 20290960 f   ai_util.obj
 0001:0028fcb0       ?GetValueGroup@@YAHPAD00@Z 20290cb0 f   ai_util.obj
 0001:0028fec0       ?ParseEmotionalAttachments@@YAXPAUbot_state_s@@PAD@Z 20290ec0 f   ai_util.obj
 0001:002901e0       ?ReadChatGroups@@YAHPAUbot_state_s@@PAD@Z 202911e0 f   ai_util.obj
 0001:00290300       ?botsVoteNotification@@YAXPAD@Z 20291300 f   ai_util.obj
 0001:00290400       _StackWalk@36              20291400 f   dbghelp:dbghelp.dll
 0001:00290406       _SymCleanup@4              20291406 f   dbghelp:dbghelp.dll
 0001:0029040c       _SymEnumerateModules@12    2029140c f   dbghelp:dbghelp.dll
 0001:00290412       _SymFunctionTableAccess@8  20291412 f   dbghelp:dbghelp.dll
 0001:00290418       _SymGetModuleBase@8        20291418 f   dbghelp:dbghelp.dll
 0001:0029041e       _SymGetLineFromAddr@16     2029141e f   dbghelp:dbghelp.dll
 0001:00290424       _SymInitialize@12          20291424 f   dbghelp:dbghelp.dll
 0001:0029042a       _SymGetSymFromAddr@16      2029142a f   dbghelp:dbghelp.dll
 0001:00290430       _GetEnvironmentVariableA@12 20291430 f   kernel32:KERNEL32.dll
 0001:00290436       _CloseHandle@4             20291436 f   kernel32:KERNEL32.dll
 0001:0029043c       _SetUnhandledExceptionFilter@4 2029143c f   kernel32:KERNEL32.dll
 0001:00290442       _GetCurrentProcess@0       20291442 f   kernel32:KERNEL32.dll
 0001:00290448       _GetCurrentThread@0        20291448 f   kernel32:KERNEL32.dll
 0001:0029044e       _VirtualQuery@12           2029144e f   kernel32:KERNEL32.dll
 0001:00290454       _GetModuleFileNameA@12     20291454 f   kernel32:KERNEL32.dll
 0001:0029045a       _IsBadReadPtr@8            2029145a f   kernel32:KERNEL32.dll
 0001:00290460       _CreateToolhelp32Snapshot@8 20291460 f   kernel32:KERNEL32.dll
 0001:00290466       _Module32First@8           20291466 f   kernel32:KERNEL32.dll
 0001:0029046c       _Module32Next@8            2029146c f   kernel32:KERNEL32.dll
 0001:00290472       _K32GetModuleBaseNameA@16  20291472 f   kernel32:KERNEL32.dll
 0001:00290478       _FreeLibrary@4             20291478 f   kernel32:KERNEL32.dll
 0001:0029047e       _GetProcAddress@8          2029147e f   kernel32:KERNEL32.dll
 0001:00290484       _GlobalAlloc@8             20291484 f   kernel32:KERNEL32.dll
 0001:0029048a       _GlobalFree@4              2029148a f   kernel32:KERNEL32.dll
 0001:00290490       _LoadLibraryA@4            20291490 f   kernel32:KERNEL32.dll
 0001:00290496       _wsprintfA                 20291496 f   user32:USER32.dll
 0001:002904a0       __abs64                    202914a0 f   LIBCMTD:abs.obj
 0001:002904e0       _abs                       202914e0 f   LIBCMTD:abs.obj
 0001:00290510       _fabs                      20291510 f   LIBCMTD:fabs.obj
 0001:00290610       __CIsqrt                   20291610 f   LIBCMTD:sqrt.obj
 0001:00290624       _sqrt                      20291624     LIBCMTD:sqrt.obj
 0001:002906d0       _memcpy                    202916d0 f   LIBCMTD:memcpy.obj
 0001:00290d20       _memset                    20291d20 f   LIBCMTD:memset.obj
 0001:00290db0       _strcmp                    20291db0 f   LIBCMTD:strcmp.obj
 0001:00290e40       _strchr                    20291e40 f   LIBCMTD:strchr.obj
 0001:00290eae       ___from_strstr_to_strchr   20291eae     LIBCMTD:strchr.obj
 0001:00290f70       _strstr                    20291f70 f   LIBCMTD:strstr.obj
 0001:002911e0       _rand                      202921e0 f   LIBCMTD:rand.obj
 0001:00291220       _srand                     20292220 f   LIBCMTD:rand.obj
 0001:00291230       @__security_check_cookie@4 20292230 f   LIBCMTD:secchk.obj
 0001:00291240       __ftol2_sse                20292240 f   LIBCMTD:ftol2.obj
 0001:00291249       __ftol2_pentium4           20292249 f   LIBCMTD:ftol2.obj
 0001:0029125c       __ftol2_sse_excpt          2029225c f   LIBCMTD:ftol2.obj
 0001:00291276       __ftol2                    20292276 f   LIBCMTD:ftol2.obj
 0001:002912f0       __fpmath                   202922f0 f   LIBCMTD:fpinit.obj
 0001:00291310       ___setfflag                20292310 f   LIBCMTD:fpinit.obj
 0001:00291330       __cfltcvt_init             20292330 f   LIBCMTD:fpinit.obj
 0001:002913f0       ___raise_securityfailure   202923f0 f   LIBCMTD:gs_report.obj
 0001:00291440       ___report_gsfailure        20292440 f   LIBCMTD:gs_report.obj
 0001:00291550       ___report_rangecheckfailure 20292550 f   LIBCMTD:gs_report.obj
 0001:00291560       ___report_securityfailure  20292560 f   LIBCMTD:gs_report.obj
 0001:00291640       ___report_securityfailureEx 20292640 f   LIBCMTD:gs_report.obj
 0001:00291770       ??0_LocaleUpdate@@QAE@PAUlocaleinfo_struct@@@Z 20292770 f i LIBCMTD:atof.obj
 0001:00291850       ??1_LocaleUpdate@@QAE@XZ   20292850 f i LIBCMTD:atof.obj
 0001:00291880       ?GetLocaleT@_LocaleUpdate@@QAEPAUlocaleinfo_struct@@XZ 20292880 f i LIBCMTD:atof.obj
 0001:00291890       ___STRINGTOLD              20292890 f   LIBCMTD:atof.obj
 0001:002918e0       ___strgtold12              202928e0 f   LIBCMTD:atof.obj
 0001:00291930       __atof_l                   20292930 f   LIBCMTD:atof.obj
 0001:00291a80       _atof                      20292a80 f   LIBCMTD:atof.obj
 0001:00291aa0       _strcpy                    20292aa0 f   LIBCMTD:strcat.obj
 0001:00291ab0       _strcat                    20292ab0 f   LIBCMTD:strcat.obj
 0001:00291ba0       _strlen                    20292ba0 f   LIBCMTD:strlen.obj
 0001:00291c30       __atoi64                   20292c30 f   LIBCMTD:atox.obj
 0001:00291c50       __atoi64_l                 20292c50 f   LIBCMTD:atox.obj
 0001:00291c70       __atoi_l                   20292c70 f   LIBCMTD:atox.obj
 0001:00291c90       __atol_l                   20292c90 f   LIBCMTD:atox.obj
 0001:00291cb0       __atoll_l                  20292cb0 f   LIBCMTD:atox.obj
 0001:00291cd0       _atoi                      20292cd0 f   LIBCMTD:atox.obj
 0001:00291cf0       _atol                      20292cf0 f   LIBCMTD:atox.obj
 0001:00291d10       _atoll                     20292d10 f   LIBCMTD:atox.obj
 0001:00291d30       __alloca_probe             20292d30 f   LIBCMTD:chkstk.obj
 0001:00291d30       __chkstk                   20292d30 f   LIBCMTD:chkstk.obj
 0001:00291d60       __invoke_watson_if_error   20292d60 f i LIBCMTD:wassert.obj
 0001:00291d90       __wassert                  20292d90 f   LIBCMTD:wassert.obj
 0001:002929d0       __scprintf                 202939d0 f   LIBCMTD:sprintf.obj
 0001:002929f0       __scprintf_l               202939f0 f   LIBCMTD:sprintf.obj
 0001:00292a20       __scprintf_p               20293a20 f   LIBCMTD:sprintf.obj
 0001:00292a40       __scprintf_p_l             20293a40 f   LIBCMTD:sprintf.obj
 0001:00292a70       __snprintf_s               20293a70 f   LIBCMTD:sprintf.obj
 0001:00292aa0       __snprintf_s_l             20293aa0 f   LIBCMTD:sprintf.obj
 0001:00292ad0       __sprintf_l                20293ad0 f   LIBCMTD:sprintf.obj
 0001:00292b00       __sprintf_p                20293b00 f   LIBCMTD:sprintf.obj
 0001:00292b30       __sprintf_p_l              20293b30 f   LIBCMTD:sprintf.obj
 0001:00292b60       __sprintf_s_l              20293b60 f   LIBCMTD:sprintf.obj
 0001:00292b90       _sprintf                   20293b90 f   LIBCMTD:sprintf.obj
 0001:00292d50       _sprintf_s                 20293d50 f   LIBCMTD:sprintf.obj
 0001:00292d80       ___isascii                 20293d80 f i LIBCMTD:_ctype.obj
 0001:00292db0       ___iscsym                  20293db0 f i LIBCMTD:_ctype.obj
 0001:00292df0       ___iscsymf                 20293df0 f i LIBCMTD:_ctype.obj
 0001:00292e30       ___toascii                 20293e30 f i LIBCMTD:_ctype.obj
 0001:00292e40       __isalnum_l                20293e40 f i LIBCMTD:_ctype.obj
 0001:00292ec0       __isalpha_l                20293ec0 f i LIBCMTD:_ctype.obj
 0001:00292f40       __isblank_l                20293f40 f i LIBCMTD:_ctype.obj
 0001:00292fd0       __iscntrl_l                20293fd0 f i LIBCMTD:_ctype.obj
 0001:00293050       __iscsym_l                 20294050 f i LIBCMTD:_ctype.obj
 0001:00293090       __iscsymf_l                20294090 f i LIBCMTD:_ctype.obj
 0001:002930d0       __isdigit_l                202940d0 f i LIBCMTD:_ctype.obj
 0001:00293150       __isgraph_l                20294150 f i LIBCMTD:_ctype.obj
 0001:002931d0       __islower_l                202941d0 f i LIBCMTD:_ctype.obj
 0001:00293250       __isprint_l                20294250 f i LIBCMTD:_ctype.obj
 0001:002932d0       __ispunct_l                202942d0 f i LIBCMTD:_ctype.obj
 0001:00293350       __isspace_l                20294350 f i LIBCMTD:_ctype.obj
 0001:002933d0       __isupper_l                202943d0 f i LIBCMTD:_ctype.obj
 0001:00293450       __isxdigit_l               20294450 f i LIBCMTD:_ctype.obj
 0001:002934d0       _isalnum                   202944d0 f i LIBCMTD:_ctype.obj
 0001:00293510       _isalpha                   20294510 f i LIBCMTD:_ctype.obj
 0001:00293550       _isblank                   20294550 f i LIBCMTD:_ctype.obj
 0001:002935a0       _iscntrl                   202945a0 f i LIBCMTD:_ctype.obj
 0001:002935d0       _isdigit                   202945d0 f i LIBCMTD:_ctype.obj
 0001:00293600       _isgraph                   20294600 f i LIBCMTD:_ctype.obj
 0001:00293640       _islower                   20294640 f i LIBCMTD:_ctype.obj
 0001:00293670       _isprint                   20294670 f i LIBCMTD:_ctype.obj
 0001:002936b0       _ispunct                   202946b0 f i LIBCMTD:_ctype.obj
 0001:002936e0       _isspace                   202946e0 f i LIBCMTD:_ctype.obj
 0001:00293710       _isupper                   20294710 f i LIBCMTD:_ctype.obj
 0001:00293740       _isxdigit                  20294740 f i LIBCMTD:_ctype.obj
 0001:00293780       __toupper                  20294780 f   LIBCMTD:toupper.obj
 0001:00293790       __toupper_l                20294790 f   LIBCMTD:toupper.obj
 0001:002939d0       _toupper                   202949d0 f   LIBCMTD:toupper.obj
 0001:00293a20       _pow                       20294a20 f   LIBCMTD:pow.obj
 0001:00293a60       __CIpow                    20294a60 f   LIBCMTD:pow.obj
 0001:00293a9b       __CIpow_default            20294a9b f   LIBCMTD:pow.obj
 0001:00293ab4       __pow_default              20294ab4     LIBCMTD:pow.obj
 0001:00293cb0       _atan2                     20294cb0 f   LIBCMTD:87ctriga.obj
 0001:00293cba       __CIatan2                  20294cba f   LIBCMTD:87ctriga.obj
 0001:00293cd0       _cos                       20294cd0 f   LIBCMTD:cos.obj
 0001:00293d10       __CIcos                    20294d10 f   LIBCMTD:cos.obj
 0001:00293d4b       __CIcos_default            20294d4b f   LIBCMTD:cos.obj
 0001:00293d5f       __cos_default              20294d5f     LIBCMTD:cos.obj
 0001:00293e00       _sin                       20294e00 f   LIBCMTD:sin.obj
 0001:00293e40       __CIsin                    20294e40 f   LIBCMTD:sin.obj
 0001:00293e7b       __CIsin_default            20294e7b f   LIBCMTD:sin.obj
 0001:00293e8f       __sin_default              20294e8f     LIBCMTD:sin.obj
 0001:00293f30       __sscanf_l                 20294f30 f   LIBCMTD:sscanf.obj
 0001:00293f60       __sscanf_s_l               20294f60 f   LIBCMTD:sscanf.obj
 0001:00293f90       _sscanf                    20294f90 f   LIBCMTD:sscanf.obj
 0001:00293fc0       _sscanf_s                  20294fc0 f   LIBCMTD:sscanf.obj
 0001:00294180       _vsscanf                   20295180 f   LIBCMTD:sscanf.obj
 0001:002941a0       _vsscanf_s                 202951a0 f   LIBCMTD:sscanf.obj
 0001:002941c0       _ceil                      202951c0 f   LIBCMTD:ceil_pentium4.obj
 0001:00294200       __ceil_pentium4            20295200 f   LIBCMTD:ceil_pentium4.obj
 0001:002942e0       _floor                     202952e0 f   LIBCMTD:floor_pentium4.obj
 0001:00294320       __floor_pentium4           20295320 f   LIBCMTD:floor_pentium4.obj
 0001:00294410       _strncpy                   20295410 f   LIBCMTD:strncpy.obj
 0001:00294540       __tolower                  20295540 f   LIBCMTD:tolower.obj
 0001:00294550       __tolower_l                20295550 f   LIBCMTD:tolower.obj
 0001:00294790       _tolower                   20295790 f   LIBCMTD:tolower.obj
 0001:002947e0       __vscprintf                202957e0 f   LIBCMTD:vsprintf.obj
 0001:00294800       __vscprintf_helper         20295800 f   LIBCMTD:vsprintf.obj
 0001:002948f0       __vscprintf_l              202958f0 f   LIBCMTD:vsprintf.obj
 0001:00294910       __vscprintf_p              20295910 f   LIBCMTD:vsprintf.obj
 0001:00294930       __vscprintf_p_l            20295930 f   LIBCMTD:vsprintf.obj
 0001:00294950       __vsprintf_l               20295950 f   LIBCMTD:vsprintf.obj
 0001:00294b10       _vsprintf                  20295b10 f   LIBCMTD:vsprintf.obj
 0001:00294b30       _strrchr                   20295b30 f   LIBCMTD:strrchr.obj
 0001:00294c70       _qsort                     20295c70 f   LIBCMTD:qsort.obj
 0001:002952f0       _acos                      202962f0 f   LIBCMTD:acos.obj
 0001:00295330       __CIacos                   20296330 f   LIBCMTD:acos.obj
 0001:0029536b       __CIacos_default           2029636b f   LIBCMTD:acos.obj
 0001:0029537f       __acos_default             2029637f     LIBCMTD:acos.obj
 0001:00295440       __ftoui3                   20296440 f   LIBCMTD:ftol3.obj
 0001:0029544f       __ftoul3                   2029644f f   LIBCMTD:ftol3.obj
 0001:0029545e       __ftol3                    2029645e f   LIBCMTD:ftol3.obj
 0001:0029546b       __ftol3_NaN                2029646b f   LIBCMTD:ftol3.obj
 0001:00295483       __ftol3_work               20296483 f   LIBCMTD:ftol3.obj
 0001:00295509       __ftol3_common             20296509 f   LIBCMTD:ftol3.obj
 0001:002955cb       __ftol3_arg_error          202965cb f   LIBCMTD:ftol3.obj
 0001:002955dd       __ftol3_except             202965dd f   LIBCMTD:ftol3.obj
 0001:00295621       __dtoui3                   20296621 f   LIBCMTD:ftol3.obj
 0001:00295630       __dtoul3                   20296630 f   LIBCMTD:ftol3.obj
 0001:0029563f       __dtol3                    2029663f f   LIBCMTD:ftol3.obj
 0001:0029564c       __dtol3_NaN                2029664c f   LIBCMTD:ftol3.obj
 0001:00295669       __dtol3_work               20296669 f   LIBCMTD:ftol3.obj
 0001:0029574e       __ultod3                   2029674e f   LIBCMTD:ftol3.obj
 0001:002957df       __ltod3                    202967df f   LIBCMTD:ftol3.obj
 0001:00295810       _fmod                      20296810 f   LIBCMTD:87fmod.obj
 0001:0029581a       __CIfmod                   2029681a f   LIBCMTD:87fmod.obj
 0001:00295840       __Getdays                  20296840 f   LIBCMTD:strftime.obj
 0001:00295850       __Getdays_l                20296850 f   LIBCMTD:strftime.obj
 0001:00295a00       __Getmonths                20296a00 f   LIBCMTD:strftime.obj
 0001:00295a10       __Getmonths_l              20296a10 f   LIBCMTD:strftime.obj
 0001:00295bc0       __Gettnames                20296bc0 f   LIBCMTD:strftime.obj
 0001:00295bd0       __Strftime                 20296bd0 f   LIBCMTD:strftime.obj
 0001:00295c00       __Strftime_l               20296c00 f   LIBCMTD:strftime.obj
 0001:00295fd0       __strftime_l               20296fd0 f   LIBCMTD:strftime.obj
 0001:00296000       _strftime                  20297000 f   LIBCMTD:strftime.obj
 0001:00296030       __localtime64              20297030 f   LIBCMTD:loctim64.obj
 0001:00296070       __localtime64_s            20297070 f   LIBCMTD:loctim64.obj
 0001:002965c0       __time64                   202975c0 f   LIBCMTD:time64.obj
 0001:00296640       _free                      20297640 f   LIBCMTD:dbgfree.obj
 0001:00296660       _malloc                    20297660 f   LIBCMTD:dbgmalloc.obj
 0001:00296690       _realloc                   20297690 f   LIBCMTD:dbgrealloc.obj
 0001:002966c0       __unlink                   202976c0 f   LIBCMTD:unlink.obj
 0001:002966e0       _remove                    202976e0 f   LIBCMTD:unlink.obj
 0001:00296730       __beginthreadex            20297730 f   LIBCMTD:threadex.obj
 0001:00296960       __endthreadex              20297960 f   LIBCMTD:threadex.obj
 0001:00296b60       _tan                       20297b60 f   LIBCMTD:tan.obj
 0001:00296ba0       __CItan                    20297ba0 f   LIBCMTD:tan.obj
 0001:00296bdb       __CItan_default            20297bdb f   LIBCMTD:tan.obj
 0001:00296bef       __tan_default              20297bef     LIBCMTD:tan.obj
 0001:00296c90       _memmove                   20297c90 f   LIBCMTD:memmove.obj
 0001:002972e0       __vsnprintf                202982e0 f   LIBCMTD:vsnprint.obj
 0001:00297300       __vsnprintf_l              20298300 f   LIBCMTD:vsnprint.obj
 0001:002974e0       __CRT_INIT@12              202984e0 f   LIBCMTD:dllcrt0.obj
 0001:00297730       __DllMainCRTStartup@12     20298730 f   LIBCMTD:dllcrt0.obj
 0001:00297920       ___DllXcptFilter           20298920 f   LIBCMTD:dllcrt0.obj
 0001:00297950       __errcode                  20298950 f   LIBCMTD:fpexcept.obj
 0001:002979c0       __except1                  202989c0 f   LIBCMTD:fpexcept.obj
 0001:00297ac0       __except2                  20298ac0 f   LIBCMTD:fpexcept.obj
 0001:00297c10       __handle_exc               20298c10 f   LIBCMTD:fpexcept.obj
 0001:00297f30       __handle_qnan1             20298f30 f   LIBCMTD:fpexcept.obj
 0001:00297f90       __handle_qnan2             20298f90 f   LIBCMTD:fpexcept.obj
 0001:00298000       __raise_exc                20299000 f   LIBCMTD:fpexcept.obj
 0001:00298030       __raise_exc_ex             20299030 f   LIBCMTD:fpexcept.obj
 0001:002985b0       __raise_excf               202995b0 f   LIBCMTD:fpexcept.obj
 0001:002985e0       __set_errno_from_matherr   202995e0 f   LIBCMTD:fpexcept.obj
 0001:00298620       __umatherr                 20299620 f   LIBCMTD:fpexcept.obj
 0001:002986c0       __add_exp                  202996c0 f   LIBCMTD:util.obj
 0001:002986f0       __decomp                   202996f0 f   LIBCMTD:util.obj
 0001:00298810       __get_exp                  20299810 f   LIBCMTD:util.obj
 0001:00298840       __set_bexp                 20299840 f   LIBCMTD:util.obj
 0001:00298870       __set_exp                  20299870 f   LIBCMTD:util.obj
 0001:002988b0       __sptype                   202998b0 f   LIBCMTD:util.obj
 0001:00298930       ___clrfp_sse2              20299930 f   LIBCMTD:fpctrl.obj
 0001:00298970       ___ctrlfp_sse2             20299970 f   LIBCMTD:fpctrl.obj
 0001:002989d0       ___fclrf_sse2              202999d0 f   LIBCMTD:fpctrl.obj
 0001:002989f0       ___get_fpsr_sse2           202999f0 f   LIBCMTD:fpctrl.obj
 0001:00298a20       ___set_fpsr_sse2           20299a20 f   LIBCMTD:fpctrl.obj
 0001:00298b00       ___set_statfp_sse2         20299b00 f   LIBCMTD:fpctrl.obj
 0001:00298b30       ___statfp_sse2             20299b30 f   LIBCMTD:fpctrl.obj
 0001:00298b60       __clrfp                    20299b60 f   LIBCMTD:fpctrl.obj
 0001:00298b80       __ctrlfp                   20299b80 f   LIBCMTD:fpctrl.obj
 0001:00298bb0       __set_statfp               20299bb0 f   LIBCMTD:fpctrl.obj
 0001:00298c20       __statfp                   20299c20 f   LIBCMTD:fpctrl.obj
 0001:00298c30       __trandisp1                20299c30 f   LIBCMTD:87disp.obj
 0001:00298c97       __trandisp2                20299c97 f   LIBCMTD:87disp.obj
 0001:00298d23       __rttospopde               20299d23     LIBCMTD:87disp.obj
 0001:00298d28       __rttospop                 20299d28     LIBCMTD:87disp.obj
 0001:00298d2a       __rtnospop                 20299d2a     LIBCMTD:87disp.obj
 0001:00298d2c       __rttosnpop                20299d2c     LIBCMTD:87disp.obj
 0001:00298d2d       __rtnospopde               20299d2d     LIBCMTD:87disp.obj
 0001:00298d34       __rtzeropop                20299d34     LIBCMTD:87disp.obj
 0001:00298d36       __rtzeronpop               20299d36     LIBCMTD:87disp.obj
 0001:00298d3b       __rtonepop                 20299d3b     LIBCMTD:87disp.obj
 0001:00298d3d       __rtonenpop                20299d3d     LIBCMTD:87disp.obj
 0001:00298d42       __tosnan1                  20299d42     LIBCMTD:87disp.obj
 0001:00298d6d       __nosnan2                  20299d6d     LIBCMTD:87disp.obj
 0001:00298d6f       __tosnan2                  20299d6f     LIBCMTD:87disp.obj
 0001:00298d97       __nan2                     20299d97     LIBCMTD:87disp.obj
 0001:00298dd6       __rtindfpop                20299dd6     LIBCMTD:87disp.obj
 0001:00298dd8       __rtindfnpop               20299dd8     LIBCMTD:87disp.obj
 0001:00298de9       __rttosnpopde              20299de9     LIBCMTD:87disp.obj
 0001:00298df3       __rtchsifneg               20299df3     LIBCMTD:87disp.obj
 0001:00298e00       __startTwoArgErrorHandling 20299e00 f   LIBCMTD:genexcep.obj
 0001:00298e17       __startOneArgErrorHandling 20299e17 f   LIBCMTD:genexcep.obj
 0001:00298e60       __twoToTOS                 20299e60 f   LIBCMTD:common.obj
 0001:00298e75       __load_CW                  20299e75 f   LIBCMTD:common.obj
 0001:00298e8c       __convertTOStoQNaN         20299e8c f   LIBCMTD:common.obj
 0001:00298ea5       __fload_withFB             20299ea5 f   LIBCMTD:common.obj
 0001:00298ee8       __checkTOS_withFB          20299ee8 f   LIBCMTD:common.obj
 0001:00298efe       __fast_exit                20299efe f   LIBCMTD:common.obj
 0001:00298f0b       __math_exit                20299f0b f   LIBCMTD:common.obj
 0001:00298f35       __check_overflow_exit      20299f35 f   LIBCMTD:common.obj
 0001:00298f49       __check_range_exit         20299f49 f   LIBCMTD:common.obj
 0001:00298ff0       ___isa_available_init      20299ff0 f   LIBCMTD:cpu_disp.obj
 0001:002992a0       __VEC_memset               2029a2a0 f   LIBCMTD:p4_memset.obj
 0001:00299370       ___get_flsindex            2029a370 f   LIBCMTD:tidtable.obj
 0001:00299380       ___threadhandle            2029a380 f   LIBCMTD:tidtable.obj
 0001:00299390       ___threadid                2029a390 f   LIBCMTD:tidtable.obj
 0001:002993a0       __freefls@4                2029a3a0 f   LIBCMTD:tidtable.obj
 0001:002995a0       __freeptd                  2029a5a0 f   LIBCMTD:tidtable.obj
 0001:002995e0       __getptd                   2029a5e0 f   LIBCMTD:tidtable.obj
 0001:00299610       __getptd_noexit            2029a610 f   LIBCMTD:tidtable.obj
 0001:002996c0       __initptd                  2029a6c0 f   LIBCMTD:tidtable.obj
 0001:00299800       __mtinit                   2029a800 f   LIBCMTD:tidtable.obj
 0001:002998b0       __mtterm                   2029a8b0 f   LIBCMTD:tidtable.obj
 0001:002998e0       __cfltcvt                  2029a8e0 f   LIBCMTD:cvt.obj
 0001:00299910       __cfltcvt_l                2029a910 f   LIBCMTD:cvt.obj
 0001:002999d0       __cftoa                    2029a9d0 f   LIBCMTD:cvt.obj
 0001:00299a00       __cftoa_l                  2029aa00 f   LIBCMTD:cvt.obj
 0001:0029a270       __cftoe                    2029b270 f   LIBCMTD:cvt.obj
 0001:0029a6b0       __cftoe_l                  2029b6b0 f   LIBCMTD:cvt.obj
 0001:0029a8e0       __cftof                    2029b8e0 f   LIBCMTD:cvt.obj
 0001:0029ab90       __cftof_l                  2029bb90 f   LIBCMTD:cvt.obj
 0001:0029ad90       __cftog                    2029bd90 f   LIBCMTD:cvt.obj
 0001:0029adc0       __cftog_l                  2029bdc0 f   LIBCMTD:cvt.obj
 0001:0029b050       __cropzeros                2029c050 f   LIBCMTD:cvt.obj
 0001:0029b070       __cropzeros_l              2029c070 f   LIBCMTD:cvt.obj
 0001:0029b190       __fassign                  2029c190 f   LIBCMTD:cvt.obj
 0001:0029b1b0       __fassign_l                2029c1b0 f   LIBCMTD:cvt.obj
 0001:0029b200       __forcdecpt                2029c200 f   LIBCMTD:cvt.obj
 0001:0029b220       __forcdecpt_l              2029c220 f   LIBCMTD:cvt.obj
 0001:0029b2f0       __positive                 2029c2f0 f   LIBCMTD:cvt.obj
 0001:0029b350       __setdefaultprecision      2029c350 f   LIBCMTD:fp8.obj
 0001:0029b390       __initp_misc_cfltcvt_tab   2029c390 f   LIBCMTD:cmiscdat.obj
 0001:0029b3d0       __CrtDefaultAllocHook      2029c3d0 f   LIBCMTD:dbghook.obj
 0001:0029b3e0       __crt_debugger_hook        2029c3e0 f   LIBCMTD:dbghook.obj
 0001:0029b440       ___crtCloseThreadpoolTimer 2029c440 f   LIBCMTD:winapisupp.obj
 0001:0029b470       ___crtCloseThreadpoolWait  2029c470 f   LIBCMTD:winapisupp.obj
 0001:0029b4a0       ___crtCreateEventExW       2029c4a0 f   LIBCMTD:winapisupp.obj
 0001:0029b500       ___crtCreateSemaphoreExW   2029c500 f   LIBCMTD:winapisupp.obj
 0001:0029b560       ___crtCreateSymbolicLinkW  2029c560 f   LIBCMTD:winapisupp.obj
 0001:0029b5a0       ___crtCreateThreadpoolTimer 2029c5a0 f   LIBCMTD:winapisupp.obj
 0001:0029b5e0       ___crtCreateThreadpoolWait 2029c5e0 f   LIBCMTD:winapisupp.obj
 0001:0029b620       ___crtFlsAlloc             2029c620 f   LIBCMTD:winapisupp.obj
 0001:0029b650       ___crtFlsFree              2029c650 f   LIBCMTD:winapisupp.obj
 0001:0029b690       ___crtFlsGetValue          2029c690 f   LIBCMTD:winapisupp.obj
 0001:0029b6d0       ___crtFlsSetValue          2029c6d0 f   LIBCMTD:winapisupp.obj
 0001:0029b710       ___crtFlushProcessWriteBuffers 2029c710 f   LIBCMTD:winapisupp.obj
 0001:0029b740       ___crtFreeLibraryWhenCallbackReturns 2029c740 f   LIBCMTD:winapisupp.obj
 0001:0029b770       ___crtGetCurrentProcessorNumber 2029c770 f   LIBCMTD:winapisupp.obj
 0001:0029b7a0       ___crtGetFileInformationByHandleEx 2029c7a0 f   LIBCMTD:winapisupp.obj
 0001:0029b7e0       ___crtGetLogicalProcessorInformation 2029c7e0 f   LIBCMTD:winapisupp.obj
 0001:0029b820       ___crtGetShowWindowMode    2029c820 f   LIBCMTD:winapisupp.obj
 0001:0029b850       ___crtGetTickCount64       2029c850 f   LIBCMTD:winapisupp.obj
 0001:0029b880       ___crtInitializeCriticalSectionEx 2029c880 f   LIBCMTD:winapisupp.obj
 0001:0029b8d0       ___crtIsPackagedApp        2029c8d0 f   LIBCMTD:winapisupp.obj
 0001:0029b910       ___crtLoadWinApiPointers   2029c910 f   LIBCMTD:winapisupp.obj
 0001:0029bdb0       ___crtSetFileInformationByHandle 2029cdb0 f   LIBCMTD:winapisupp.obj
 0001:0029bdf0       ___crtSetThreadStackGuarantee 2029cdf0 f   LIBCMTD:winapisupp.obj
 0001:0029be20       ___crtSetThreadpoolTimer   2029ce20 f   LIBCMTD:winapisupp.obj
 0001:0029be60       ___crtSetThreadpoolWait    2029ce60 f   LIBCMTD:winapisupp.obj
 0001:0029be90       ___crtSetUnhandledExceptionFilter 2029ce90 f   LIBCMTD:winapisupp.obj
 0001:0029bea0       ___crtSleep                2029cea0 f   LIBCMTD:winapisupp.obj
 0001:0029beb0       ___crtTerminateProcess     2029ceb0 f   LIBCMTD:winapisupp.obj
 0001:0029bed0       ___crtUnhandledException   2029ced0 f   LIBCMTD:winapisupp.obj
 0001:0029bef0       ___crtWaitForThreadpoolTimerCallbacks 2029cef0 f   LIBCMTD:winapisupp.obj
 0001:0029bf20       ?_invalid_parameter@@YAXPBG00II@Z 2029cf20 f   LIBCMTD:invarg.obj
 0001:0029bf50       ?_invoke_watson@@YAXPBG00II@Z 2029cf50 f   LIBCMTD:invarg.obj
 0001:0029bf70       __call_reportfault         2029cf70 f   LIBCMTD:invarg.obj
 0001:0029c0d0       __get_invalid_parameter_handler 2029d0d0 f   LIBCMTD:invarg.obj
 0001:0029c100       __initp_misc_invarg        2029d100 f   LIBCMTD:invarg.obj
 0001:0029c110       __invalid_parameter        2029d110 f   LIBCMTD:invarg.obj
 0001:0029c170       __invoke_watson            2029d170 f   LIBCMTD:invarg.obj
 0001:0029c1b0       __set_invalid_parameter_handler 2029d1b0 f   LIBCMTD:invarg.obj
 0001:0029c1f0       ___doserrno                2029d1f0 f   LIBCMTD:dosmap.obj
 0001:0029c220       __dosmaperr                2029d220 f   LIBCMTD:dosmap.obj
 0001:0029c250       __errno                    2029d250 f   LIBCMTD:dosmap.obj
 0001:0029c280       __get_doserrno             2029d280 f   LIBCMTD:dosmap.obj
 0001:0029c310       __get_errno                2029d310 f   LIBCMTD:dosmap.obj
 0001:0029c3a0       __get_errno_from_oserr     2029d3a0 f   LIBCMTD:dosmap.obj
 0001:0029c420       __set_doserrno             2029d420 f   LIBCMTD:dosmap.obj
 0001:0029c450       __set_errno                2029d450 f   LIBCMTD:dosmap.obj
 0001:0029c480       __fltin2                   2029d480 f   LIBCMTD:cfin.obj
 0001:0029c560       ___STRINGTOLD_L            2029d560 f   LIBCMTD:strgtold.obj
 0001:0029c5d0       ___addl                    2029d5d0 f i LIBCMTD:strgtold.obj
 0001:0029c610       ___ld12mul                 2029d610 f i LIBCMTD:strgtold.obj
 0001:0029ca20       ___multtenpow12            2029da20 f i LIBCMTD:strgtold.obj
 0001:0029cb00       ___shl_12                  2029db00 f i LIBCMTD:strgtold.obj
 0001:0029cb80       ___shr_12                  2029db80 f i LIBCMTD:strgtold.obj
 0001:0029cc00       ___strgtold12_l            2029dc00 f   LIBCMTD:strgtold.obj
 0001:0029d6f0       ___addlocaleref            2029e6f0 f   LIBCMTD:localref.obj
 0001:0029d810       ___freetlocinfo            2029e810 f   LIBCMTD:localref.obj
 0001:0029db00       ___removelocaleref         2029eb00 f   LIBCMTD:localref.obj
 0001:0029dc20       ___updatetlocinfo          2029ec20 f   LIBCMTD:localref.obj
 0001:0029dcf0       __updatetlocinfoEx_nolock  2029ecf0 f   LIBCMTD:localref.obj
 0001:0029dd70       ___initmbctable            2029ed70 f   LIBCMTD:mbctype.obj
 0001:0029e390       ___updatetmbcinfo          2029f390 f   LIBCMTD:mbctype.obj
 0001:0029e4b0       __getmbcp                  2029f4b0 f   LIBCMTD:mbctype.obj
 0001:0029e520       __setmbcp                  2029f520 f   LIBCMTD:mbctype.obj
 0001:0029e7c0       __setmbcp_nolock           2029f7c0 f   LIBCMTD:mbctype.obj
 0001:0029eb40       __chvalidator              2029fb40 f   LIBCMTD:isctype.obj
 0001:0029eb90       __chvalidator_l            2029fb90 f   LIBCMTD:isctype.obj
 0001:0029ec50       __isctype                  2029fc50 f   LIBCMTD:isctype.obj
 0001:0029ec90       __isctype_l                2029fc90 f   LIBCMTD:isctype.obj
 0001:0029ede0       ?_CrtDbgReportW@@YAHHPBGH00ZZ 2029fde0 f   LIBCMTD:dbgrptw.obj
 0001:0029ee30       __CrtDbgReportW            2029fe30 f   LIBCMTD:dbgrptw.obj
 0001:0029ee80       __CrtDbgReportWV           2029fe80 f i LIBCMTD:dbgrptw.obj
 0001:0029eeb0       __CrtSetReportHookW2       2029feb0 f   LIBCMTD:dbgrptw.obj
 0001:0029f200       ___crtMessageWindowW       202a0200 f   LIBCMTD:dbgrptw.obj
 0001:0029f6b0       __invoke_watson_if_oneof   202a06b0 f i LIBCMTD:dbgrptw.obj
 0001:0029fc20       __strtof_l                 202a0c20 f   LIBCMTD:strtoq.obj
 0001:0029fc50       __strtoi64                 202a0c50 f   LIBCMTD:strtoq.obj
 0001:0029fca0       __strtoi64_l               202a0ca0 f   LIBCMTD:strtoq.obj
 0001:0029fcc0       __strtoimax_l              202a0cc0 f   LIBCMTD:strtoq.obj
 0001:0029fce0       __strtold_l                202a0ce0 f   LIBCMTD:strtoq.obj
 0001:0029fd00       __strtoll_l                202a0d00 f   LIBCMTD:strtoq.obj
 0001:0029fd20       __strtoui64                202a0d20 f   LIBCMTD:strtoq.obj
 0001:0029fd70       __strtoui64_l              202a0d70 f   LIBCMTD:strtoq.obj
 0001:0029fd90       __strtoull_l               202a0d90 f   LIBCMTD:strtoq.obj
 0001:0029fdb0       __strtoumax_l              202a0db0 f   LIBCMTD:strtoq.obj
 0001:0029fdd0       _strtof                    202a0dd0 f   LIBCMTD:strtoq.obj
 0001:0029fe00       _strtoimax                 202a0e00 f   LIBCMTD:strtoq.obj
 0001:0029fe20       _strtold                   202a0e20 f   LIBCMTD:strtoq.obj
 0001:0029fe40       _strtoll                   202a0e40 f   LIBCMTD:strtoq.obj
 0001:0029fe60       _strtoull                  202a0e60 f   LIBCMTD:strtoq.obj
 0001:0029fe80       _strtoumax                 202a0e80 f   LIBCMTD:strtoq.obj
 0001:002a03a0       __strtol_l                 202a13a0 f   LIBCMTD:strtol.obj
 0001:002a03c0       __strtoul_l                202a13c0 f   LIBCMTD:strtol.obj
 0001:002a03e0       _strtol                    202a13e0 f   LIBCMTD:strtol.obj
 0001:002a0430       _strtoul                   202a1430 f   LIBCMTD:strtol.obj
 0001:002a0480       _memcpy_s                  202a1480 f   LIBCMTD:memcpy_s.obj
 0001:002a0650       _wcscat_s                  202a1650 f   LIBCMTD:wcscat_s.obj
 0001:002a0a60       _wcscpy_s                  202a1a60 f   LIBCMTD:wcscpy_s.obj
 0001:002a0d70       _wcslen                    202a1d70 f   LIBCMTD:wcslen.obj
 0001:002a0db0       _wcsncat_s                 202a1db0 f   LIBCMTD:wcsncat_s.obj
 0001:002a12a0       ___copy_path_to_wide_string 202a22a0 f   LIBCMTD:crt0dat.obj
 0001:002a1490       ___copy_to_char            202a2490 f   LIBCMTD:crt0dat.obj
 0001:002a1680       ___crtCorExitProcess       202a2680 f   LIBCMTD:crt0dat.obj
 0001:002a16c0       ___crtExitProcess          202a26c0 f   LIBCMTD:crt0dat.obj
 0001:002a16e0       ___freeCrtMemory           202a26e0 f   LIBCMTD:crt0dat.obj
 0001:002a18b0       __amsg_exit                202a28b0 f   LIBCMTD:crt0dat.obj
 0001:002a18d0       __c_exit                   202a28d0 f   LIBCMTD:crt0dat.obj
 0001:002a18f0       __cexit                    202a28f0 f   LIBCMTD:crt0dat.obj
 0001:002a1910       __cinit                    202a2910 f   LIBCMTD:crt0dat.obj
 0001:002a19b0       __exit                     202a29b0 f   LIBCMTD:crt0dat.obj
 0001:002a19d0       __exit_app                 202a29d0 f   LIBCMTD:crt0dat.obj
 0001:002a19f0       __get_pgmptr               202a29f0 f   LIBCMTD:crt0dat.obj
 0001:002a1b10       __get_wpgmptr              202a2b10 f   LIBCMTD:crt0dat.obj
 0001:002a1c30       __init_pointers            202a2c30 f   LIBCMTD:crt0dat.obj
 0001:002a1cc0       __initterm_e               202a2cc0 f   LIBCMTD:crt0dat.obj
 0001:002a1d00       __lockexit                 202a2d00 f   LIBCMTD:crt0dat.obj
 0001:002a1d10       __unlockexit               202a2d10 f   LIBCMTD:crt0dat.obj
 0001:002a1f10       _exit                      202a2f10 f   LIBCMTD:crt0dat.obj
 0001:002a1f30       __set_abort_behavior       202a2f30 f   LIBCMTD:abort.obj
 0001:002a1f60       _abort                     202a2f60 f   LIBCMTD:abort.obj
 0001:002a1fd0       ___set_app_type            202a2fd0 f   LIBCMTD:errmode.obj
 0001:002a1fe0       __set_error_mode           202a2fe0 f   LIBCMTD:errmode.obj
 0001:002a24e0       __i64tow_s                 202a34e0 f   LIBCMTD:xtows.obj
 0001:002a2530       __itow_s                   202a3530 f   LIBCMTD:xtows.obj
 0001:002a2590       __ltow_s                   202a3590 f   LIBCMTD:xtows.obj
 0001:002a25d0       __ui64tow_s                202a35d0 f   LIBCMTD:xtows.obj
 0001:002a25f0       __ultow_s                  202a35f0 f   LIBCMTD:xtows.obj
 0001:002a2a10       ___initstdio               202a3a10 f   LIBCMTD:_file.obj
 0001:002a2ae0       ___endstdio                202a3ae0 f   LIBCMTD:_file.obj
 0001:002a2b20       ___iob_func                202a3b20 f   LIBCMTD:_file.obj
 0001:002a2b30       __lock_file                202a3b30 f   LIBCMTD:_file.obj
 0001:002a2b90       __lock_file2               202a3b90 f   LIBCMTD:_file.obj
 0001:002a2bd0       __unlock_file              202a3bd0 f   LIBCMTD:_file.obj
 0001:002a2c30       __unlock_file2             202a3c30 f   LIBCMTD:_file.obj
 0001:002a2c70       __fflush_nolock            202a3c70 f   LIBCMTD:fflush.obj
 0001:002a2ce0       __flush                    202a3ce0 f   LIBCMTD:fflush.obj
 0001:002a2da0       __flushall                 202a3da0 f   LIBCMTD:fflush.obj
 0001:002a2db0       _fflush                    202a3db0 f   LIBCMTD:fflush.obj
 0001:002a2ff0       _setvbuf                   202a3ff0 f   LIBCMTD:setvbuf.obj
 0001:002a32f0       __fwprintf_l               202a42f0 f   LIBCMTD:fwprintf.obj
 0001:002a3320       __fwprintf_p               202a4320 f   LIBCMTD:fwprintf.obj
 0001:002a3350       __fwprintf_p_l             202a4350 f   LIBCMTD:fwprintf.obj
 0001:002a3380       __fwprintf_s_l             202a4380 f   LIBCMTD:fwprintf.obj
 0001:002a33b0       _fwprintf                  202a43b0 f   LIBCMTD:fwprintf.obj
 0001:002a3560       _fwprintf_s                202a4560 f   LIBCMTD:fwprintf.obj
 0001:002a3590       __vsnwprintf_s             202a4590 f   LIBCMTD:vswprnc.obj
 0001:002a35c0       __vsnwprintf_s_l           202a45c0 f   LIBCMTD:vswprnc.obj
 0001:002a3990       __vswprintf_c              202a4990 f   LIBCMTD:vswprnc.obj
 0001:002a39e0       __vswprintf_c_l            202a49e0 f   LIBCMTD:vswprnc.obj
 0001:002a3a30       __vswprintf_helper         202a4a30 f   LIBCMTD:vswprnc.obj
 0001:002a3ca0       __vswprintf_p              202a4ca0 f   LIBCMTD:vswprnc.obj
 0001:002a3cf0       __vswprintf_p_l            202a4cf0 f   LIBCMTD:vswprnc.obj
 0001:002a3d40       __vswprintf_s_l            202a4d40 f   LIBCMTD:vswprnc.obj
 0001:002a3fd0       _vswprintf_s               202a4fd0 f   LIBCMTD:vswprnc.obj
 0001:002a3ff0       ___fpecode                 202a4ff0 f   LIBCMTD:winsig.obj
 0001:002a4000       ___get_sigabrt             202a5000 f   LIBCMTD:winsig.obj
 0001:002a4020       ___pxcptinfoptrs           202a5020 f   LIBCMTD:winsig.obj
 0001:002a4030       __initp_misc_winsig        202a5030 f   LIBCMTD:winsig.obj
 0001:002a4160       _raise                     202a5160 f   LIBCMTD:winsig.obj
 0001:002a44f0       _signal                    202a54f0 f   LIBCMTD:winsig.obj
 0001:002a48a0       ___crtMessageBoxW          202a58a0 f   LIBCMTD:crtmboxw.obj
 0001:002a4bb0       ___crtMessageBoxWaitThreadW@4 202a5bb0 f   LIBCMTD:crtmboxw.obj
 0001:002a4bf0       __FF_MSGBANNER             202a5bf0 f   LIBCMTD:crt0msg.obj
 0001:002a4c40       __GET_RTERRMSG             202a5c40 f   LIBCMTD:crt0msg.obj
 0001:002a4c80       __NMSG_WRITE               202a5c80 f   LIBCMTD:crt0msg.obj
 0001:002a5040       __flsbuf                   202a6040 f   LIBCMTD:_flsbuf.obj
 0001:002a5310       __vsnprintf_c              202a6310 f   LIBCMTD:vsnprnc.obj
 0001:002a5360       __vsnprintf_c_l            202a6360 f   LIBCMTD:vsnprnc.obj
 0001:002a53b0       __vsnprintf_helper         202a63b0 f   LIBCMTD:vsnprnc.obj
 0001:002a55b0       __vsnprintf_s              202a65b0 f   LIBCMTD:vsnprnc.obj
 0001:002a55e0       __vsnprintf_s_l            202a65e0 f   LIBCMTD:vsnprnc.obj
 0001:002a59a0       __vsprintf_p               202a69a0 f   LIBCMTD:vsnprnc.obj
 0001:002a59f0       __vsprintf_p_l             202a69f0 f   LIBCMTD:vsnprnc.obj
 0001:002a5a40       __vsprintf_s_l             202a6a40 f   LIBCMTD:vsnprnc.obj
 0001:002a5cd0       _vsprintf_s                202a6cd0 f   LIBCMTD:vsnprnc.obj
 0001:002a5cf0       __output_l                 202a6cf0 f   LIBCMTD:output.obj
 0001:002a73a0       _get_int64_arg             202a83a0 f i LIBCMTD:output.obj
 0001:002a73c0       _get_int_arg               202a83c0 f i LIBCMTD:output.obj
 0001:002a73e0       _get_short_arg             202a83e0 f i LIBCMTD:output.obj
 0001:002a75a0       ___init_dummy              202a85a0 f   LIBCMTD:wsetloca.obj
 0001:002a75b0       __locterm                  202a85b0 f   LIBCMTD:wsetloca.obj
 0001:002a7640       ____setlc_active_func      202a8640 f   LIBCMTD:wsetloca.obj
 0001:002a7650       ____unguarded_readlc_active_add_func 202a8650 f   LIBCMTD:wsetloca.obj
 0001:002a7660       ___copy_locale_name        202a8660 f   LIBCMTD:wsetloca.obj
 0001:002a7700       ___create_locale           202a8700 f   LIBCMTD:wsetloca.obj
 0001:002a7720       ___free_locale             202a8720 f   LIBCMTD:wsetloca.obj
 0001:002a7740       ___get_current_locale      202a8740 f   LIBCMTD:wsetloca.obj
 0001:002a7750       ___lc_lctowcs              202a8750 f   LIBCMTD:wsetloca.obj
 0001:002a7800       ___lc_wcstolc              202a8800 f   LIBCMTD:wsetloca.obj
 0001:002a7a20       __configthreadlocale       202a8a20 f   LIBCMTD:wsetloca.obj
 0001:002a7b80       __create_locale            202a8b80 f   LIBCMTD:wsetloca.obj
 0001:002a7bf0       __expandlocale             202a8bf0 f   LIBCMTD:wsetloca.obj
 0001:002a80e0       __free_locale              202a90e0 f   LIBCMTD:wsetloca.obj
 0001:002a8210       __get_current_locale       202a9210 f   LIBCMTD:wsetloca.obj
 0001:002a8330       __wcreate_locale           202a9330 f   LIBCMTD:wsetloca.obj
 0001:002a8520       __wcscats                  202a9520 f   LIBCMTD:wsetloca.obj
 0001:002a85a0       __wsetlocale               202a95a0 f   LIBCMTD:wsetloca.obj
 0001:002a9630       ___iswcsym                 202aa630 f i LIBCMTD:_wctype.obj
 0001:002a9670       ___iswcsymf                202aa670 f i LIBCMTD:_wctype.obj
 0001:002a96b0       __isleadbyte_l             202aa6b0 f i LIBCMTD:_wctype.obj
 0001:002a9700       __iswalnum_l               202aa700 f i LIBCMTD:_wctype.obj
 0001:002a9720       __iswalpha_l               202aa720 f i LIBCMTD:_wctype.obj
 0001:002a9740       __iswblank_l               202aa740 f i LIBCMTD:_wctype.obj
 0001:002a9770       __iswcntrl_l               202aa770 f i LIBCMTD:_wctype.obj
 0001:002a9790       __iswcsym_l                202aa790 f i LIBCMTD:_wctype.obj
 0001:002a97d0       __iswcsymf_l               202aa7d0 f i LIBCMTD:_wctype.obj
 0001:002a9810       __iswdigit_l               202aa810 f i LIBCMTD:_wctype.obj
 0001:002a9830       __iswgraph_l               202aa830 f i LIBCMTD:_wctype.obj
 0001:002a9850       __iswlower_l               202aa850 f i LIBCMTD:_wctype.obj
 0001:002a9870       __iswprint_l               202aa870 f i LIBCMTD:_wctype.obj
 0001:002a9890       __iswpunct_l               202aa890 f i LIBCMTD:_wctype.obj
 0001:002a98b0       __iswspace_l               202aa8b0 f i LIBCMTD:_wctype.obj
 0001:002a98d0       __iswupper_l               202aa8d0 f i LIBCMTD:_wctype.obj
 0001:002a98f0       __iswxdigit_l              202aa8f0 f i LIBCMTD:_wctype.obj
 0001:002a9910       _isleadbyte                202aa910 f i LIBCMTD:_wctype.obj
 0001:002a9930       _iswalnum                  202aa930 f i LIBCMTD:_wctype.obj
 0001:002a9950       _iswalpha                  202aa950 f i LIBCMTD:_wctype.obj
 0001:002a9970       _iswascii                  202aa970 f i LIBCMTD:_wctype.obj
 0001:002a99a0       _iswblank                  202aa9a0 f i LIBCMTD:_wctype.obj
 0001:002a99d0       _iswcntrl                  202aa9d0 f i LIBCMTD:_wctype.obj
 0001:002a99f0       _iswdigit                  202aa9f0 f i LIBCMTD:_wctype.obj
 0001:002a9a10       _iswgraph                  202aaa10 f i LIBCMTD:_wctype.obj
 0001:002a9a30       _iswlower                  202aaa30 f i LIBCMTD:_wctype.obj
 0001:002a9a50       _iswprint                  202aaa50 f i LIBCMTD:_wctype.obj
 0001:002a9a70       _iswpunct                  202aaa70 f i LIBCMTD:_wctype.obj
 0001:002a9a90       _iswspace                  202aaa90 f i LIBCMTD:_wctype.obj
 0001:002a9ab0       _iswupper                  202aaab0 f i LIBCMTD:_wctype.obj
 0001:002a9ad0       _iswxdigit                 202aaad0 f i LIBCMTD:_wctype.obj
 0001:002a9e20       __MallocaIsSizeInRange     202aae20 f i LIBCMTD:a_map.obj
 0001:002a9e50       __MarkAllocaS              202aae50 f i LIBCMTD:a_map.obj
 0001:002a9e70       ___crtLCMapStringA         202aae70 f   LIBCMTD:a_map.obj
 0001:002a9ed0       __freea                    202aaed0 f i LIBCMTD:a_map.obj
 0001:002a9f40       __sse2_mathfcns_init       202aaf40 f   LIBCMTD:mathfcns.obj
 0001:002a9f60       __set_SSE2_enable          202aaf60 f   LIBCMTD:mathfcns.obj
 0001:002a9fb0       __CIpow_pentium4           202aafb0 f   LIBCMTD:pow_pentium4.obj
 0001:002a9fc9       __pow_pentium4             202aafc9     LIBCMTD:pow_pentium4.obj
 0001:002aab21       __fFEXP                    202abb21     LIBCMTD:87tran.obj
 0001:002aab78       __rtinfpopse               202abb78     LIBCMTD:87tran.obj
 0001:002aab7a       __rtinfnpopse              202abb7a     LIBCMTD:87tran.obj
 0001:002aab8a       __fFLN                     202abb8a     LIBCMTD:87tran.obj
 0001:002aac3f       __rtinfpop                 202abc3f     LIBCMTD:87tran.obj
 0001:002aac41       __rtinfnpop                202abc41     LIBCMTD:87tran.obj
 0001:002aac5e       __ffexpm1                  202abc5e     LIBCMTD:87tran.obj
 0001:002aad10       __d_inttype                202abd10 f   LIBCMTD:powhlp.obj
 0001:002aada0       __powhlp                   202abda0 f   LIBCMTD:powhlp.obj
 0001:002aaf6c       __fFATN2                   202abf6c     LIBCMTD:87triga.obj
 0001:002aafbc       __rtpiby2                  202abfbc     LIBCMTD:87triga.obj
 0001:002ab000       __cintrindisp2             202ac000 f   LIBCMTD:87cdisp.obj
 0001:002ab03e       __cintrindisp1             202ac03e f   LIBCMTD:87cdisp.obj
 0001:002ab07b       __ctrandisp2               202ac07b f   LIBCMTD:87cdisp.obj
 0001:002ab20a       __ctrandisp1               202ac20a f   LIBCMTD:87cdisp.obj
 0001:002ab23d       __fload                    202ac23d f   LIBCMTD:87cdisp.obj
 0001:002ab280       __CIcos_pentium4           202ac280 f   LIBCMTD:cos_pentium4.obj
 0001:002ab298       __cos_pentium4             202ac298     LIBCMTD:cos_pentium4.obj
 0001:002ab430       __CIsin_pentium4           202ac430 f   LIBCMTD:sin_pentium4.obj
 0001:002ab448       __sin_pentium4             202ac448     LIBCMTD:sin_pentium4.obj
 0001:002ab600       __INTRN_LOCALE_CONV        202ac600 f i LIBCMTD:input.obj
 0001:002ab7c0       __input_l                  202ac7c0 f   LIBCMTD:input.obj
 0001:002ad6c0       __input_s_l                202ae6c0 f   LIBCMTD:inputs.obj
 0001:002af8a0       ___libm_error_support      202b08a0 f   LIBCMTD:libm_error.obj
 0001:002b0470       ___libm_setusermatherr     202b1470 f   LIBCMTD:libm_error.obj
 0001:002b04a0       __ceil_default             202b14a0 f   LIBCMTD:ceil.obj
 0001:002b05e0       __floor_default            202b15e0 f   LIBCMTD:floor.obj
 0001:002b0720       __output_p_l               202b1720 f   LIBCMTD:outputp.obj
 0001:002b4520       __validate_param_reuseA    202b5520 f   LIBCMTD:outputp.obj
 0001:002b4810       _get_crtdouble_arg         202b5810 f i LIBCMTD:outputp.obj
 0001:002b49d0       __CIacos_pentium4          202b59d0 f   LIBCMTD:acos_pentium4.obj
 0001:002b49e8       __acos_pentium4            202b59e8     LIBCMTD:acos_pentium4.obj
 0001:002b4f30       _strcpy_s                  202b5f30 f   LIBCMTD:strcpy_s.obj
 0001:002b56c0       __CrtCheckMemory           202b66c0 f   LIBCMTD:dbgheap.obj
 0001:002b5b20       __CrtDoForAllClientObjects 202b6b20 f   LIBCMTD:dbgheap.obj
 0001:002b5c50       __CrtDumpMemoryLeaks       202b6c50 f   LIBCMTD:dbgheap.obj
 0001:002b5cf0       __CrtGetAllocHook          202b6cf0 f   LIBCMTD:dbgheap.obj
 0001:002b5d00       __CrtGetCheckCount         202b6d00 f   LIBCMTD:dbgheap.obj
 0001:002b5d10       __CrtGetDumpClient         202b6d10 f   LIBCMTD:dbgheap.obj
 0001:002b5d20       __CrtIsMemoryBlock         202b6d20 f   LIBCMTD:dbgheap.obj
 0001:002b5e90       __CrtIsValidHeapPointer    202b6e90 f   LIBCMTD:dbgheap.obj
 0001:002b5ed0       __CrtIsValidPointer        202b6ed0 f   LIBCMTD:dbgheap.obj
 0001:002b5f00       __CrtMemCheckpoint         202b6f00 f   LIBCMTD:dbgheap.obj
 0001:002b6130       __CrtMemDifference         202b7130 f   LIBCMTD:dbgheap.obj
 0001:002b6390       __CrtMemDumpAllObjectsSince 202b7390 f   LIBCMTD:dbgheap.obj
 0001:002b63d0       __CrtMemDumpStatistics     202b73d0 f   LIBCMTD:dbgheap.obj
 0001:002b64f0       __CrtReportBlockType       202b74f0 f   LIBCMTD:dbgheap.obj
 0001:002b6520       __CrtSetAllocHook          202b7520 f   LIBCMTD:dbgheap.obj
 0001:002b6540       __CrtSetBreakAlloc         202b7540 f   LIBCMTD:dbgheap.obj
 0001:002b6560       __CrtSetCheckCount         202b7560 f   LIBCMTD:dbgheap.obj
 0001:002b6580       __CrtSetDbgBlockType       202b7580 f   LIBCMTD:dbgheap.obj
 0001:002b6670       __CrtSetDbgFlag            202b7670 f   LIBCMTD:dbgheap.obj
 0001:002b67c0       __CrtSetDebugFillThreshold 202b77c0 f   LIBCMTD:dbgheap.obj
 0001:002b67e0       __CrtSetDumpClient         202b77e0 f   LIBCMTD:dbgheap.obj
 0001:002b6800       __aligned_free             202b7800 f   LIBCMTD:dbgheap.obj
 0001:002b6820       __aligned_free_dbg         202b7820 f   LIBCMTD:dbgheap.obj
 0001:002b68d0       __aligned_malloc           202b78d0 f   LIBCMTD:dbgheap.obj
 0001:002b68f0       __aligned_malloc_dbg       202b78f0 f   LIBCMTD:dbgheap.obj
 0001:002b6910       __aligned_msize            202b7910 f   LIBCMTD:dbgheap.obj
 0001:002b6930       __aligned_msize_dbg        202b7930 f   LIBCMTD:dbgheap.obj
 0001:002b6a50       __aligned_offset_malloc    202b7a50 f   LIBCMTD:dbgheap.obj
 0001:002b6a70       __aligned_offset_malloc_dbg 202b7a70 f   LIBCMTD:dbgheap.obj
 0001:002b6c50       __aligned_offset_realloc   202b7c50 f   LIBCMTD:dbgheap.obj
 0001:002b6c80       __aligned_offset_realloc_dbg 202b7c80 f   LIBCMTD:dbgheap.obj
 0001:002b6f90       __aligned_offset_recalloc  202b7f90 f   LIBCMTD:dbgheap.obj
 0001:002b6fc0       __aligned_offset_recalloc_dbg 202b7fc0 f   LIBCMTD:dbgheap.obj
 0001:002b7080       __aligned_realloc          202b8080 f   LIBCMTD:dbgheap.obj
 0001:002b70a0       __aligned_realloc_dbg      202b80a0 f   LIBCMTD:dbgheap.obj
 0001:002b70d0       __aligned_recalloc         202b80d0 f   LIBCMTD:dbgheap.obj
 0001:002b7100       __aligned_recalloc_dbg     202b8100 f   LIBCMTD:dbgheap.obj
 0001:002b7130       __calloc_dbg               202b8130 f   LIBCMTD:dbgheap.obj
 0001:002b7190       __calloc_dbg_impl          202b8190 f   LIBCMTD:dbgheap.obj
 0001:002b7210       __expand                   202b8210 f   LIBCMTD:dbgheap.obj
 0001:002b7240       __expand_dbg               202b8240 f   LIBCMTD:dbgheap.obj
 0001:002b7370       __free_dbg                 202b8370 f   LIBCMTD:dbgheap.obj
 0001:002b73f0       __free_dbg_nolock          202b83f0 f   LIBCMTD:dbgheap.obj
 0001:002b78f0       __free_nolock              202b88f0 f   LIBCMTD:dbgheap.obj
 0001:002b7910       __heap_alloc               202b8910 f   LIBCMTD:dbgheap.obj
 0001:002b7930       __heap_alloc_dbg           202b8930 f   LIBCMTD:dbgheap.obj
 0001:002b7d50       __malloc_dbg               202b8d50 f   LIBCMTD:dbgheap.obj
 0001:002b7d80       __msize                    202b8d80 f   LIBCMTD:dbgheap.obj
 0001:002b7da0       __msize_dbg                202b8da0 f   LIBCMTD:dbgheap.obj
 0001:002b7fb0       __nh_malloc                202b8fb0 f   LIBCMTD:dbgheap.obj
 0001:002b7fd0       __nh_malloc_dbg            202b8fd0 f   LIBCMTD:dbgheap.obj
 0001:002b8260       __realloc_dbg              202b9260 f   LIBCMTD:dbgheap.obj
 0001:002b8300       __recalloc                 202b9300 f   LIBCMTD:dbgheap.obj
 0001:002b8330       __recalloc_dbg             202b9330 f   LIBCMTD:dbgheap.obj
 0001:002ba390       __W_Getdays                202bb390 f   LIBCMTD:wcsftime.obj
 0001:002ba3a0       __W_Getdays_l              202bb3a0 f   LIBCMTD:wcsftime.obj
 0001:002ba580       __W_Getmonths              202bb580 f   LIBCMTD:wcsftime.obj
 0001:002ba590       __W_Getmonths_l            202bb590 f   LIBCMTD:wcsftime.obj
 0001:002ba770       __W_Gettnames              202bb770 f   LIBCMTD:wcsftime.obj
 0001:002ba780       __W_Gettnames_l            202bb780 f   LIBCMTD:wcsftime.obj
 0001:002bb3e0       __Wcsftime                 202bc3e0 f   LIBCMTD:wcsftime.obj
 0001:002bb410       __Wcsftime_l               202bc410 f   LIBCMTD:wcsftime.obj
 0001:002bb850       __wcsftime_l               202bc850 f   LIBCMTD:wcsftime.obj
 0001:002bb880       _wcsftime                  202bc880 f   LIBCMTD:wcsftime.obj
 0001:002bb8b0       ___daylight                202bc8b0 f   LIBCMTD:timeset.obj
 0001:002bb8c0       ___dstbias                 202bc8c0 f   LIBCMTD:timeset.obj
 0001:002bb8d0       ___timezone                202bc8d0 f   LIBCMTD:timeset.obj
 0001:002bb8e0       ___tzname                  202bc8e0 f   LIBCMTD:timeset.obj
 0001:002bb8f0       __get_daylight             202bc8f0 f   LIBCMTD:timeset.obj
 0001:002bb980       __get_dstbias              202bc980 f   LIBCMTD:timeset.obj
 0001:002bba10       __get_timezone             202bca10 f   LIBCMTD:timeset.obj
 0001:002bbaa0       __get_tzname               202bcaa0 f   LIBCMTD:timeset.obj
 0001:002bbca0       __gmtime64                 202bcca0 f   LIBCMTD:gmtime64.obj
 0001:002bbce0       __gmtime64_s               202bcce0 f   LIBCMTD:gmtime64.obj
 0001:002bc100       ___tzset                   202bd100 f   LIBCMTD:tzset.obj
 0001:002bc190       __isindst                  202bd190 f   LIBCMTD:tzset.obj
 0001:002bc570       __set_daylight             202bd570 f i LIBCMTD:tzset.obj
 0001:002bc580       __set_dstbias              202bd580 f i LIBCMTD:tzset.obj
 0001:002bc590       __set_timezone             202bd590 f i LIBCMTD:tzset.obj
 0001:002bc5a0       __tzset                    202bd5a0 f   LIBCMTD:tzset.obj
 0001:002bce90       ___getgmtimebuf            202bde90 f   LIBCMTD:gmtime.obj
 0001:002bcf10       __gmtime32                 202bdf10 f   LIBCMTD:gmtime.obj
 0001:002bcf50       __gmtime32_s               202bdf50 f   LIBCMTD:gmtime.obj
 0001:002bd230       __alldiv                   202be230 f   LIBCMTD:lldiv.obj
 0001:002bd2e0       __allrem                   202be2e0 f   LIBCMTD:llrem.obj
 0001:002bd3a0       __aulldiv                  202be3a0 f   LIBCMTD:ulldiv.obj
 0001:002bd410       __wremove                  202be410 f   LIBCMTD:wunlink.obj
 0001:002bd460       __wunlink                  202be460 f   LIBCMTD:wunlink.obj
 0001:002bd480       __XcptFilter               202be480 f   LIBCMTD:winxfltr.obj
 0001:002bd680       ___CppXcptFilter           202be680 f   LIBCMTD:winxfltr.obj
 0001:002bd770       __except_handler4          202be770 f   LIBCMTD:chandler4.obj
 0001:002bd930       __CItan_pentium4           202be930 f   LIBCMTD:tan_pentium4.obj
 0001:002bd948       __tan_pentium4             202be948     LIBCMTD:tan_pentium4.obj
 0001:002bdb90       __get_heap_handle          202beb90 f   LIBCMTD:heapinit.obj
 0001:002bdbd0       __heap_init                202bebd0 f   LIBCMTD:heapinit.obj
 0001:002bdc00       __heap_term                202bec00 f   LIBCMTD:heapinit.obj
 0001:002bdc10       __ioinit                   202bec10 f   LIBCMTD:ioinit.obj
 0001:002be0f0       __ioterm                   202bf0f0 f   LIBCMTD:ioinit.obj
 0001:002be190       __set_pgmptr               202bf190 f i LIBCMTD:stdargv.obj
 0001:002be1a0       __setargv                  202bf1a0 f   LIBCMTD:stdargv.obj
 0001:002be670       __setenvp                  202bf670 f   LIBCMTD:stdenvp.obj
 0001:002be810       ___security_init_cookie    202bf810 f   LIBCMTD:gs_support.obj
 0001:002be8f0       _DllMain@12                202bf8f0 f   LIBCMTD:dllmain.obj
 0001:002be900       ___crtGetEnvironmentStringsA 202bf900 f   LIBCMTD:a_env.obj
 0001:002bea00       __RTC_Initialize           202bfa00 f   LIBCMTD:initsect.obj
 0001:002bea30       __RTC_Terminate            202bfa30 f   LIBCMTD:initsect.obj
 0001:002bea60       __matherr                  202bfa60 f   LIBCMTD:matherr.obj
 0001:002bea70       __87except                 202bfa70 f   LIBCMTD:87except.obj
 0001:002bec70       __lock                     202bfc70 f   LIBCMTD:mlock.obj
 0001:002becb0       __lockerr_exit             202bfcb0 f   LIBCMTD:mlock.obj
 0001:002bece0       __mtdeletelocks            202bfce0 f   LIBCMTD:mlock.obj
 0001:002beda0       __mtinitlocknum            202bfda0 f   LIBCMTD:mlock.obj
 0001:002beec0       __mtinitlocks              202bfec0 f   LIBCMTD:mlock.obj
 0001:002bef40       __unlock                   202bff40 f   LIBCMTD:mlock.obj
 0001:002bef60       __fptostr                  202bff60 f   LIBCMTD:_fptostr.obj
 0001:002bf280       ___crt_atoflt_l            202c0280 f   LIBCMTD:atodbl.obj
 0001:002bf390       __atodbl                   202c0390 f   LIBCMTD:atodbl.obj
 0001:002bf3b0       __atodbl_l                 202c03b0 f   LIBCMTD:atodbl.obj
 0001:002bf4b0       __atoflt                   202c04b0 f   LIBCMTD:atodbl.obj
 0001:002bf4d0       __atoflt_l                 202c04d0 f   LIBCMTD:atodbl.obj
 0001:002bf4f0       __atoldbl                  202c04f0 f   LIBCMTD:atodbl.obj
 0001:002bf510       __atoldbl_l                202c0510 f   LIBCMTD:atodbl.obj
 0001:002bf610       ___dtold                   202c0610 f   LIBCMTD:cfout.obj
 0001:002bf770       __fltout2                  202c0770 f   LIBCMTD:cfout.obj
 0001:002bf820       __allshl                   202c0820 f   LIBCMTD:llshl.obj
 0001:002bf840       __aullshr                  202c0840 f   LIBCMTD:ullshr.obj
 0001:002bf860       __get_output_format        202c0860 f   LIBCMTD:outputformat.obj
 0001:002bf870       __set_output_format        202c0870 f   LIBCMTD:outputformat.obj
 0001:002bf910       __controlfp_s              202c0910 f   LIBCMTD:contrlfp.obj
 0001:002bfa00       __fptrap                   202c0a00 f   LIBCMTD:crt0fp.obj
 0001:002bfa10       __CopyMan                  202c0a10 f i LIBCMTD:intrncvt.obj
 0001:002bfa60       __FillZeroMan              202c0a60 f i LIBCMTD:intrncvt.obj
 0001:002bfa90       __IncMan                   202c0a90 f i LIBCMTD:intrncvt.obj
 0001:002bfb40       __IsZeroMan                202c0b40 f i LIBCMTD:intrncvt.obj
 0001:002bfb80       __RoundMan                 202c0b80 f i LIBCMTD:intrncvt.obj
 0001:002bfc60       __ShrMan                   202c0c60 f i LIBCMTD:intrncvt.obj
 0001:002bfd50       __ZeroTail                 202c0d50 f i LIBCMTD:intrncvt.obj
 0001:002bfde0       __ld12cvt                  202c0de0 f i LIBCMTD:intrncvt.obj
 0001:002c00a0       __ld12tod                  202c10a0 f   LIBCMTD:intrncvt.obj
 0001:002c00c0       __ld12tof                  202c10c0 f   LIBCMTD:intrncvt.obj
 0001:002c00e0       __ld12told                 202c10e0 f   LIBCMTD:intrncvt.obj
 0001:002c01e0       ___add_12                  202c11e0 f i LIBCMTD:mantold.obj
 0001:002c0290       ___mtold12                 202c1290 f   LIBCMTD:mantold.obj
 0001:002c03e0       ___free_lconv_mon          202c13e0 f   LIBCMTD:initmon.obj
 0001:002c0590       ___init_monetary           202c1590 f   LIBCMTD:initmon.obj
 0001:002c0ba0       ___free_lconv_num          202c1ba0 f   LIBCMTD:initnum.obj
 0001:002c0c50       ___init_numeric            202c1c50 f   LIBCMTD:initnum.obj
 0001:002c1020       ___free_lc_time            202c2020 f   LIBCMTD:inittime.obj
 0001:002c1950       ___init_time               202c2950 f   LIBCMTD:inittime.obj
 0001:002c2950       _localeconv                202c3950 f   LIBCMTD:lconv.obj
 0001:002c2ae0       ___crtGetStringTypeA       202c3ae0 f   LIBCMTD:a_str.obj
 0001:002c2c30       ?_CallCatchBlock2@@YAPAXPAUEHRegistrationNode@@PBU_s_FuncInfo@@PAXHK@Z 202c3c30 f   LIBCMTD:_trnsctrl_.obj
 0001:002c2ca0       ?_CallMemberFunction0@@YGXPAX0@Z 202c3ca0 f   LIBCMTD:_trnsctrl_.obj
 0001:002c2cb0       ?_CallMemberFunction1@@YGXPAX00@Z 202c3cb0 f   LIBCMTD:_trnsctrl_.obj
 0001:002c2cc0       ?_CallMemberFunction2@@YGXPAX00H@Z 202c3cc0 f   LIBCMTD:_trnsctrl_.obj
 0001:002c2cd0       ?_CallSETranslator@@YAHPAUEHExceptionRecord@@PAUEHRegistrationNode@@PAX2PBU_s_FuncInfo@@H1@Z 202c3cd0 f   LIBCMTD:_trnsctrl_.obj
 0001:002c2dc0       ?_GetRangeOfTrysToCheck@@YAPBU_s_TryBlockMapEntry@@PBU_s_FuncInfo@@HHPAI1@Z 202c3dc0 f   LIBCMTD:_trnsctrl_.obj
 0001:002c2e50       ?_JumpToContinuation@@YGXPAXPAUEHRegistrationNode@@@Z 202c3e50 f   LIBCMTD:_trnsctrl_.obj
 0001:002c2e90       ?_UnwindNestedFrames@@YGXPAUEHRegistrationNode@@PAUEHExceptionRecord@@@Z 202c3e90 f   LIBCMTD:_trnsctrl_.obj
 0001:002c2ef0       __CreateFrameInfo          202c3ef0 f   LIBCMTD:_trnsctrl_.obj
 0001:002c2f20       __FindAndUnlinkFrame       202c3f20 f   LIBCMTD:_trnsctrl_.obj
 0001:002c2f80       __IsExceptionObjectToBeDestroyed 202c3f80 f   LIBCMTD:_trnsctrl_.obj
 0001:002c2fb0       ___CxxFrameHandler         202c3fb0 f   LIBCMTD:_trnsctrl_.obj
 0001:002c2ff0       ___CxxFrameHandler2        202c3ff0 f   LIBCMTD:_trnsctrl_.obj
 0001:002c3030       ___CxxFrameHandler3        202c4030 f   LIBCMTD:_trnsctrl_.obj
 0001:002c3070       ___CxxLongjmpUnwind@4      202c4070 f   LIBCMTD:_trnsctrl_.obj
 0001:002c30a0       ___swprintf_l              202c40a0 f   LIBCMTD:swprintf.obj
 0001:002c30d0       __scwprintf                202c40d0 f   LIBCMTD:swprintf.obj
 0001:002c30f0       __scwprintf_l              202c40f0 f   LIBCMTD:swprintf.obj
 0001:002c3120       __scwprintf_p              202c4120 f   LIBCMTD:swprintf.obj
 0001:002c3140       __scwprintf_p_l            202c4140 f   LIBCMTD:swprintf.obj
 0001:002c3170       __snwprintf_s              202c4170 f   LIBCMTD:swprintf.obj
 0001:002c31a0       __snwprintf_s_l            202c41a0 f   LIBCMTD:swprintf.obj
 0001:002c31d0       __swprintf                 202c41d0 f   LIBCMTD:swprintf.obj
 0001:002c33f0       __swprintf_p               202c43f0 f   LIBCMTD:swprintf.obj
 0001:002c3420       __swprintf_p_l             202c4420 f   LIBCMTD:swprintf.obj
 0001:002c3450       __swprintf_s_l             202c4450 f   LIBCMTD:swprintf.obj
 0001:002c3480       _swprintf_s                202c4480 f   LIBCMTD:swprintf.obj
 0001:002c34b0       __CrtDbgBreak              202c44b0 f   LIBCMTD:dbgrptt.obj
 0001:002c34c0       __CrtGetReportHook         202c44c0 f   LIBCMTD:dbgrptt.obj
 0001:002c34d0       __CrtSetReportFile         202c44d0 f   LIBCMTD:dbgrptt.obj
 0001:002c35d0       __CrtSetReportHook         202c45d0 f   LIBCMTD:dbgrptt.obj
 0001:002c35f0       __CrtSetReportMode         202c45f0 f   LIBCMTD:dbgrptt.obj
 0001:002c3730       __VCrtDbgReportA           202c4730 f   LIBCMTD:dbgrptt.obj
 0001:002c3fa0       __VCrtDbgReportW           202c4fa0 f   LIBCMTD:dbgrptt.obj
 0001:002c4920       ___pctype_func             202c5920 f   LIBCMTD:ctype.obj
 0001:002c4970       ___pwctype_func            202c5970 f   LIBCMTD:ctype.obj
 0001:002c4980       __strtod_l                 202c5980 f   LIBCMTD:strtod.obj
 0001:002c4b90       _strtod                    202c5b90 f   LIBCMTD:strtod.obj
 0001:002c4bb0       __allmul                   202c5bb0 f   LIBCMTD:llmul.obj
 0001:002c4bf0       __aullrem                  202c5bf0 f   LIBCMTD:ullrem.obj
 0001:002c4c70       __FindPESection            202c5c70 f   LIBCMTD:pesect.obj
 0001:002c4cf0       __IsNonwritableInCurrentImage 202c5cf0 f   LIBCMTD:pesect.obj
 0001:002c4e20       __ValidateImageBase        202c5e20 f   LIBCMTD:pesect.obj
 0001:002c4e80       ___onexitinit              202c5e80 f   LIBCMTD:onexit.obj
 0001:002c4ee0       __onexit                   202c5ee0 f   LIBCMTD:onexit.obj
 0001:002c50a0       _atexit                    202c60a0 f   LIBCMTD:onexit.obj
 0001:002c50d0       ?_inconsistency@@YAXXZ     202c60d0 f   LIBCMTD:hooks.obj
 0001:002c5160       ?terminate@@YAXXZ          202c6160 f   LIBCMTD:hooks.obj
 0001:002c51e0       ?unexpected@@YAXXZ         202c61e0 f   LIBCMTD:hooks.obj
 0001:002c5210       __initp_eh_hooks           202c6210 f   LIBCMTD:hooks.obj
 0001:002c5230       ?_query_new_handler@@YAP6AHI@ZXZ 202c6230 f   LIBCMTD:handler.obj
 0001:002c5250       ?_set_new_handler@@YAP6AHI@ZH@Z 202c6250 f   LIBCMTD:handler.obj
 0001:002c5290       ?_set_new_handler@@YAP6AHI@ZP6AHI@Z@Z 202c6290 f   LIBCMTD:handler.obj
 0001:002c52d0       __callnewh                 202c62d0 f   LIBCMTD:handler.obj
 0001:002c5310       __initp_heap_handler       202c6310 f   LIBCMTD:handler.obj
 0001:002c5320       ___getlocaleinfo           202c6320 f   LIBCMTD:inithelp.obj
 0001:002c5620       __initp_misc_purevirt      202c6620 f   LIBCMTD:inithelp.obj
 0001:002c5630       __initp_misc_rand_s        202c6630 f   LIBCMTD:rand_s.obj
 0001:002c5640       _rand_s                    202c6640 f   LIBCMTD:rand_s.obj
 0001:002c58a0       __ftbuf                    202c68a0 f   LIBCMTD:_sftbuf.obj
 0001:002c5930       __stbuf                    202c6930 f   LIBCMTD:_sftbuf.obj
 0001:002c5aa0       __fcloseall                202c6aa0 f   LIBCMTD:closeall.obj
 0001:002c5bd0       __fileno                   202c6bd0 f   LIBCMTD:fileno.obj
 0001:002c5c60       __commit                   202c6c60 f   LIBCMTD:commit.obj
 0001:002c5ea0       __write                    202c6ea0 f   LIBCMTD:write.obj
 0001:002c60f0       __write_nolock             202c70f0 f   LIBCMTD:write.obj
 0001:002c6ea0       __freebuf                  202c7ea0 f   LIBCMTD:_freebuf.obj
 0001:002c6f30       __vfwprintf_l              202c7f30 f   LIBCMTD:vfwprint.obj
 0001:002c6f60       __vfwprintf_p              202c7f60 f   LIBCMTD:vfwprint.obj
 0001:002c6f80       __vfwprintf_p_l            202c7f80 f   LIBCMTD:vfwprint.obj
 0001:002c6fb0       __vfwprintf_s_l            202c7fb0 f   LIBCMTD:vfwprint.obj
 0001:002c6fe0       _vfwprintf                 202c7fe0 f   LIBCMTD:vfwprint.obj
 0001:002c7000       _vfwprintf_helper          202c8000 f   LIBCMTD:vfwprint.obj
 0001:002c71b0       _vfwprintf_s               202c81b0 f   LIBCMTD:vfwprint.obj
 0001:002c71d0       __woutput_l                202c81d0 f   LIBCMTD:woutput.obj
 0001:002c87c0       __woutput_s_l              202c97c0 f   LIBCMTD:woutputs.obj
 0001:002c9f10       __validate_param_reuseW    202caf10 f   LIBCMTD:woutputp.obj
 0001:002ca1f0       __woutput_p_l              202cb1f0 f   LIBCMTD:woutputp.obj
 0001:002cdcf0       _wcsncpy_s                 202cecf0 f   LIBCMTD:wcsncpy_s.obj
 0001:002ce120       __isatty                   202cf120 f   LIBCMTD:isatty.obj
 0001:002ce1e0       __lseeki64                 202cf1e0 f   LIBCMTD:lseeki64.obj
 0001:002ce450       __lseeki64_nolock          202cf450 f   LIBCMTD:lseeki64.obj
 0001:002ce520       __getbuf                   202cf520 f   LIBCMTD:_getbuf.obj
 0001:002ce5f0       __output_s_l               202cf5f0 f   LIBCMTD:outputs.obj
 0001:002cffa0       __get_printf_count_output  202d0fa0 f   LIBCMTD:printf.obj
 0001:002cffd0       __printf_l                 202d0fd0 f   LIBCMTD:printf.obj
 0001:002d0000       __printf_p                 202d1000 f   LIBCMTD:printf.obj
 0001:002d0020       __printf_p_l               202d1020 f   LIBCMTD:printf.obj
 0001:002d0050       __printf_s_l               202d1050 f   LIBCMTD:printf.obj
 0001:002d0080       __set_printf_count_output  202d1080 f   LIBCMTD:printf.obj
 0001:002d00e0       _printf                    202d10e0 f   LIBCMTD:printf.obj
 0001:002d0260       _printf_s                  202d1260 f   LIBCMTD:printf.obj
 0001:002d0280       __wctomb_l                 202d1280 f   LIBCMTD:wctomb.obj
 0001:002d0300       __wctomb_s_l               202d1300 f   LIBCMTD:wctomb.obj
 0001:002d0650       _wctomb                    202d1650 f   LIBCMTD:wctomb.obj
 0001:002d06a0       _wctomb_s                  202d16a0 f   LIBCMTD:wctomb.obj
 0001:002d06c0       ___init_collate            202d16c0 f   LIBCMTD:initcoll.obj
 0001:002d06d0       ____lc_codepage_func       202d16d0 f   LIBCMTD:initctyp.obj
 0001:002d0720       ____lc_collate_cp_func     202d1720 f   LIBCMTD:initctyp.obj
 0001:002d0770       ____lc_locale_name_func    202d1770 f   LIBCMTD:initctyp.obj
 0001:002d07c0       ____mb_cur_max_func        202d17c0 f   LIBCMTD:initctyp.obj
 0001:002d0810       ____mb_cur_max_l_func      202d1810 f   LIBCMTD:initctyp.obj
 0001:002d0840       ___init_ctype              202d1840 f   LIBCMTD:initctyp.obj
 0001:002d1030       _memcmp                    202d2030 f   LIBCMTD:memcmp.obj
 0001:002d1900       _wcscmp                    202d2900 f   LIBCMTD:wcscmp.obj
 0001:002d1960       _wcscspn                   202d2960 f   LIBCMTD:wcscspn.obj
 0001:002d19d0       _wcsnlen                   202d29d0 f   LIBCMTD:wcslen_s.obj
 0001:002d1a10       _wcsncmp                   202d2a10 f   LIBCMTD:wcsncmp.obj
 0001:002d1a70       _wcspbrk                   202d2a70 f   LIBCMTD:wcspbrk.obj
 0001:002d2600       ___get_qualified_locale    202d3600 f   LIBCMTD:getqloc.obj
 0001:002d35d0       ___get_qualified_locale_downlevel 202d45d0 f   LIBCMTD:getqloc_downlevel.obj
 0001:002d38a0       _GetTableIndexFromLcid     202d48a0 f   LIBCMTD:winapinls.obj
 0001:002d3910       _GetTableIndexFromLocaleName 202d4910 f   LIBCMTD:winapinls.obj
 0001:002d39a0       ___crtCompareStringEx      202d49a0 f   LIBCMTD:winapinls.obj
 0001:002d3a10       ___crtDownlevelLCIDToLocaleName 202d4a10 f   LIBCMTD:winapinls.obj
 0001:002d3ae0       ___crtDownlevelLocaleNameToLCID 202d4ae0 f   LIBCMTD:winapinls.obj
 0001:002d3b40       ___crtEnumSystemLocalesEx  202d4b40 f   LIBCMTD:winapinls.obj
 0001:002d3bb0       ___crtGetDateFormatEx      202d4bb0 f   LIBCMTD:winapinls.obj
 0001:002d3c20       ___crtGetLocaleInfoEx      202d4c20 f   LIBCMTD:winapinls.obj
 0001:002d3c80       ___crtGetTimeFormatEx      202d4c80 f   LIBCMTD:winapinls.obj
 0001:002d3cf0       ___crtGetUserDefaultLocaleName 202d4cf0 f   LIBCMTD:winapinls.obj
 0001:002d3d40       ___crtIsValidLocaleName    202d4d40 f   LIBCMTD:winapinls.obj
 0001:002d3d80       ___crtLCMapStringEx        202d4d80 f   LIBCMTD:winapinls.obj
 0001:002d3df0       ___wcsnicmp_ascii          202d4df0 f   LIBCMTD:winapinls.obj
 0001:002d3ec0       __iswctype_l               202d4ec0 f   LIBCMTD:iswctype.obj
 0001:002d3ee0       _is_wctype                 202d4ee0 f   LIBCMTD:iswctype.obj
 0001:002d3f00       _iswctype                  202d4f00 f   LIBCMTD:iswctype.obj
 0001:002d3f60       __frnd                     202d4f60 f   LIBCMTD:frnd.obj
 0001:002d3f80       __chgsign                  202d4f80 f   LIBCMTD:ieeemisc.obj
 0001:002d3fc0       __chgsignf                 202d4fc0 f   LIBCMTD:ieeemisc.obj
 0001:002d4000       __copysign                 202d5000 f   LIBCMTD:ieeemisc.obj
 0001:002d4030       __copysignf                202d5030 f   LIBCMTD:ieeemisc.obj
 0001:002d4070       __finite                   202d5070 f   LIBCMTD:ieeemisc.obj
 0001:002d4090       __fpclass                  202d5090 f   LIBCMTD:ieeemisc.obj
 0001:002d4180       __isnan                    202d5180 f   LIBCMTD:ieeemisc.obj
 0001:002d41c0       __logb                     202d51c0 f   LIBCMTD:ieeemisc.obj
 0001:002d42f0       __nextafter                202d52f0 f   LIBCMTD:ieeemisc.obj
 0001:002d4610       __scalb                    202d5610 f   LIBCMTD:ieeemisc.obj
 0001:002d4630       __filbuf                   202d5630 f   LIBCMTD:_filbuf.obj
 0001:002d48a0       __ungetc_nolock            202d58a0 f   LIBCMTD:ungetc.obj
 0001:002d4ad0       _ungetc                    202d5ad0 f   LIBCMTD:ungetc.obj
 0001:002d4be0       __mbtowc_l                 202d5be0 f   LIBCMTD:mbtowc.obj
 0001:002d4e20       _mbtowc                    202d5e20 f   LIBCMTD:mbtowc.obj
 0001:002d4e40       __free_base                202d5e40 f   LIBCMTD:free.obj
 0001:002d4e90       __realloc_base             202d5e90 f   LIBCMTD:realloc.obj
 0001:002d4f90       __expand_base              202d5f90 f   LIBCMTD:expand.obj
 0001:002d5100       __CrtDbgReport             202d6100 f   LIBCMTD:dbgrpt.obj
 0001:002d5150       __CrtDbgReportV            202d6150 f i LIBCMTD:dbgrpt.obj
 0001:002d5180       __CrtSetReportHook2        202d6180 f   LIBCMTD:dbgrpt.obj
 0001:002d54d0       ___crtMessageWindowA       202d64d0 f   LIBCMTD:dbgrpt.obj
 0001:002d5980       __heapchk                  202d6980 f   LIBCMTD:heapchk.obj
 0001:002d59b0       __heapset                  202d69b0 f   LIBCMTD:heapchk.obj
 0001:002d59c0       __heap_alloc_base          202d69c0 f i LIBCMTD:malloc.obj
 0001:002d5a20       __malloc_base              202d6a20 f   LIBCMTD:malloc.obj
 0001:002d5ab0       __wcsicmp                  202d6ab0 f   LIBCMTD:wcsicmp.obj
 0001:002d5c80       __wcsicmp_l                202d6c80 f   LIBCMTD:wcsicmp.obj
 0001:002d5ef0       __mbstowcs_l               202d6ef0 f   LIBCMTD:mbstowcs.obj
 0001:002d5f10       __mbstowcs_l_helper        202d6f10 f   LIBCMTD:mbstowcs.obj
 0001:002d62a0       __mbstowcs_s_l             202d72a0 f   LIBCMTD:mbstowcs.obj
 0001:002d6660       _mbstowcs                  202d7660 f   LIBCMTD:mbstowcs.obj
 0001:002d66b0       _mbstowcs_s                202d76b0 f   LIBCMTD:mbstowcs.obj
 0001:002d66e0       _strncpy_s                 202d76e0 f   LIBCMTD:strncpy_s.obj
 0001:002d6b00       __dupenv_s                 202d7b00 f   LIBCMTD:getenv.obj
 0001:002d6b20       __dupenv_s_dbg             202d7b20 f   LIBCMTD:getenv.obj
 0001:002d6da0       __getenv_helper_nolock     202d7da0 f   LIBCMTD:getenv.obj
 0001:002d7070       _getenv                    202d8070 f   LIBCMTD:getenv.obj
 0001:002d7200       _getenv_s                  202d8200 f   LIBCMTD:getenv.obj
 0001:002d72a0       __local_unwind4            202d82a0 f   LIBCMTD:exsup4.obj
 0001:002d7376       __seh_longjmp_unwind4@4    202d8376 f   LIBCMTD:exsup4.obj
 0001:002d7392       @_EH4_CallFilterFunc@8     202d8392 f   LIBCMTD:exsup4.obj
 0001:002d73a9       @_EH4_TransferToHandler@8  202d83a9 f   LIBCMTD:exsup4.obj
 0001:002d73c2       @_EH4_GlobalUnwind2@8      202d83c2 f   LIBCMTD:exsup4.obj
 0001:002d73db       @_EH4_LocalUnwind@16       202d83db f   LIBCMTD:exsup4.obj
 0001:002d74c0       __ismbbalnum               202d84c0 f   LIBCMTD:ismbbyte.obj
 0001:002d74e0       __ismbbalnum_l             202d84e0 f   LIBCMTD:ismbbyte.obj
 0001:002d7500       __ismbbalpha               202d8500 f   LIBCMTD:ismbbyte.obj
 0001:002d7520       __ismbbalpha_l             202d8520 f   LIBCMTD:ismbbyte.obj
 0001:002d7540       __ismbbblank               202d8540 f   LIBCMTD:ismbbyte.obj
 0001:002d7570       __ismbbblank_l             202d8570 f   LIBCMTD:ismbbyte.obj
 0001:002d75b0       __ismbbgraph               202d85b0 f   LIBCMTD:ismbbyte.obj
 0001:002d75d0       __ismbbgraph_l             202d85d0 f   LIBCMTD:ismbbyte.obj
 0001:002d75f0       __ismbbkalnum              202d85f0 f   LIBCMTD:ismbbyte.obj
 0001:002d7610       __ismbbkalnum_l            202d8610 f   LIBCMTD:ismbbyte.obj
 0001:002d7630       __ismbbkana                202d8630 f   LIBCMTD:ismbbyte.obj
 0001:002d7650       __ismbbkana_l              202d8650 f   LIBCMTD:ismbbyte.obj
 0001:002d76c0       __ismbbkprint              202d86c0 f   LIBCMTD:ismbbyte.obj
 0001:002d76e0       __ismbbkprint_l            202d86e0 f   LIBCMTD:ismbbyte.obj
 0001:002d7700       __ismbbkpunct              202d8700 f   LIBCMTD:ismbbyte.obj
 0001:002d7720       __ismbbkpunct_l            202d8720 f   LIBCMTD:ismbbyte.obj
 0001:002d7740       __ismbblead                202d8740 f   LIBCMTD:ismbbyte.obj
 0001:002d7760       __ismbblead_l              202d8760 f   LIBCMTD:ismbbyte.obj
 0001:002d7780       __ismbbprint               202d8780 f   LIBCMTD:ismbbyte.obj
 0001:002d77a0       __ismbbprint_l             202d87a0 f   LIBCMTD:ismbbyte.obj
 0001:002d77c0       __ismbbpunct               202d87c0 f   LIBCMTD:ismbbyte.obj
 0001:002d77e0       __ismbbpunct_l             202d87e0 f   LIBCMTD:ismbbyte.obj
 0001:002d7800       __ismbbtrail               202d8800 f   LIBCMTD:ismbbyte.obj
 0001:002d7820       __ismbbtrail_l             202d8820 f   LIBCMTD:ismbbyte.obj
 0001:002d7840       _$I10_OUTPUT               202d8840 f   LIBCMTD:x10fout.obj
 0001:002d8050       ___control87_2             202d9050 f   LIBCMTD:ieee87.obj
 0001:002d84f0       __clearfp                  202d94f0 f   LIBCMTD:ieee87.obj
 0001:002d8530       __control87                202d9530 f i LIBCMTD:ieee87.obj
 0001:002d85e0       __controlfp                202d95e0 f   LIBCMTD:ieee87.obj
 0001:002d8600       __fpreset                  202d9600 f   LIBCMTD:ieee87.obj
 0001:002d87c0       __set_controlfp            202d97c0 f   LIBCMTD:ieee87.obj
 0001:002d8850       __statusfp                 202d9850 f   LIBCMTD:ieee87.obj
 0001:002d8890       __statusfp2                202d9890 f   LIBCMTD:ieee87.obj
 0001:002d88d0       __CallSettingFrame@12      202d98d0 f   LIBCMTD:lowhelpr.obj
 0001:002d88f7       __NLG_Return               202d98f7     LIBCMTD:lowhelpr.obj
 0001:002d8920       ___DestructExceptionObject 202d9920 f   LIBCMTD:frame.obj
 0001:002d8a40       ??0bad_exception@std@@QAE@ABV01@@Z 202d9a40 f i LIBCMTD:frame.obj
 0001:002d8a70       ??0bad_exception@std@@QAE@PBD@Z 202d9a70 f i LIBCMTD:frame.obj
 0001:002d8aa0       ??1bad_exception@std@@UAE@XZ 202d9aa0 f i LIBCMTD:frame.obj
 0001:002d8ac0       ??_Ebad_exception@std@@UAEPAXI@Z 202d9ac0 f i LIBCMTD:frame.obj
 0001:002d8ac0       ??_Gbad_exception@std@@UAEPAXI@Z 202d9ac0 f i LIBCMTD:frame.obj
 0001:002d96b0       ?__uncaught_exception@@YA_NXZ 202da6b0 f   LIBCMTD:frame.obj
 0001:002d96e0       ?_is_exception_typeof@@YAHABVtype_info@@PAU_EXCEPTION_POINTERS@@@Z 202da6e0 f   LIBCMTD:frame.obj
 0001:002d97c0       __SetWinRTOutOfMemoryExceptionCallback 202da7c0 f   LIBCMTD:frame.obj
 0001:002d97d0       ___AdjustPointer           202da7d0 f   LIBCMTD:frame.obj
 0001:002d9820       ___BuildCatchObject        202da820 f   LIBCMTD:frame.obj
 0001:002d9930       ___BuildCatchObjectHelper  202da930 f   LIBCMTD:frame.obj
 0001:002d9c30       ___CxxDetectRethrow        202dac30 f   LIBCMTD:frame.obj
 0001:002d9cb0       ___CxxExceptionFilter      202dacb0 f   LIBCMTD:frame.obj
 0001:002d9eb0       ___CxxQueryExceptionSize   202daeb0 f   LIBCMTD:frame.obj
 0001:002d9ec0       ___CxxRegisterExceptionObject 202daec0 f   LIBCMTD:frame.obj
 0001:002da000       ___CxxUnregisterExceptionObject 202db000 f   LIBCMTD:frame.obj
 0001:002da180       ___FrameUnwindFilter       202db180 f   LIBCMTD:frame.obj
 0001:002da200       ___FrameUnwindToState      202db200 f   LIBCMTD:frame.obj
 0001:002da380       ___GetPlatformExceptionInfo 202db380 f   LIBCMTD:frame.obj
 0001:002da440       ___InternalCxxFrameHandler 202db440 f   LIBCMTD:frame.obj
 0001:002da5b0       ___TypeMatch               202db5b0 f   LIBCMTD:frame.obj
 0001:002da690       ___vswprintf_l             202db690 f   LIBCMTD:vswprint.obj
 0001:002da6b0       __vscwprintf               202db6b0 f   LIBCMTD:vswprint.obj
 0001:002da6d0       __vscwprintf_helper        202db6d0 f   LIBCMTD:vswprint.obj
 0001:002da7c0       __vscwprintf_l             202db7c0 f   LIBCMTD:vswprint.obj
 0001:002da7e0       __vscwprintf_p             202db7e0 f   LIBCMTD:vswprint.obj
 0001:002da800       __vscwprintf_p_l           202db800 f   LIBCMTD:vswprint.obj
 0001:002da820       __vswprintf                202db820 f   LIBCMTD:vswprint.obj
 0001:002da840       __vswprintf_l              202db840 f   LIBCMTD:vswprint.obj
 0001:002daa60       _strcat_s                  202dba60 f   LIBCMTD:strcat_s.obj
 0001:002db290       __i64toa_s                 202dc290 f   LIBCMTD:xtoas.obj
 0001:002db2e0       __itoa_s                   202dc2e0 f   LIBCMTD:xtoas.obj
 0001:002db340       __ltoa_s                   202dc340 f   LIBCMTD:xtoas.obj
 0001:002db380       __ui64toa_s                202dc380 f   LIBCMTD:xtoas.obj
 0001:002db3a0       __ultoa_s                  202dc3a0 f   LIBCMTD:xtoas.obj
 0001:002db800       __wcstombs_l               202dc800 f   LIBCMTD:wcstombs.obj
 0001:002db820       __wcstombs_l_helper        202dc820 f   LIBCMTD:wcstombs.obj
 0001:002dbd30       __wcstombs_s_l             202dcd30 f   LIBCMTD:wcstombs.obj
 0001:002dc090       _wcstombs                  202dd090 f   LIBCMTD:wcstombs.obj
 0001:002dc0b0       _wcstombs_s                202dd0b0 f   LIBCMTD:wcstombs.obj
 0001:002dc210       ___crtGetLocaleInfoA       202dd210 f   LIBCMTD:a_loc.obj
 0001:002dc260       __fclose_nolock            202dd260 f   LIBCMTD:fclose.obj
 0001:002dc370       _fclose                    202dd370 f   LIBCMTD:fclose.obj
 0001:002dc490       ___lock_fhandle            202dd490 f   LIBCMTD:osfinfo.obj
 0001:002dc580       __alloc_osfhnd             202dd580 f   LIBCMTD:osfinfo.obj
 0001:002dc820       __free_osfhnd              202dd820 f   LIBCMTD:osfinfo.obj
 0001:002dc910       __get_osfhandle            202dd910 f   LIBCMTD:osfinfo.obj
 0001:002dca90       __open_osfhandle           202dda90 f   LIBCMTD:osfinfo.obj
 0001:002dccc0       __set_osfhnd               202ddcc0 f   LIBCMTD:osfinfo.obj
 0001:002dcd90       __unlock_fhandle           202ddd90 f   LIBCMTD:osfinfo.obj
 0001:002dcdc0       __putwch                   202dddc0 f   LIBCMTD:putwch.obj
 0001:002dce50       __putwch_nolock            202dde50 f   LIBCMTD:putwch.obj
 0001:002dcea0       __fputwc_nolock            202ddea0 f   LIBCMTD:fputwc.obj
 0001:002dd190       _fputwc                    202de190 f   LIBCMTD:fputwc.obj
 0001:002dd2a0       _putwc                     202de2a0 f   LIBCMTD:fputwc.obj
 0001:002dd680       __wcstol_l                 202de680 f   LIBCMTD:wcstol.obj
 0001:002dd6a0       __wcstoul_l                202de6a0 f   LIBCMTD:wcstol.obj
 0001:002dd6c0       _wcstol                    202de6c0 f   LIBCMTD:wcstol.obj
 0001:002dd6e0       _wcstoul                   202de6e0 f   LIBCMTD:wcstol.obj
 0001:002dd700       __vprintf_l                202de700 f   LIBCMTD:vprintf.obj
 0001:002dd720       __vprintf_p                202de720 f   LIBCMTD:vprintf.obj
 0001:002dd740       __vprintf_p_l              202de740 f   LIBCMTD:vprintf.obj
 0001:002dd760       __vprintf_s_l              202de760 f   LIBCMTD:vprintf.obj
 0001:002dd780       _vprintf                   202de780 f   LIBCMTD:vprintf.obj
 0001:002dd7a0       _vprintf_helper            202de7a0 f   LIBCMTD:vprintf.obj
 0001:002dd8e0       _vprintf_s                 202de8e0 f   LIBCMTD:vprintf.obj
 0001:002dd900       __wtoi                     202de900 f   LIBCMTD:wtox.obj
 0001:002dd920       __wtoi64                   202de920 f   LIBCMTD:wtox.obj
 0001:002dd940       __wtoi64_l                 202de940 f   LIBCMTD:wtox.obj
 0001:002dd960       __wtoi_l                   202de960 f   LIBCMTD:wtox.obj
 0001:002dd980       __wtol                     202de980 f   LIBCMTD:wtox.obj
 0001:002dd9a0       __wtol_l                   202de9a0 f   LIBCMTD:wtox.obj
 0001:002dd9c0       __wtoll                    202de9c0 f   LIBCMTD:wtox.obj
 0001:002dd9e0       __wtoll_l                  202de9e0 f   LIBCMTD:wtox.obj
 0001:002dda00       _wcschr                    202dea00 f   LIBCMTD:wcschr.obj
 0001:002ddb80       __wcsnicmp                 202deb80 f   LIBCMTD:wcsnicmp.obj
 0001:002ddd70       __wcsnicmp_l               202ded70 f   LIBCMTD:wcsnicmp.obj
 0001:002ddfd0       _ldexp                     202defd0 f   LIBCMTD:ldexp.obj
 0001:002de2b0       __read                     202df2b0 f   LIBCMTD:read.obj
 0001:002de580       __read_nolock              202df580 f   LIBCMTD:read.obj
 0001:002df7c0       __towlower_l               202e07c0 f   LIBCMTD:towlower.obj
 0001:002df910       _towlower                  202e0910 f   LIBCMTD:towlower.obj
 0001:002df930       _strnlen                   202e0930 f   LIBCMTD:strlen_s.obj
 0001:002df970       ___wtomb_environ           202e0970 f   LIBCMTD:wtombenv.obj
 0001:002dfa60       __mbsnbicoll               202e0a60 f   LIBCMTD:mbsnbico.obj
 0001:002dfa80       __mbsnbicoll_l             202e0a80 f   LIBCMTD:mbsnbico.obj
 0001:002dfd00       __global_unwind2           202e0d00 f   LIBCMTD:exsup.obj
 0001:002dfd65       __local_unwind2            202e0d65 f   LIBCMTD:exsup.obj
 0001:002dfde9       __abnormal_termination     202e0de9 f   LIBCMTD:exsup.obj
 0001:002dfe0c       __NLG_Notify1              202e0e0c f   LIBCMTD:exsup.obj
 0001:002dfe15       __NLG_Notify               202e0e15 f   LIBCMTD:exsup.obj
 0001:002dfe2c       __NLG_Dispatch2            202e0e2c     LIBCMTD:exsup.obj
 0001:002dfe2c       __NLG_Dispatch             202e0e2c     LIBCMTD:exsup.obj
 0001:002dfe34       __NLG_Call                 202e0e34 f   LIBCMTD:exsup.obj
 0001:002dfe36       __NLG_Return2              202e0e36     LIBCMTD:exsup.obj
 0001:002dfe40       ??3@YAXPAX@Z               202e0e40 f   LIBCMTD:dbgdel.obj
 0001:002dff30       ?_ValidateExecute@@YAHP6GHXZ@Z 202e0f30 f   LIBCMTD:validate.obj
 0001:002dff50       ?_ValidateRead@@YAHPBXI@Z  202e0f50 f   LIBCMTD:validate.obj
 0001:002dff70       ?_ValidateWrite@@YAHPAXI@Z 202e0f70 f   LIBCMTD:validate.obj
 0001:002dff90       ??0type_info@@AAE@ABV0@@Z  202e0f90 f   LIBCMTD:typinfo.obj
 0001:002dffb0       ??1type_info@@UAE@XZ       202e0fb0 f   LIBCMTD:typinfo.obj
 0001:002dffd0       ??4type_info@@AAEAAV0@ABV0@@Z 202e0fd0 f   LIBCMTD:typinfo.obj
 0001:002dffe0       ??8type_info@@QBE_NABV0@@Z 202e0fe0 f   LIBCMTD:typinfo.obj
 0001:002e0020       ??9type_info@@QBE_NABV0@@Z 202e1020 f   LIBCMTD:typinfo.obj
 0001:002e0060       ??_Etype_info@@UAEPAXI@Z   202e1060 f i LIBCMTD:typinfo.obj
 0001:002e0060       ??_Gtype_info@@UAEPAXI@Z   202e1060 f i LIBCMTD:typinfo.obj
 0001:002e0090       ?_name_internal_method@type_info@@QBEPBDPAU__type_info_node@@@Z 202e1090 f   LIBCMTD:typinfo.obj
 0001:002e00b0       ?_type_info_dtor_internal_method@type_info@@QAEXXZ 202e10b0 f   LIBCMTD:typinfo.obj
 0001:002e00d0       ?before@type_info@@QBE_NABV1@@Z 202e10d0 f   LIBCMTD:typinfo.obj
 0001:002e0110       ?name@type_info@@QBEPBDPAU__type_info_node@@@Z 202e1110 f   LIBCMTD:typinfo.obj
 0001:002e0130       ?raw_name@type_info@@QBEPBDXZ 202e1130 f   LIBCMTD:typinfo.obj
 0001:002e0150       ??0__non_rtti_object@std@@QAE@ABV01@@Z 202e1150 f   LIBCMTD:stdexcpt.obj
 0001:002e0180       ??0__non_rtti_object@std@@QAE@PBD@Z 202e1180 f   LIBCMTD:stdexcpt.obj
 0001:002e01b0       ??0bad_cast@std@@QAE@ABV01@@Z 202e11b0 f   LIBCMTD:stdexcpt.obj
 0001:002e01e0       ??0bad_cast@std@@QAE@PBD@Z 202e11e0 f   LIBCMTD:stdexcpt.obj
 0001:002e0210       ??0bad_typeid@std@@QAE@ABV01@@Z 202e1210 f   LIBCMTD:stdexcpt.obj
 0001:002e0240       ??0bad_typeid@std@@QAE@PBD@Z 202e1240 f   LIBCMTD:stdexcpt.obj
 0001:002e0270       ??0exception@std@@QAE@ABQBD@Z 202e1270 f   LIBCMTD:stdexcpt.obj
 0001:002e02b0       ??0exception@std@@QAE@ABQBDH@Z 202e12b0 f   LIBCMTD:stdexcpt.obj
 0001:002e02e0       ??0exception@std@@QAE@ABV01@@Z 202e12e0 f   LIBCMTD:stdexcpt.obj
 0001:002e0320       ??0exception@std@@QAE@XZ   202e1320 f   LIBCMTD:stdexcpt.obj
 0001:002e0350       ??1__non_rtti_object@std@@UAE@XZ 202e1350 f   LIBCMTD:stdexcpt.obj
 0001:002e0370       ??1bad_cast@std@@UAE@XZ    202e1370 f   LIBCMTD:stdexcpt.obj
 0001:002e0390       ??1bad_typeid@std@@UAE@XZ  202e1390 f   LIBCMTD:stdexcpt.obj
 0001:002e03b0       ??1exception@std@@UAE@XZ   202e13b0 f   LIBCMTD:stdexcpt.obj
 0001:002e03d0       ??4exception@std@@QAEAAV01@ABV01@@Z 202e13d0 f   LIBCMTD:stdexcpt.obj
 0001:002e0420       ??_E__non_rtti_object@std@@UAEPAXI@Z 202e1420 f i LIBCMTD:stdexcpt.obj
 0001:002e0420       ??_G__non_rtti_object@std@@UAEPAXI@Z 202e1420 f i LIBCMTD:stdexcpt.obj
 0001:002e0450       ??_Ebad_cast@std@@UAEPAXI@Z 202e1450 f i LIBCMTD:stdexcpt.obj
 0001:002e0450       ??_Gbad_cast@std@@UAEPAXI@Z 202e1450 f i LIBCMTD:stdexcpt.obj
 0001:002e0480       ??_Ebad_typeid@std@@UAEPAXI@Z 202e1480 f i LIBCMTD:stdexcpt.obj
 0001:002e0480       ??_Gbad_typeid@std@@UAEPAXI@Z 202e1480 f i LIBCMTD:stdexcpt.obj
 0001:002e04b0       ??_Gexception@std@@UAEPAXI@Z 202e14b0 f i LIBCMTD:stdexcpt.obj
 0001:002e04b0       ??_Eexception@std@@UAEPAXI@Z 202e14b0 f i LIBCMTD:stdexcpt.obj
 0001:002e04e0       ?_Copy_str@exception@std@@AAEXPBD@Z 202e14e0 f   LIBCMTD:stdexcpt.obj
 0001:002e0540       ?_Tidy@exception@std@@AAEXXZ 202e1540 f   LIBCMTD:stdexcpt.obj
 0001:002e0580       ?what@exception@std@@UBEPBDXZ 202e1580 f   LIBCMTD:stdexcpt.obj
 0001:002e05b0       __CxxThrowException@8      202e15b0 f   LIBCMTD:throw.obj
 0001:002e0650       __close                    202e1650 f   LIBCMTD:close.obj
 0001:002e0890       __close_nolock             202e1890 f   LIBCMTD:close.obj
 0001:002e0970       ___termconout              202e1970 f   LIBCMTD:initcon.obj
 0001:002e09a0       ___initconout              202e19a0 f   LIBCMTD:initcon.obj
 0001:002e09d0       __flswbuf                  202e19d0 f   LIBCMTD:_flswbuf.obj
 0001:002e0cc0       __wchartodigit             202e1cc0 f   LIBCMTD:wchtodig.obj
 0001:002e1530       __wcstof_l                 202e2530 f   LIBCMTD:wcstoq.obj
 0001:002e1640       __wcstoi64                 202e2640 f   LIBCMTD:wcstoq.obj
 0001:002e1690       __wcstoi64_l               202e2690 f   LIBCMTD:wcstoq.obj
 0001:002e16b0       __wcstoimax_l              202e26b0 f   LIBCMTD:wcstoq.obj
 0001:002e16d0       __wcstold_l                202e26d0 f   LIBCMTD:wcstoq.obj
 0001:002e16f0       __wcstoll_l                202e26f0 f   LIBCMTD:wcstoq.obj
 0001:002e1710       __wcstoui64                202e2710 f   LIBCMTD:wcstoq.obj
 0001:002e1760       __wcstoui64_l              202e2760 f   LIBCMTD:wcstoq.obj
 0001:002e1780       __wcstoull_l               202e2780 f   LIBCMTD:wcstoq.obj
 0001:002e17a0       __wcstoumax_l              202e27a0 f   LIBCMTD:wcstoq.obj
 0001:002e17c0       _wcstof                    202e27c0 f   LIBCMTD:wcstoq.obj
 0001:002e17e0       _wcstoimax                 202e27e0 f   LIBCMTD:wcstoq.obj
 0001:002e1800       _wcstold                   202e2800 f   LIBCMTD:wcstoq.obj
 0001:002e1820       _wcstoll                   202e2820 f   LIBCMTD:wcstoq.obj
 0001:002e1840       _wcstoull                  202e2840 f   LIBCMTD:wcstoq.obj
 0001:002e1860       _wcstoumax                 202e2860 f   LIBCMTD:wcstoq.obj
 0001:002e1880       ___crtLCMapStringW         202e2880 f   LIBCMTD:w_map.obj
 0001:002e18c0       ___crtsetenv               202e28c0 f   LIBCMTD:setenv.obj
 0001:002e1f90       __strnicoll                202e2f90 f   LIBCMTD:strnicol.obj
 0001:002e1fd0       __strnicoll_l              202e2fd0 f   LIBCMTD:strnicol.obj
 0001:002e26f0       ___crtCompareStringA       202e36f0 f   LIBCMTD:a_cmp.obj
 0001:002e2750       ?_Name_base@type_info@@CAPBDPBV1@PAU__type_info_node@@@Z 202e3750 f   LIBCMTD:typname.obj
 0001:002e2900       ?_Name_base_internal@type_info@@CAPBDPBV1@PAU__type_info_node@@@Z 202e3900 f   LIBCMTD:typname.obj
 0001:002e2ac0       ?_Type_info_dtor@type_info@@CAXPAV1@@Z 202e3ac0 f   LIBCMTD:typname.obj
 0001:002e2bd0       ?_Type_info_dtor_internal@type_info@@CAXPAV1@@Z 202e3bd0 f   LIBCMTD:typname.obj
 0001:002e2ce0       ___clean_type_info_names_internal 202e3ce0 f   LIBCMTD:typname.obj
 0001:002e2d90       ___unDNameHelper           202e3d90 f   LIBCMTD:typname.obj
 0001:002e2dd0       __wcstod_l                 202e3dd0 f   LIBCMTD:wcstod.obj
 0001:002e2f90       _wcstod                    202e3f90 f   LIBCMTD:wcstod.obj
 0001:002e2fb0       __mbschr                   202e3fb0 f   LIBCMTD:mbschr.obj
 0001:002e2fd0       __mbschr_l                 202e3fd0 f   LIBCMTD:mbschr.obj
 0001:002e3170       __strnicmp                 202e4170 f   LIBCMTD:strnicmp.obj
 0001:002e3170       _strnicmp                  202e4170 f   LIBCMTD:strnicmp.obj
 0001:002e3340       __strnicmp_l               202e4340 f   LIBCMTD:strnicmp.obj
 0001:002e35d0       ??0Block@_HeapManager@@QAE@XZ 202e45d0 f i LIBCMTD:undname.obj
 0001:002e35f0       ??0DName@@QAE@AAPBDD@Z     202e45f0 f   LIBCMTD:undname.obj
 0001:002e38b0       ??0DName@@QAE@ABV0@@Z      202e48b0 f i LIBCMTD:undname.obj
 0001:002e38d0       ??0DName@@QAE@D@Z          202e48d0 f   LIBCMTD:undname.obj
 0001:002e39b0       ??0DName@@QAE@PAV0@@Z      202e49b0 f   LIBCMTD:undname.obj
 0001:002e3af0       ??0DName@@QAE@PBD@Z        202e4af0 f   LIBCMTD:undname.obj
 0001:002e3be0       ??0DName@@QAE@W4DNameStatus@@@Z 202e4be0 f   LIBCMTD:undname.obj
 0001:002e3d00       ??0DName@@QAE@XZ           202e4d00 f i LIBCMTD:undname.obj
 0001:002e3dc0       ??0DName@@QAE@_J@Z         202e4dc0 f   LIBCMTD:undname.obj
 0001:002e3f40       ??0DName@@QAE@_K@Z         202e4f40 f   LIBCMTD:undname.obj
 0001:002e4080       ??0DNameNode@@IAE@XZ       202e5080 f   LIBCMTD:undname.obj
 0001:002e40a0       ??0DNameStatusNode@@AAE@W4DNameStatus@@@Z 202e50a0 f   LIBCMTD:undname.obj
 0001:002e40f0       ??0Replicator@@QAE@XZ      202e50f0 f i LIBCMTD:undname.obj
 0001:002e4110       ??0UnDecorator@@QAE@PADPBDHP6APADJ@ZK@Z 202e5110 f i LIBCMTD:undname.obj
 0001:002e41b0       ??0charNode@@QAE@D@Z       202e51b0 f   LIBCMTD:undname.obj
 0001:002e41e0       ??0pDNameNode@@QAE@PAVDName@@@Z 202e51e0 f   LIBCMTD:undname.obj
 0001:002e4240       ??0pairNode@@QAE@PAVDNameNode@@0@Z 202e5240 f   LIBCMTD:undname.obj
 0001:002e4280       ??0pcharNode@@QAE@PBDH@Z   202e5280 f   LIBCMTD:undname.obj
 0001:002e4320       ??2@YAPAXIAAV_HeapManager@@H@Z 202e5320 f i LIBCMTD:undname.obj
 0001:002e4340       ??4DName@@QAEAAV0@ABV0@@Z  202e5340 f   LIBCMTD:undname.obj
 0001:002e4360       ??4DName@@QAEAAV0@D@Z      202e5360 f i LIBCMTD:undname.obj
 0001:002e4440       ??4DName@@QAEAAV0@PAV0@@Z  202e5440 f   LIBCMTD:undname.obj
 0001:002e4570       ??4DName@@QAEAAV0@PBD@Z    202e5570 f   LIBCMTD:undname.obj
 0001:002e4650       ??4DName@@QAEAAV0@W4DNameStatus@@@Z 202e5650 f   LIBCMTD:undname.obj
 0001:002e4750       ??AReplicator@@QBE?AVDName@@H@Z 202e5750 f   LIBCMTD:undname.obj
 0001:002e47c0       ??BUnDecorator@@QAEPADXZ   202e57c0 f i LIBCMTD:undname.obj
 0001:002e4a70       ??H@YA?AVDName@@DABV0@@Z   202e5a70 f i LIBCMTD:undname.obj
 0001:002e4aa0       ??H@YA?AVDName@@PBDABV0@@Z 202e5aa0 f i LIBCMTD:undname.obj
 0001:002e4ad0       ??H@YA?AVDName@@W4DNameStatus@@ABV0@@Z 202e5ad0 f i LIBCMTD:undname.obj
 0001:002e4b00       ??HDName@@QBE?AV0@ABV0@@Z  202e5b00 f   LIBCMTD:undname.obj
 0001:002e4b40       ??HDName@@QBE?AV0@D@Z      202e5b40 f   LIBCMTD:undname.obj
 0001:002e4b80       ??HDName@@QBE?AV0@PAV0@@Z  202e5b80 f   LIBCMTD:undname.obj
 0001:002e4bc0       ??HDName@@QBE?AV0@PBD@Z    202e5bc0 f   LIBCMTD:undname.obj
 0001:002e4c00       ??HDName@@QBE?AV0@W4DNameStatus@@@Z 202e5c00 f   LIBCMTD:undname.obj
 0001:002e4c40       ??YDName@@QAEAAV0@ABV0@@Z  202e5c40 f   LIBCMTD:undname.obj
 0001:002e4cb0       ??YDName@@QAEAAV0@D@Z      202e5cb0 f   LIBCMTD:undname.obj
 0001:002e4d30       ??YDName@@QAEAAV0@PAV0@@Z  202e5d30 f   LIBCMTD:undname.obj
 0001:002e4de0       ??YDName@@QAEAAV0@PBD@Z    202e5de0 f   LIBCMTD:undname.obj
 0001:002e4e80       ??YDName@@QAEAAV0@W4DNameStatus@@@Z 202e5e80 f   LIBCMTD:undname.obj
 0001:002e4ee0       ??YReplicator@@QAEAAV0@ABVDName@@@Z 202e5ee0 f   LIBCMTD:undname.obj
 0001:002e4f70       ??_5DName@@QAEAAV0@ABV0@@Z 202e5f70 f   LIBCMTD:undname.obj
 0001:002e4fd0       ?Constructor@_HeapManager@@QAEXP6APAXI@ZP6AXPAX@Z@Z 202e5fd0 f i LIBCMTD:undname.obj
 0001:002e5010       ?Destructor@_HeapManager@@QAEXXZ 202e6010 f i LIBCMTD:undname.obj
 0001:002e5060       ?UScore@UnDecorator@@SAPBDW4Tokens@@@Z 202e6060 f   LIBCMTD:undname.obj
 0001:002e5090       ?append@DName@@AAEXPAVDNameNode@@@Z 202e6090 f   LIBCMTD:undname.obj
 0001:002e5120       ?composeDeclaration@UnDecorator@@CA?AVDName@@ABV2@@Z 202e6120 f i LIBCMTD:undname.obj
 0001:002e6da0       ?dbGetString@DName@@QBEPADXZ 202e7da0 f   LIBCMTD:undname.obj
 0001:002e6dc0       ?doAccessSpecifiers@UnDecorator@@SAHXZ 202e7dc0 f i LIBCMTD:undname.obj
 0001:002e6df0       ?doAllocationLanguage@UnDecorator@@SAHXZ 202e7df0 f i LIBCMTD:undname.obj
 0001:002e6e20       ?doAllocationModel@UnDecorator@@SAHXZ 202e7e20 f i LIBCMTD:undname.obj
 0001:002e6e50       ?doEcsu@UnDecorator@@SAHXZ 202e7e50 f i LIBCMTD:undname.obj
 0001:002e6e80       ?doEllipsis@UnDecorator@@SAHXZ 202e7e80 f i LIBCMTD:undname.obj
 0001:002e6eb0       ?doFunctionReturns@UnDecorator@@SAHXZ 202e7eb0 f i LIBCMTD:undname.obj
 0001:002e6ee0       ?doMSKeywords@UnDecorator@@SAHXZ 202e7ee0 f i LIBCMTD:undname.obj
 0001:002e6f10       ?doMemberTypes@UnDecorator@@SAHXZ 202e7f10 f i LIBCMTD:undname.obj
 0001:002e6f40       ?doNameOnly@UnDecorator@@SAHXZ 202e7f40 f i LIBCMTD:undname.obj
 0001:002e6f50       ?doNoIdentCharCheck@UnDecorator@@SAHXZ 202e7f50 f i LIBCMTD:undname.obj
 0001:002e6f60       ?doPchar@DName@@AAEXPBDH@Z 202e7f60 f   LIBCMTD:undname.obj
 0001:002e70a0       ?doPtr64@UnDecorator@@SAHXZ 202e80a0 f i LIBCMTD:undname.obj
 0001:002e70d0       ?doRestrictionSpec@UnDecorator@@SAHXZ 202e80d0 f i LIBCMTD:undname.obj
 0001:002e7100       ?doThisTypes@UnDecorator@@SAHXZ 202e8100 f i LIBCMTD:undname.obj
 0001:002e7130       ?doThrowTypes@UnDecorator@@SAHXZ 202e8130 f i LIBCMTD:undname.obj
 0001:002e7160       ?doTypeOnly@UnDecorator@@SAHXZ 202e8160 f i LIBCMTD:undname.obj
 0001:002e7170       ?doUnderScore@UnDecorator@@SAHXZ 202e8170 f i LIBCMTD:undname.obj
 0001:002e71a0       ?getArgumentList@UnDecorator@@CA?AVDName@@XZ 202e81a0 f   LIBCMTD:undname.obj
 0001:002e72f0       ?getArgumentTypes@UnDecorator@@CA?AVDName@@XZ 202e82f0 f   LIBCMTD:undname.obj
 0001:002e7450       ?getArrayType@UnDecorator@@CA?AVDName@@ABV2@@Z 202e8450 f i LIBCMTD:undname.obj
 0001:002e7690       ?getBasedType@UnDecorator@@CA?AVDName@@XZ 202e8690 f   LIBCMTD:undname.obj
 0001:002e7750       ?getBasicDataType@UnDecorator@@CA?AVDName@@ABV2@@Z 202e8750 f   LIBCMTD:undname.obj
 0001:002e7d10       ?getCallIndex@UnDecorator@@CA?AVDName@@XZ 202e8d10 f i LIBCMTD:undname.obj
 0001:002e7d30       ?getCallingConvention@UnDecorator@@CA?AVDName@@XZ 202e8d30 f   LIBCMTD:undname.obj
 0001:002e7ec0       ?getDataIndirectType@UnDecorator@@CA?AVDName@@ABV2@PBD0H@Z 202e8ec0 f   LIBCMTD:undname.obj
 0001:002e85e0       ?getDataIndirectType@UnDecorator@@CA?AVDName@@XZ 202e95e0 f i LIBCMTD:undname.obj
 0001:002e8620       ?getDataType@UnDecorator@@CA?AVDName@@PAV2@@Z 202e9620 f   LIBCMTD:undname.obj
 0001:002e8740       ?getDecoratedName@UnDecorator@@CA?AVDName@@XZ 202e9740 f   LIBCMTD:undname.obj
 0001:002e8a60       ?getDimension@UnDecorator@@CA?AVDName@@_N@Z 202e9a60 f   LIBCMTD:undname.obj
 0001:002e8d10       ?getDispatchTarget@UnDecorator@@CA?AVDName@@XZ 202e9d10 f   LIBCMTD:undname.obj
 0001:002e8db0       ?getDisplacement@UnDecorator@@CA?AVDName@@XZ 202e9db0 f i LIBCMTD:undname.obj
 0001:002e8dd0       ?getECSUDataType@UnDecorator@@CA?AVDName@@XZ 202e9dd0 f   LIBCMTD:undname.obj
 0001:002e8fa0       ?getECSUName@UnDecorator@@CA?AVDName@@XZ 202e9fa0 f i LIBCMTD:undname.obj
 0001:002e8fc0       ?getEnumType@UnDecorator@@CA?AVDName@@XZ 202e9fc0 f i LIBCMTD:undname.obj
 0001:002e9110       ?getExtendedDataIndirectType@UnDecorator@@CA?AVDName@@AAPBDAA_NH@Z 202ea110 f   LIBCMTD:undname.obj
 0001:002e9360       ?getExternalDataType@UnDecorator@@CA?AVDName@@ABV2@@Z 202ea360 f i LIBCMTD:undname.obj
 0001:002e93f0       ?getFunctionIndirectType@UnDecorator@@CA?AVDName@@ABV2@@Z 202ea3f0 f   LIBCMTD:undname.obj
 0001:002e9860       ?getGuardNumber@UnDecorator@@CA?AVDName@@XZ 202ea860 f i LIBCMTD:undname.obj
 0001:002e9880       ?getLastChar@DName@@QBEDXZ 202ea880 f i LIBCMTD:undname.obj
 0001:002e98b0       ?getLastChar@DNameStatusNode@@UBEDXZ 202ea8b0 f i LIBCMTD:undname.obj
 0001:002e98e0       ?getLastChar@charNode@@UBEDXZ 202ea8e0 f i LIBCMTD:undname.obj
 0001:002e9900       ?getLastChar@pDNameNode@@UBEDXZ 202ea900 f i LIBCMTD:undname.obj
 0001:002e9930       ?getLastChar@pairNode@@UBEDXZ 202ea930 f i LIBCMTD:undname.obj
 0001:002e9980       ?getLastChar@pcharNode@@UBEDXZ 202ea980 f i LIBCMTD:undname.obj
 0001:002e99c0       ?getLexicalFrame@UnDecorator@@CA?AVDName@@XZ 202ea9c0 f i LIBCMTD:undname.obj
 0001:002e9a00       ?getMemory@_HeapManager@@QAEPAXIH@Z 202eaa00 f   LIBCMTD:undname.obj
 0001:002e9b10       ?getNumberOfDimensions@UnDecorator@@CAHXZ 202eab10 f   LIBCMTD:undname.obj
 0001:002e9c10       ?getOperatorName@UnDecorator@@CA?AVDName@@_NPA_N@Z 202eac10 f i LIBCMTD:undname.obj
 0001:002ea5a0       ?getPointerType@UnDecorator@@CA?AVDName@@ABV2@0@Z 202eb5a0 f i LIBCMTD:undname.obj
 0001:002ea5d0       ?getPointerTypeArray@UnDecorator@@CA?AVDName@@ABV2@0@Z 202eb5d0 f i LIBCMTD:undname.obj
 0001:002ea600       ?getPrimaryDataType@UnDecorator@@CA?AVDName@@ABV2@@Z 202eb600 f   LIBCMTD:undname.obj
 0001:002ea9a0       ?getPtrRefDataType@UnDecorator@@CA?AVDName@@ABV2@H@Z 202eb9a0 f i LIBCMTD:undname.obj
 0001:002eaae0       ?getPtrRefType@UnDecorator@@CA?AVDName@@ABV2@0PBD@Z 202ebae0 f   LIBCMTD:undname.obj
 0001:002eac50       ?getReferenceType@UnDecorator@@CA?AVDName@@ABV2@0PBD@Z 202ebc50 f i LIBCMTD:undname.obj
 0001:002eac70       ?getRestrictionSpec@UnDecorator@@CA?AVDName@@XZ 202ebc70 f   LIBCMTD:undname.obj
 0001:002eadc0       ?getReturnType@UnDecorator@@CA?AVDName@@PAV2@@Z 202ebdc0 f   LIBCMTD:undname.obj
 0001:002eae10       ?getScope@UnDecorator@@CA?AVDName@@XZ 202ebe10 f   LIBCMTD:undname.obj
 0001:002eb300       ?getScopedName@UnDecorator@@CA?AVDName@@XZ 202ec300 f   LIBCMTD:undname.obj
 0001:002eb420       ?getSignedDimension@UnDecorator@@CA?AVDName@@XZ 202ec420 f   LIBCMTD:undname.obj
 0001:002eb4a0       ?getStorageConvention@UnDecorator@@CA?AVDName@@XZ 202ec4a0 f i LIBCMTD:undname.obj
 0001:002eb4c0       ?getString@DName@@QBEPADPAD0@Z 202ec4c0 f i LIBCMTD:undname.obj
 0001:002eb500       ?getString@DName@@QBEPADPADH@Z 202ec500 f i LIBCMTD:undname.obj
 0001:002eb590       ?getString@DNameStatusNode@@UBEPADPAD0@Z 202ec590 f i LIBCMTD:undname.obj
 0001:002eb5d0       ?getString@charNode@@UBEPADPAD0@Z 202ec5d0 f i LIBCMTD:undname.obj
 0001:002eb600       ?getString@pDNameNode@@UBEPADPAD0@Z 202ec600 f i LIBCMTD:undname.obj
 0001:002eb640       ?getString@pairNode@@UBEPADPAD0@Z 202ec640 f i LIBCMTD:undname.obj
 0001:002eb6a0       ?getString@pcharNode@@UBEPADPAD0@Z 202ec6a0 f i LIBCMTD:undname.obj
 0001:002eb6d0       ?getStringEncoding@UnDecorator@@CA?AVDName@@PADH@Z 202ec6d0 f   LIBCMTD:undname.obj
 0001:002eb7e0       ?getStringHelper@@YAPADPAD00H@Z 202ec7e0 f i LIBCMTD:undname.obj
 0001:002eb820       ?getSymbolName@UnDecorator@@CA?AVDName@@XZ 202ec820 f i LIBCMTD:undname.obj
 0001:002eb8b0       ?getTemplateArgumentList@UnDecorator@@CA?AVDName@@XZ 202ec8b0 f   LIBCMTD:undname.obj
 0001:002ebbd0       ?getTemplateConstant@UnDecorator@@CA?AVDName@@XZ 202ecbd0 f   LIBCMTD:undname.obj
 0001:002ec0c0       ?getTemplateName@UnDecorator@@CA?AVDName@@_N@Z 202ed0c0 f   LIBCMTD:undname.obj
 0001:002ec290       ?getThisType@UnDecorator@@CA?AVDName@@XZ 202ed290 f i LIBCMTD:undname.obj
 0001:002ec2d0       ?getThrowTypes@UnDecorator@@CA?AVDName@@XZ 202ed2d0 f   LIBCMTD:undname.obj
 0001:002ec380       ?getTypeEncoding@UnDecorator@@CAHXZ 202ed380 f i LIBCMTD:undname.obj
 0001:002ecdc0       ?getVCallThunkType@UnDecorator@@CA?AVDName@@XZ 202eddc0 f i LIBCMTD:undname.obj
 0001:002ece20       ?getVbTableType@UnDecorator@@CA?AVDName@@ABV2@@Z 202ede20 f i LIBCMTD:undname.obj
 0001:002ece40       ?getVdispMapType@UnDecorator@@CA?AVDName@@ABV2@@Z 202ede40 f i LIBCMTD:undname.obj
 0001:002eceb0       ?getVfTableType@UnDecorator@@CA?AVDName@@ABV2@@Z 202edeb0 f i LIBCMTD:undname.obj
 0001:002ed070       ?getZName@UnDecorator@@CA?AVDName@@_N0@Z 202ee070 f   LIBCMTD:undname.obj
 0001:002ed320       ?haveTemplateParameters@UnDecorator@@SAHXZ 202ee320 f i LIBCMTD:undname.obj
 0001:002ed330       ?isArray@DName@@QBEHXZ     202ee330 f i LIBCMTD:undname.obj
 0001:002ed350       ?isComArray@DName@@QBEHXZ  202ee350 f i LIBCMTD:undname.obj
 0001:002ed370       ?isEmpty@DName@@QBEHXZ     202ee370 f i LIBCMTD:undname.obj
 0001:002ed3a0       ?isFull@Replicator@@QBEHXZ 202ee3a0 f i LIBCMTD:undname.obj
 0001:002ed3d0       ?isNoTE@DName@@QBEHXZ      202ee3d0 f i LIBCMTD:undname.obj
 0001:002ed3f0       ?isPinPtr@DName@@QBEHXZ    202ee3f0 f i LIBCMTD:undname.obj
 0001:002ed410       ?isPtrRef@DName@@QBEHXZ    202ee410 f i LIBCMTD:undname.obj
 0001:002ed430       ?isUDC@DName@@QBEHXZ       202ee430 f i LIBCMTD:undname.obj
 0001:002ed470       ?isUDTThunk@DName@@QBEHXZ  202ee470 f i LIBCMTD:undname.obj
 0001:002ed4b0       ?isVCallThunk@DName@@QBEHXZ 202ee4b0 f i LIBCMTD:undname.obj
 0001:002ed4d0       ?isValid@DName@@QBEHXZ     202ee4d0 f i LIBCMTD:undname.obj
 0001:002ed510       ?length@DName@@QBEHXZ      202ee510 f i LIBCMTD:undname.obj
 0001:002ed540       ?length@DNameStatusNode@@UBEHXZ 202ee540 f i LIBCMTD:undname.obj
 0001:002ed560       ?length@charNode@@UBEHXZ   202ee560 f i LIBCMTD:undname.obj
 0001:002ed570       ?length@pDNameNode@@UBEHXZ 202ee570 f i LIBCMTD:undname.obj
 0001:002ed5a0       ?length@pairNode@@UBEHXZ   202ee5a0 f i LIBCMTD:undname.obj
 0001:002ed5f0       ?length@pcharNode@@UBEHXZ  202ee5f0 f i LIBCMTD:undname.obj
 0001:002ed610       ?make@DNameStatusNode@@SAPAV1@W4DNameStatus@@@Z 202ee610 f i LIBCMTD:undname.obj
 0001:002ed6c0       ?setIsArray@DName@@QAEXXZ  202ee6c0 f i LIBCMTD:undname.obj
 0001:002ed6e0       ?setIsComArray@DName@@QAEXXZ 202ee6e0 f i LIBCMTD:undname.obj
 0001:002ed700       ?setIsNoTE@DName@@QAEXXZ   202ee700 f i LIBCMTD:undname.obj
 0001:002ed720       ?setIsPinPtr@DName@@QAEXXZ 202ee720 f i LIBCMTD:undname.obj
 0001:002ed740       ?setIsUDC@DName@@QAEXXZ    202ee740 f i LIBCMTD:undname.obj
 0001:002ed770       ?setIsVCallThunk@DName@@QAEXXZ 202ee770 f i LIBCMTD:undname.obj
 0001:002ed790       ?setPtrRef@DName@@QAEAAV1@XZ 202ee790 f i LIBCMTD:undname.obj
 0001:002ed7b0       ?status@DName@@QBE?AW4DNameStatus@@XZ 202ee7b0 f i LIBCMTD:undname.obj
 0001:002ed8b0       ___unDName                 202ee8b0 f   LIBCMTD:undname.obj
 0001:002ed990       ___unDNameEx               202ee990 f   LIBCMTD:undname.obj
 0001:002eda70       __wfltin2                  202eea70 f   LIBCMTD:wcfin.obj
 0001:002edb50       ___ascii_strnicmp          202eeb50 f   LIBCMTD:_strnicm.obj
 0001:002edbc0       __get_purecall_handler     202eebc0 f   LIBCMTD:purevirt.obj
 0001:002edbe0       __purecall                 202eebe0 f   LIBCMTD:purevirt.obj
 0001:002edc20       __set_purecall_handler     202eec20 f   LIBCMTD:purevirt.obj
 0001:002edc50       ___WSTRINGTOLD_L           202eec50 f   LIBCMTD:wstrgtold.obj
 0001:002edcc0       ___wstrgtold12_l           202eecc0 f   LIBCMTD:wstrgtold.obj
 0001:002ee7b8       _inet_addr@4               202ef7b8 f   ws2_32:WS2_32.dll
 0001:002ee7be       _gethostbyaddr@12          202ef7be f   ws2_32:WS2_32.dll
 0001:002ee7c4       _WSAStartup@8              202ef7c4 f   ws2_32:WS2_32.dll
 0001:002ee7ca       _IsDebuggerPresent@0       202ef7ca f   kernel32:KERNEL32.dll
 0001:002ee7d0       _IsProcessorFeaturePresent@4 202ef7d0 f   kernel32:KERNEL32.dll
 0001:002ee7d6       _GetStdHandle@4            202ef7d6 f   kernel32:KERNEL32.dll
 0001:002ee7dc       _GetFileType@4             202ef7dc f   kernel32:KERNEL32.dll
 0001:002ee7e2       _GetModuleFileNameW@12     202ef7e2 f   kernel32:KERNEL32.dll
 0001:002ee7e8       _GetModuleHandleExW@12     202ef7e8 f   kernel32:KERNEL32.dll
 0001:002ee7ee       _WriteConsoleW@20          202ef7ee f   kernel32:KERNEL32.dll
 0001:002ee7f4       _GetLastError@0            202ef7f4 f   kernel32:KERNEL32.dll
 0001:002ee7fa       _MultiByteToWideChar@24    202ef7fa f   kernel32:KERNEL32.dll
 0001:002ee800       _WideCharToMultiByte@32    202ef800 f   kernel32:KERNEL32.dll
 0001:002ee806       _GetSystemTimeAsFileTime@4 202ef806 f   kernel32:KERNEL32.dll
 0001:002ee80c       _EncodePointer@4           202ef80c f   kernel32:KERNEL32.dll
 0001:002ee812       _DecodePointer@4           202ef812 f   kernel32:KERNEL32.dll
 0001:002ee818       _CreateThread@24           202ef818 f   kernel32:KERNEL32.dll
 0001:002ee81e       _GetCurrentThreadId@0      202ef81e f   kernel32:KERNEL32.dll
 0001:002ee824       _ExitThread@4              202ef824 f   kernel32:KERNEL32.dll
 0001:002ee82a       _LoadLibraryExW@12         202ef82a f   kernel32:KERNEL32.dll
 0001:002ee830       _GetCommandLineA@0         202ef830 f   kernel32:KERNEL32.dll
 0001:002ee836       _RaiseException@16         202ef836 f   kernel32:KERNEL32.dll
 0001:002ee83c       _SetLastError@4            202ef83c f   kernel32:KERNEL32.dll
 0001:002ee842       _UnhandledExceptionFilter@4 202ef842 f   kernel32:KERNEL32.dll
 0001:002ee848       _InitializeCriticalSectionAndSpinCount@8 202ef848 f   kernel32:KERNEL32.dll
 0001:002ee84e       _CreateEventW@16           202ef84e f   kernel32:KERNEL32.dll
 0001:002ee854       _Sleep@4                   202ef854 f   kernel32:KERNEL32.dll
 0001:002ee85a       _TerminateProcess@8        202ef85a f   kernel32:KERNEL32.dll
 0001:002ee860       _TlsAlloc@0                202ef860 f   kernel32:KERNEL32.dll
 0001:002ee866       _TlsGetValue@4             202ef866 f   kernel32:KERNEL32.dll
 0001:002ee86c       _TlsSetValue@8             202ef86c f   kernel32:KERNEL32.dll
 0001:002ee872       _TlsFree@4                 202ef872 f   kernel32:KERNEL32.dll
 0001:002ee878       _GetStartupInfoW@4         202ef878 f   kernel32:KERNEL32.dll
 0001:002ee87e       _GetTickCount@0            202ef87e f   kernel32:KERNEL32.dll
 0001:002ee884       _GetModuleHandleW@4        202ef884 f   kernel32:KERNEL32.dll
 0001:002ee88a       _CreateSemaphoreW@16       202ef88a f   kernel32:KERNEL32.dll
 0001:002ee890       _IsValidCodePage@4         202ef890 f   kernel32:KERNEL32.dll
 0001:002ee896       _GetACP@0                  202ef896 f   kernel32:KERNEL32.dll
 0001:002ee89c       _GetOEMCP@0                202ef89c f   kernel32:KERNEL32.dll
 0001:002ee8a2       _GetCPInfo@8               202ef8a2 f   kernel32:KERNEL32.dll
 0001:002ee8a8       _ExitProcess@4             202ef8a8 f   kernel32:KERNEL32.dll
 0001:002ee8ae       _AreFileApisANSI@0         202ef8ae f   kernel32:KERNEL32.dll
 0001:002ee8b4       _EnterCriticalSection@4    202ef8b4 f   kernel32:KERNEL32.dll
 0001:002ee8ba       _LeaveCriticalSection@4    202ef8ba f   kernel32:KERNEL32.dll
 0001:002ee8c0       _SetConsoleCtrlHandler@8   202ef8c0 f   kernel32:KERNEL32.dll
 0001:002ee8c6       _OutputDebugStringW@4      202ef8c6 f   kernel32:KERNEL32.dll
 0001:002ee8cc       _WaitForSingleObjectEx@12  202ef8cc f   kernel32:KERNEL32.dll
 0001:002ee8d2       _WriteFile@20              202ef8d2 f   kernel32:KERNEL32.dll
 0001:002ee8d8       _HeapValidate@12           202ef8d8 f   kernel32:KERNEL32.dll
 0001:002ee8de       _GetSystemInfo@4           202ef8de f   kernel32:KERNEL32.dll
 0001:002ee8e4       _GetTimeZoneInformation@4  202ef8e4 f   kernel32:KERNEL32.dll
 0001:002ee8ea       _DeleteFileW@4             202ef8ea f   kernel32:KERNEL32.dll
 0001:002ee8f0       _GetProcessHeap@0          202ef8f0 f   kernel32:KERNEL32.dll
 0001:002ee8f6       _DeleteCriticalSection@4   202ef8f6 f   kernel32:KERNEL32.dll
 0001:002ee8fc       _QueryPerformanceCounter@4 202ef8fc f   kernel32:KERNEL32.dll
 0001:002ee902       _GetCurrentProcessId@0     202ef902 f   kernel32:KERNEL32.dll
 0001:002ee908       _GetEnvironmentStringsW@0  202ef908 f   kernel32:KERNEL32.dll
 0001:002ee90e       _FreeEnvironmentStringsW@4 202ef90e f   kernel32:KERNEL32.dll
 0001:002ee914       _FatalAppExitA@8           202ef914 f   kernel32:KERNEL32.dll
 0001:002ee91a       _GetStringTypeW@16         202ef91a f   kernel32:KERNEL32.dll
 0001:002ee920       _RtlUnwind@16              202ef920 f   kernel32:KERNEL32.dll
 0001:002ee926       _OutputDebugStringA@4      202ef926 f   kernel32:KERNEL32.dll
 0001:002ee92c       _FlushFileBuffers@4        202ef92c f   kernel32:KERNEL32.dll
 0001:002ee932       _GetConsoleCP@0            202ef932 f   kernel32:KERNEL32.dll
 0001:002ee938       _GetConsoleMode@8          202ef938 f   kernel32:KERNEL32.dll
 0001:002ee93e       _SetFilePointerEx@20       202ef93e f   kernel32:KERNEL32.dll
 0001:002ee944       _GetLocaleInfoW@16         202ef944 f   kernel32:KERNEL32.dll
 0001:002ee94a       _IsValidLocale@8           202ef94a f   kernel32:KERNEL32.dll
 0001:002ee950       _GetUserDefaultLCID@0      202ef950 f   kernel32:KERNEL32.dll
 0001:002ee956       _EnumSystemLocalesW@8      202ef956 f   kernel32:KERNEL32.dll
 0001:002ee95c       _GetDateFormatW@24         202ef95c f   kernel32:KERNEL32.dll
 0001:002ee962       _GetTimeFormatW@24         202ef962 f   kernel32:KERNEL32.dll
 0001:002ee968       _CompareStringW@24         202ef968 f   kernel32:KERNEL32.dll
 0001:002ee96e       _LCMapStringW@24           202ef96e f   kernel32:KERNEL32.dll
 0001:002ee974       _HeapFree@12               202ef974 f   kernel32:KERNEL32.dll
 0001:002ee97a       _HeapReAlloc@16            202ef97a f   kernel32:KERNEL32.dll
 0001:002ee980       _HeapSize@12               202ef980 f   kernel32:KERNEL32.dll
 0001:002ee986       _HeapQueryInformation@20   202ef986 f   kernel32:KERNEL32.dll
 0001:002ee98c       _HeapAlloc@12              202ef98c f   kernel32:KERNEL32.dll
 0001:002ee992       _SetStdHandle@8            202ef992 f   kernel32:KERNEL32.dll
 0001:002ee998       _ReadFile@20               202ef998 f   kernel32:KERNEL32.dll
 0001:002ee99e       _ReadConsoleW@20           202ef99e f   kernel32:KERNEL32.dll
 0001:002ee9a4       _CreateFileW@28            202ef9a4 f   kernel32:KERNEL32.dll
 0001:002ee9aa       _SetEnvironmentVariableA@8 202ef9aa f   kernel32:KERNEL32.dll
 0001:002eee30       _strupr                    202efe30 f   LIBCMTD:strupr.obj
 0001:002eee30       __strupr                   202efe30 f   LIBCMTD:strupr.obj
 0001:002eef20       __strupr_l                 202eff20 f   LIBCMTD:strupr.obj
 0001:002eef40       __strupr_s                 202eff40 f   LIBCMTD:strupr.obj
 0001:002eef60       __strupr_s_l               202eff60 f   LIBCMTD:strupr.obj
 0001:002eefa0       __memicmp                  202effa0 f   LIBCMTD:memicmp.obj
 0001:002eefa0       _memicmp                   202effa0 f   LIBCMTD:memicmp.obj
 0001:002ef0f0       __memicmp_l                202f00f0 f   LIBCMTD:memicmp.obj
 0001:002ef310       ?_strlwr_s_l_stat@@YAHPADIPAUlocaleinfo_struct@@@Z 202f0310 f   LIBCMTD:strlwr.obj
 0001:002ef7a0       _strlwr                    202f07a0 f   LIBCMTD:strlwr.obj
 0001:002ef7a0       __strlwr                   202f07a0 f   LIBCMTD:strlwr.obj
 0001:002ef890       __strlwr_l                 202f0890 f   LIBCMTD:strlwr.obj
 0001:002ef8b0       __strlwr_s                 202f08b0 f   LIBCMTD:strlwr.obj
 0001:002ef8d0       __strlwr_s_l               202f08d0 f   LIBCMTD:strlwr.obj
 0001:002ef910       ___ascii_stricmp           202f0910 f   LIBCMTD:stricmp.obj
 0001:002ef990       _stricmp                   202f0990 f   LIBCMTD:stricmp.obj
 0001:002ef990       __stricmp                  202f0990 f   LIBCMTD:stricmp.obj
 0001:002efac0       __stricmp_l                202f0ac0 f   LIBCMTD:stricmp.obj
 0001:002efca0       ___ascii_memicmp           202f0ca0 f   LIBCMTD:_memicmp.obj
 0002:00000000       ___xc_a                    2030e000     LIBCMTD:crt0init.obj
 0002:000002f4       ___xc_z                    2030e2f4     LIBCMTD:crt0init.obj
 0002:000003f8       ___xi_a                    2030e3f8     LIBCMTD:crt0init.obj
 0002:00000614       ___xi_z                    2030e614     LIBCMTD:crt0init.obj
 0002:00000718       ___xp_a                    2030e718     LIBCMTD:crt0init.obj
 0002:00000a2c       ___xp_z                    2030ea2c     LIBCMTD:crt0init.obj
 0002:00000b30       ___xt_a                    2030eb30     LIBCMTD:crt0init.obj
 0002:00000c34       ___xt_z                    2030ec34     LIBCMTD:crt0init.obj
 0002:00000d78       ??_C@_05PFKCMBMI@think?$AA@ 2030ed78     ai_main.obj
 0002:00000d80       ??_C@_05IBKAECLI@kneel?$AA@ 2030ed80     ai_main.obj
 0002:00000d88       ??_C@_0M@EGCHPJOK@standatease?$AA@ 2030ed88     ai_main.obj
 0002:00000d98       ??_C@_09LHNHFNEJ@surrender?$AA@ 2030ed98     ai_main.obj
 0002:00000da4       ??_C@_07LAIFPNGE@layback?$AA@ 2030eda4     ai_main.obj
 0002:00000db0       ??_C@_04NAFIGEAM@hurt?$AA@ 2030edb0     ai_main.obj
 0002:00000db8       ??_C@_0M@POIHECOO@handsignal1?$AA@ 2030edb8     ai_main.obj
 0002:00000dc8       ??_C@_0M@NFKKBBCN@handsignal2?$AA@ 2030edc8     ai_main.obj
 0002:00000dd8       ??_C@_0M@MMLBCAGM@handsignal3?$AA@ 2030edd8     ai_main.obj
 0002:00000de8       ??_C@_0M@IDPALGKL@handsignal4?$AA@ 2030ede8     ai_main.obj
 0002:00000df8       ??_C@_08LKHHOIFL@tossleft?$AA@ 2030edf8     ai_main.obj
 0002:00000e04       ??_C@_09OGPMPAPN@tossright?$AA@ 2030ee04     ai_main.obj
 0002:00000e10       ??_C@_05IJPDCELO@talk1?$AA@ 2030ee10     ai_main.obj
 0002:00000e18       ??_C@_05KCNOHHHN@talk2?$AA@ 2030ee18     ai_main.obj
 0002:00000e20       ??_C@_05LLMFEGDM@talk3?$AA@ 2030ee20     ai_main.obj
 0002:00000e28       ??_C@_03ICICOMAL@yes?$AA@  2030ee28     ai_main.obj
 0002:00000e2c       ??_C@_02KAJCLHKP@no?$AA@   2030ee2c     ai_main.obj
 0002:00000e30       ??_C@_08FPFDAFLK@levitate?$AA@ 2030ee30     ai_main.obj
 0002:00000e3c       ??_C@_07HMEMGDHJ@receive?$AA@ 2030ee3c     ai_main.obj
 0002:00000e48       ??_C@_06PEMALFIP@comeon?$AA@ 2030ee48     ai_main.obj
 0002:00000e50       ??_C@_0L@OPINGHIA@alorataunt?$AA@ 2030ee50     ai_main.obj
 0002:00000e60       ??_C@_05HOMCEJKO@cower?$AA@ 2030ee60     ai_main.obj
 0002:00000e68       ??_C@_08IDMJJEF@nolisten?$AA@ 2030ee68     ai_main.obj
 0002:00000e74       ??_C@_0O@HEICDJLP@CTFSTATE_NONE?$AA@ 2030ee74     ai_main.obj
 0002:00000e84       ??_C@_0BC@DLLLCBFN@CTFSTATE_ATTACKER?$AA@ 2030ee84     ai_main.obj
 0002:00000e9c       ??_C@_0BC@KBOEOLB@CTFSTATE_DEFENDER?$AA@ 2030ee9c     ai_main.obj
 0002:00000eb4       ??_C@_0BD@CKFOAELE@CTFSTATE_RETRIEVAL?$AA@ 2030eeb4     ai_main.obj
 0002:00000ecc       ??_C@_0BG@IHHCANKB@CTFSTATE_GUARDCARRIER?$AA@ 2030eecc     ai_main.obj
 0002:00000ee8       ??_C@_0BF@HMJPJPGP@CTFSTATE_GETFLAGHOME?$AA@ 2030eee8     ai_main.obj
 0002:00000f04       ??_C@_0BG@PBPENMCC@CTFSTATE_MAXCTFSTATES?$AA@ 2030ef04     ai_main.obj
 0002:00000f20       ??_C@_0BB@PAHJPIGL@I?8m?5not?5occupied?$AA@ 2030ef20     ai_main.obj
 0002:00000f34       ??_C@_0BP@LPOLBPPI@I?8m?5attacking?5the?5enemy?8s?5base?$AA@ 2030ef34     ai_main.obj
 0002:00000f5c       ??_C@_0BH@EIOOKFAP@I?8m?5defending?5our?5base?$AA@ 2030ef5c     ai_main.obj
 0002:00000f78       ??_C@_0BK@KMGAFOMB@I?8m?5getting?5our?5flag?5back?$AA@ 2030ef78     ai_main.obj
 0002:00000f98       ??_C@_0BP@DPAAPNN@I?8m?5escorting?5our?5flag?5carrier?$AA@ 2030ef98     ai_main.obj
 0002:00000fc0       ??_C@_0BK@IJFHNMND@I?8ve?5got?5the?5enemy?8s?5flag?$AA@ 2030efc0     ai_main.obj
 0002:00000fe0       ??_C@_0DB@JDNFCGCJ@I?8m?5attempting?5to?5complete?5the?5c@ 2030efe0     ai_main.obj
 0002:0000101c       ??_C@_0DJ@KHDOOLND@I?8m?5preventing?5the?5enemy?5from?5co@ 2030f01c     ai_main.obj
 0002:00001060       ??_C@_0CB@LHPHOKPL@I?8m?5following?5my?5squad?5commander@ 2030f060     ai_main.obj
 0002:00001088       ??_C@_0BM@ONBPMKCA@I?8m?5assisting?5my?5commanding?$AA@ 2030f088     ai_main.obj
 0002:000010ac       ??_C@_0CP@FFBNGCID@I?8m?5attempting?5to?5regroup?5and?5fo@ 2030f0ac     ai_main.obj
 0002:000010e4       ??_C@_0O@DMECDMLJ@OrderAccepted?$AA@ 2030f0e4     ai_main.obj
 0002:000010f4       ??_C@_0BP@MGBLPCKB@BotAI?3?5client?5?$CFd?5is?5not?5setup?6?$AA@ 2030f0f4     ai_main.obj
 0002:0000111c       ??_C@_03DGFNDEPM@cp?5?$AA@ 2030f11c     ai_main.obj
 0002:00001120       ??_C@_02EODNHJKB@cs?$AA@   2030f120     ai_main.obj
 0002:00001124       ??_C@_06KBCJDMLG@scores?$AA@ 2030f124     ai_main.obj
 0002:0000112c       ??_C@_0BA@GNMFKLDC@clientLevelShot?$AA@ 2030f12c     ai_main.obj
 0002:00001140       ??_C@_0BJ@HCFAFIBI@Single?5AI?5frametime?3?5?$CFi?6?$AA@ 2030f140     ai_main.obj
 0002:00001160       ??_C@_0CL@MOACODCL@BotAISetupClient?3?5client?5?$CFd?5alre@ 2030f160     ai_main.obj
 0002:00001194       ??_C@_05NOJGJHG@func_?$AA@ 2030f194     ai_main.obj
 0002:0000119c       ??_C@_06GNOJPDEM@Laming?$AA@ 2030f19c     ai_main.obj
 0002:000011a4       ??_C@_0BH@BGHKMCMA@LovedOneKilledLovedOne?$AA@ 2030f1a4     ai_main.obj
 0002:000011c0       ??_C@_06FEDGEOBA@Hatred?$AA@ 2030f1c0     ai_main.obj
 0002:000011c8       ??_C@_0O@MBHBAKKF@BelovedKilled?$AA@ 2030f1c8     ai_main.obj
 0002:000011d8       ??_C@_0BC@FHPIICJP@ResponseGreetings?$AA@ 2030f1d8     ai_main.obj
 0002:000011f0       ??_C@_05FAPHKBON@freed?$AA@ 2030f1f0     ai_main.obj
 0002:000011f8       ??_C@_07DBJBBFPO@detpack?$AA@ 2030f1f8     ai_main.obj
 0002:00001204       ??_C@_04JNANOJIK@Died?$AA@ 2030f204     ai_main.obj
 0002:0000120c       ??_C@_0BG@DBJDPADA@KilledOnPurposeByLove?$AA@ 2030f20c     ai_main.obj
 0002:00001228       ??_C@_0L@GAJMHBNH@RandomChat?$AA@ 2030f228     ai_main.obj
 0002:00001238       ??_C@_0P@JCCFAGGL@KilledHatedOne?$AA@ 2030f238     ai_main.obj
 0002:0000124c       ??_C@_06GJNLCKAP@Killed?$AA@ 2030f24c     ai_main.obj
 0002:00001254       ??_C@_09HOBLHLEJ@Challenge?$AA@ 2030f254     ai_main.obj
 0002:00001260       ??_C@_0BE@PHNAOFIC@info?3?5?$CFs?5hugged?5?$CFs?6?$AA@ 2030f260     ai_main.obj
 0002:00001278       ??_C@_0BD@NDMBOBDK@info?3?5?$CFs?5threw?5?$CFs?6?$AA@ 2030f278     ai_main.obj
 0002:00001290       ??_C@_01HIHLOKLC@1?$AA@    2030f290     ai_main.obj
 0002:00001294       ??_C@_0BA@GMJHGJGG@bot_forcepowers?$AA@ 2030f294     ai_main.obj
 0002:000012a8       ??_C@_01GBGANLPD@0?$AA@    2030f2a8     ai_main.obj
 0002:000012ac       ??_C@_0P@PBNJHIHP@bot_forgimmick?$AA@ 2030f2ac     ai_main.obj
 0002:000012c0       ??_C@_0BM@FPHAOOCP@bot_honorableduelacceptance?$AA@ 2030f2c0     ai_main.obj
 0002:000012e4       ??_C@_0M@CJGGFHPJ@bot_pvstype?$AA@ 2030f2e4     ai_main.obj
 0002:000012f4       ??_C@_0BC@PBFKODBL@bot_getinthecarrr?$AA@ 2030f2f4     ai_main.obj
 0002:0000130c       ??_C@_0M@KBGPNLFA@bot_nogoals?$AA@ 2030f30c     ai_main.obj
 0002:0000131c       ??_C@_0BC@MNOMJKJH@bot_debugmessages?$AA@ 2030f31c     ai_main.obj
 0002:00001334       ??_C@_0BA@KAAKNOND@bot_attachments?$AA@ 2030f334     ai_main.obj
 0002:00001348       ??_C@_08LFGPACAA@bot_camp?$AA@ 2030f348     ai_main.obj
 0002:00001354       ??_C@_0M@IHOHKFMK@bot_wp_info?$AA@ 2030f354     ai_main.obj
 0002:00001364       ??_C@_0M@IPMACEAI@bot_wp_edit?$AA@ 2030f364     ai_main.obj
 0002:00001374       ??_C@_0BD@PKKPPOKJ@bot_wp_clearweight?$AA@ 2030f374     ai_main.obj
 0002:0000138c       ??_C@_0BD@KJBMKFFA@bot_wp_distconnect?$AA@ 2030f38c     ai_main.obj
 0002:000013a4       ??_C@_0BC@KNHEDFAF@bot_wp_visconnect?$AA@ 2030f3a4     ai_main.obj
 0002:000013bc       __real@00000000            2030f3bc     ai_main.obj
 0002:000013c0       __real@3a83126f            2030f3c0     ai_main.obj
 0002:000013c4       __real@3eb33333            2030f3c4     ai_main.obj
 0002:000013c8       __real@3ecccccd            2030f3c8     ai_main.obj
 0002:000013cc       __real@3ee66666            2030f3cc     ai_main.obj
 0002:000013d0       __real@3f000000            2030f3d0     ai_main.obj
 0002:000013d4       __real@3f19999a            2030f3d4     ai_main.obj
 0002:000013d8       __real@3f333333            2030f3d8     ai_main.obj
 0002:000013dc       __real@3f4ccccd            2030f3dc     ai_main.obj
 0002:000013e0       __real@3f50624dd2f1a9fc    2030f3e0     ai_main.obj
 0002:000013f0       __real@3f53a92a30553261    2030f3f0     ai_main.obj
 0002:00001400       __real@3f76800000000000    2030f400     ai_main.obj
 0002:0000140c       __real@3f800000            2030f40c     ai_main.obj
 0002:00001410       __real@3fc3333333333333    2030f410     ai_main.obj
 0002:00001420       __real@3fd0000000000000    2030f420     ai_main.obj
 0002:00001430       __real@3fd3333333333333    2030f430     ai_main.obj
 0002:00001440       __real@3fdccccccccccccd    2030f440     ai_main.obj
 0002:00001450       __real@3fe0000000000000    2030f450     ai_main.obj
 0002:00001460       __real@3feccccccccccccd    2030f460     ai_main.obj
 0002:0000146c       __real@40000000            2030f46c     ai_main.obj
 0002:00001470       __real@40400000            2030f470     ai_main.obj
 0002:00001478       __real@4066800000000000    2030f478     ai_main.obj
 0002:00001488       __real@4076800000000000    2030f488     ai_main.obj
 0002:00001494       __real@40800000            2030f494     ai_main.obj
 0002:00001498       __real@40a00000            2030f498     ai_main.obj
 0002:000014a0       __real@40bf400000000000    2030f4a0     ai_main.obj
 0002:000014ac       __real@40e00000            2030f4ac     ai_main.obj
 0002:000014b0       __real@41000000            2030f4b0     ai_main.obj
 0002:000014b4       __real@41200000            2030f4b4     ai_main.obj
 0002:000014b8       __real@41300000            2030f4b8     ai_main.obj
 0002:000014bc       __real@41400000            2030f4bc     ai_main.obj
 0002:000014c0       __real@41500000            2030f4c0     ai_main.obj
 0002:000014c4       __real@41600000            2030f4c4     ai_main.obj
 0002:000014c8       __real@41700000            2030f4c8     ai_main.obj
 0002:000014cc       __real@41800000            2030f4cc     ai_main.obj
 0002:000014d0       __real@41880000            2030f4d0     ai_main.obj
 0002:000014d4       __real@41900000            2030f4d4     ai_main.obj
 0002:000014d8       __real@41a00000            2030f4d8     ai_main.obj
 0002:000014dc       __real@41f00000            2030f4dc     ai_main.obj
 0002:000014e0       __real@41f80000            2030f4e0     ai_main.obj
 0002:000014e4       __real@42000000            2030f4e4     ai_main.obj
 0002:000014e8       __real@42200000            2030f4e8     ai_main.obj
 0002:000014ec       __real@42240000            2030f4ec     ai_main.obj
 0002:000014f0       __real@42340000            2030f4f0     ai_main.obj
 0002:000014f4       __real@42480000            2030f4f4     ai_main.obj
 0002:000014f8       __real@42580000            2030f4f8     ai_main.obj
 0002:000014fc       __real@42600000            2030f4fc     ai_main.obj
 0002:00001500       __real@42700000            2030f500     ai_main.obj
 0002:00001504       __real@42800000            2030f504     ai_main.obj
 0002:00001508       __real@428c0000            2030f508     ai_main.obj
 0002:0000150c       __real@42960000            2030f50c     ai_main.obj
 0002:00001510       __real@42a00000            2030f510     ai_main.obj
 0002:00001514       __real@42a40000            2030f514     ai_main.obj
 0002:00001518       __real@42a80000            2030f518     ai_main.obj
 0002:0000151c       __real@42aa0000            2030f51c     ai_main.obj
 0002:00001520       __real@42b40000            2030f520     ai_main.obj
 0002:00001524       __real@42c80000            2030f524     ai_main.obj
 0002:00001528       __real@42ee0000            2030f528     ai_main.obj
 0002:0000152c       __real@42fe0000            2030f52c     ai_main.obj
 0002:00001530       __real@43000000            2030f530     ai_main.obj
 0002:00001534       __real@43160000            2030f534     ai_main.obj
 0002:00001538       __real@43200000            2030f538     ai_main.obj
 0002:0000153c       __real@43340000            2030f53c     ai_main.obj
 0002:00001540       __real@43400000            2030f540     ai_main.obj
 0002:00001544       __real@43480000            2030f544     ai_main.obj
 0002:00001548       __real@437a0000            2030f548     ai_main.obj
 0002:0000154c       __real@43800000            2030f54c     ai_main.obj
 0002:00001550       __real@43960000            2030f550     ai_main.obj
 0002:00001554       __real@43af0000            2030f554     ai_main.obj
 0002:00001558       __real@43b40000            2030f558     ai_main.obj
 0002:0000155c       __real@43c80000            2030f55c     ai_main.obj
 0002:00001560       __real@44000000            2030f560     ai_main.obj
 0002:00001564       __real@44160000            2030f564     ai_main.obj
 0002:00001568       __real@442f0000            2030f568     ai_main.obj
 0002:0000156c       __real@44480000            2030f56c     ai_main.obj
 0002:00001570       __real@447a0000            2030f570     ai_main.obj
 0002:00001574       __real@44800000            2030f574     ai_main.obj
 0002:00001578       __real@44bb8000            2030f578     ai_main.obj
 0002:0000157c       __real@44fa0000            2030f57c     ai_main.obj
 0002:00001580       __real@45000000            2030f580     ai_main.obj
 0002:00001584       __real@457a0000            2030f584     ai_main.obj
 0002:00001588       __real@45800000            2030f588     ai_main.obj
 0002:0000158c       __real@459c4000            2030f58c     ai_main.obj
 0002:00001590       __real@45dac000            2030f590     ai_main.obj
 0002:00001594       __real@47800000            2030f594     ai_main.obj
 0002:00001598       __real@497423f0            2030f598     ai_main.obj
 0002:0000159c       __real@4e6e6b28            2030f59c     ai_main.obj
 0002:000015a0       __real@bf800000            2030f5a0     ai_main.obj
 0002:000015a4       __real@c0400000            2030f5a4     ai_main.obj
 0002:000015a8       __real@c066800000000000    2030f5a8     ai_main.obj
 0002:000015b4       __real@c0a00000            2030f5b4     ai_main.obj
 0002:000015b8       __real@c0e00000            2030f5b8     ai_main.obj
 0002:000015bc       __real@c1000000            2030f5bc     ai_main.obj
 0002:000015c0       __real@c1700000            2030f5c0     ai_main.obj
 0002:000015c4       __real@c1900000            2030f5c4     ai_main.obj
 0002:000015c8       __real@c1b00000            2030f5c8     ai_main.obj
 0002:000015cc       __real@c1b80000            2030f5cc     ai_main.obj
 0002:000015d0       __real@c1c00000            2030f5d0     ai_main.obj
 0002:000015d4       __real@c2200000            2030f5d4     ai_main.obj
 0002:000015d8       __real@c2340000            2030f5d8     ai_main.obj
 0002:000015dc       __real@c2700000            2030f5dc     ai_main.obj
 0002:000015e0       __real@c3160000            2030f5e0     ai_main.obj
 0002:000015e4       __real@c3340000            2030f5e4     ai_main.obj
 0002:000015f0       __xmm@80000000800000008000000080000000 2030f5f0     ai_main.obj
 0002:00001604       ??_C@_05PCEEFJBB@none?$AA?$AA@ 2030f604     ai_wpnav.obj
 0002:0000160c       ??_C@_08HCCPDHOE@unknown?$AA?$AA@ 2030f60c     ai_wpnav.obj
 0002:00001618       ??_C@_0DJ@GNLLPBIP@?$FO3Waypoint?5?$CFi?6Flags?5?9?5?$CFi?5?$CI?$CFs?$CJ?5?$CIw@ 2030f618     ai_wpnav.obj
 0002:0000165c       ??_C@_0DI@MKIILHHG@?$FO1FATAL?5ERROR?3?5Could?5not?5allocat@ 2030f65c     ai_wpnav.obj
 0002:000016a0       ??_C@_0CE@PGKIIABD@?$FO3Warning?3?5Waypoint?5limit?5hit?5?$CI?$CF@ 2030f6a0     ai_wpnav.obj
 0002:000016cc       ??_C@_0DC@KPGPDBHG@?$FO1ERROR?3?5Could?5not?5allocated?5mem@ 2030f6cc     ai_wpnav.obj
 0002:00001708       ??_C@_0CF@NKJDHHPL@?$FO3Waypoint?5number?5?$CFi?5does?5not?5ex@ 2030f708     ai_wpnav.obj
 0002:00001734       ??_C@_0DE@ODOAIDAB@?$FO3Waypoint?5index?5?$CFi?5should?5exist@ 2030f734     ai_wpnav.obj
 0002:00001774       ??_C@_0CN@OAEDPBFH@?$FO3WPFlagsModify?3?5Waypoint?5?$CFi?5doe@ 2030f774     ai_wpnav.obj
 0002:000017ac       ??_C@_0DC@CGOLCOPN@?$FO3Point?5?$CFi?5is?5not?5connected?5to?5?$CF@ 2030f7ac     ai_wpnav.obj
 0002:000017e8       ??_C@_0DL@OFFLGMHM@?$FO1Could?5not?5link?5?$CFi?5to?5?$CFi?0?5unrea@ 2030f7e8     ai_wpnav.obj
 0002:00001830       ??_C@_0HP@CMIAOCMB@?$FO3Since?5points?5cannot?5be?5connect@ 2030f830     ai_wpnav.obj
 0002:000018c8       ??_C@_0DA@CFKANIBG@?$FO1Could?5not?5link?5?$CFi?5to?5?$CFi?0?5waypo@ 2030f8c8     ai_wpnav.obj
 0002:00001904       ??_C@_0CB@IOBANBFK@?$FO3Finished?5connecting?5?$CFi?5to?5?$CFi?4?6@ 2030f904     ai_wpnav.obj
 0002:0000192c       ??_C@_0BF@JOOKCKMH@info_siege_objective?$AA@ 2030f92c     ai_wpnav.obj
 0002:00001948       ??_C@_0M@CJHMIAK@item_seeker?$AA@ 2030f948     ai_wpnav.obj
 0002:00001958       ??_C@_0M@IIGPMPLO@item_shield?$AA@ 2030f958     ai_wpnav.obj
 0002:00001968       ??_C@_0M@NLNOFNHL@item_medpac?$AA@ 2030f968     ai_wpnav.obj
 0002:00001978       ??_C@_0BA@HKIJMOIG@item_sentry_gun?$AA@ 2030f978     ai_wpnav.obj
 0002:0000198c       ??_C@_0BK@JFKBFAGB@item_force_enlighten_dark?$AA@ 2030f98c     ai_wpnav.obj
 0002:000019ac       ??_C@_0BL@MINBJMDE@item_force_enlighten_light?$AA@ 2030f9ac     ai_wpnav.obj
 0002:000019cc       ??_C@_0BA@HALIIJIE@item_force_boon?$AA@ 2030f9cc     ai_wpnav.obj
 0002:000019e0       ??_C@_0P@BMGIHJKN@item_ysalimari?$AA@ 2030f9e0     ai_wpnav.obj
 0002:000019f4       ??_C@_07MDJDKHIJ@weapon_?$AA@ 2030f9f4     ai_wpnav.obj
 0002:00001a00       ??_C@_0BC@MDDJNKOI@botroutes?1?$CFs?4wnt?$AA?$AA@ 2030fa00     ai_wpnav.obj
 0002:00001a18       ??_C@_0CD@PDNHMLAP@?$FO3Bot?5route?5data?5not?5found?5for?5?$CF@ 2030fa18     ai_wpnav.obj
 0002:00001a44       ??_C@_0CF@HBIFNAFM@?$FO1Route?5file?5exceeds?5maximum?5len@ 2030fa44     ai_wpnav.obj
 0002:00001a70       ??_C@_0BB@JNMMCIHG@team_CTF_redflag?$AA@ 2030fa70     ai_wpnav.obj
 0002:00001a84       ??_C@_0BC@NLKCOFAB@team_CTF_blueflag?$AA@ 2030fa84     ai_wpnav.obj
 0002:00001a9c       ??_C@_0DB@MGNCDHIL@?$FO1ERROR?3?5Could?5not?5open?5file?5to?5@ 2030fa9c     ai_wpnav.obj
 0002:00001ad8       ??_C@_0BH@CAPEAMJ@?$CFi?5?$CFi?5?$CFf?5?$CI?$CFf?5?$CFf?5?$CFf?$CJ?5?$HL?5?$AA@ 2030fad8     ai_wpnav.obj
 0002:00001af4       ??_C@_08DNAOJCND@?$CFs?$CFi?9?$CFi?5?$AA@ 2030faf4     ai_wpnav.obj
 0002:00001b00       ??_C@_05OCEANLMH@?$CFs?$CFi?5?$AA@ 2030fb00     ai_wpnav.obj
 0002:00001b08       ??_C@_07KBOPLHBN@?$CFs?$HN?5?$CFf?6?$AA@ 2030fb08     ai_wpnav.obj
 0002:00001b18       ??_C@_0HE@HFDPPPGP@Path?5data?5has?5been?5saved?5and?5upd@ 2030fb18     ai_wpnav.obj
 0002:00001ba4       ??_C@_07JBFDOFDL@terrain?$AA@ 2030fba4     ai_wpnav.obj
 0002:00001bb0       ??_C@_0BN@GMKAPJAJ@Error?3?5RMG?5with?5no?5terrain?$CB?6?$AA@ 2030fbb0     ai_wpnav.obj
 0002:00001bd4       ??_C@_0CA@CHDIAGJI@Total?5routing?5time?5taken?3?5?$CFims?6?$AA@ 2030fbd4     ai_wpnav.obj
 0002:00001bfc       ??_C@_0BH@IGAFCIL@info_player_deathmatch?$AA@ 2030fbfc     ai_wpnav.obj
 0002:00001c18       ??_C@_0O@HPPLPOKI@bot_normgpath?$AA@ 2030fc18     ai_wpnav.obj
 0002:00001c28       ??_C@_0BC@IHPKIKNE@info_player_start?$AA@ 2030fc28     ai_wpnav.obj
 0002:00001c40       ??_C@_0P@IAKMCDJK@bot_wp_cmdlist?$AA@ 2030fc40     ai_wpnav.obj
 0002:00001c58       ??_C@_0HP@MKMJGOIM@?$FO3bot_wp_add?$FO7?5?9?5Add?5a?5waypoint?5@ 2030fc58     ai_wpnav.obj
 0002:00001cf0       ??_C@_0GG@DAAKFOPK@?$FO3bot_wp_rem?$FO7?5?9?5Remove?5a?5waypoi@ 2030fcf0     ai_wpnav.obj
 0002:00001d70       ??_C@_0GF@OPMDMEHI@?$FO3bot_wp_addflagged?$FO7?5?9?5Same?5as?5@ 2030fd70     ai_wpnav.obj
 0002:00001df0       ??_C@_0GF@CEHAMODA@?$FO3bot_wp_switchflags?$FO7?5?9?5Switche@ 2030fdf0     ai_wpnav.obj
 0002:00001e70       ??_C@_0EK@FLEGKNCI@?$FO3bot_wp_tele?$FO7?5?9?5Teleport?5yours@ 2030fe70     ai_wpnav.obj
 0002:00001ec8       ??_C@_0GF@HAHJGLLO@?$FO3bot_wp_killoneways?$FO7?5?9?5Removes@ 2030fec8     ai_wpnav.obj
 0002:00001f48       ??_C@_0EF@KLGMOFOG@?$FO3bot_wp_save?$FO7?5?9?5Saves?5all?5wayp@ 2030ff48     ai_wpnav.obj
 0002:00001fa0       ??_C@_0GA@EKCKPBCN@bot_wp_rem?5?9?5Remove?5a?5waypoint?5?$CI@ 2030ffa0     ai_wpnav.obj
 0002:00002018       ??_C@_0FP@HEMNKDFJ@bot_wp_addflagged?5?9?5Same?5as?5wp_a@ 20310018     ai_wpnav.obj
 0002:00002090       ??_C@_0FP@EEOBNAJD@bot_wp_switchflags?5?9?5Switches?5fl@ 20310090     ai_wpnav.obj
 0002:00002108       ??_C@_0EF@FMOABEEA@bot_wp_tele?5?9?5Teleport?5yourself?5@ 20310108     ai_wpnav.obj
 0002:00002160       ??_C@_0FP@LEFGIMPD@bot_wp_killoneways?5?9?5Removes?5one@ 20310160     ai_wpnav.obj
 0002:000021d8       ??_C@_0EA@MMCKJBJM@bot_wp_save?5?9?5Saves?5all?5waypoint@ 203101d8     ai_wpnav.obj
 0002:00002224       ??_C@_0L@MIBOKLOD@bot_wp_add?$AA@ 20310224     ai_wpnav.obj
 0002:00002234       ??_C@_0L@FKLCICOM@bot_wp_rem?$AA@ 20310234     ai_wpnav.obj
 0002:00002244       ??_C@_0M@DPOOBMKE@bot_wp_tele?$AA@ 20310244     ai_wpnav.obj
 0002:00002254       ??_C@_0CP@IAMALPFE@?$FO3You?5didn?8t?5specify?5an?5index?4?5A@ 20310254     ai_wpnav.obj
 0002:0000228c       ??_C@_0BB@GABGAACE@bot_wp_spawntele?$AA@ 2031028c     ai_wpnav.obj
 0002:000022a0       ??_C@_0BC@HGOOCCHA@bot_wp_addflagged?$AA@ 203102a0     ai_wpnav.obj
 0002:000022b8       ??_C@_0BGK@KOKBEDBG@?$FO3Flag?5string?5needed?5for?5bot_wp_@ 203102b8     ai_wpnav.obj
 0002:0000246c       ??_C@_0BD@IJIOBJAA@bot_wp_switchflags?$AA@ 2031046c     ai_wpnav.obj
 0002:00002488       ??_C@_0LK@DHKCNLAF@?$FO3Flag?5string?5needed?5for?5bot_wp_@ 20310488     ai_wpnav.obj
 0002:00002568       ??_C@_0GE@MFIBKMLO@?$FO3Waypoint?5number?5?$CIto?5modify?$CJ?5ne@ 20310568     ai_wpnav.obj
 0002:000025e0       ??_C@_0BD@DNEIDMNA@bot_wp_killoneways?$AA@ 203105e0     ai_wpnav.obj
 0002:000025f8       ??_C@_0M@BDBNHBEF@bot_wp_save?$AA@ 203105f8     ai_wpnav.obj
 0002:00002608       __real@43fa0000            20310608     ai_wpnav.obj
 0002:0000260c       __real@443b8000            2031060c     ai_wpnav.obj
 0002:00002610       __real@44a00000            20310610     ai_wpnav.obj
 0002:00002614       __real@453b8000            20310614     ai_wpnav.obj
 0002:00002618       __real@461c3c00            20310618     ai_wpnav.obj
 0002:0000261c       __real@47c34f80            2031061c     ai_wpnav.obj
 0002:00002620       ??_C@_1PM@LPAMHJJB@?$AAf?$AA?3?$AA?2?$AAj?$AAe?$AAd?$AAi?$AA?5?$AAa?$AAc?$AAa?$AAd?$AAe?$AAm?$AAy?$AA?2?$AAs?$AAt?$AAa?$AAr?$AA?5?$AAw?$AAa?$AAr?$AAs?$AA?5?$AAj?$AAe?$AAd?$AAi?$AA?5?$AAk@ 20310620     AnimalNPC.obj
 0002:00002750       ??_C@_13COJANIEC@?$AA0?$AA?$AA@ 20310750     AnimalNPC.obj
 0002:00002754       __real@3e4ccccd            20310754     AnimalNPC.obj
 0002:00002758       __real@3e8ccccd            20310758     AnimalNPC.obj
 0002:0000275c       __real@bc23d70a            2031075c     AnimalNPC.obj
 0002:00002760       ??_C@_02CNCKMBBD@AL?$AA@   20310760     asmserv.obj
 0002:00002764       ??_C@_02COKOBFHN@CL?$AA@   20310764     asmserv.obj
 0002:00002768       ??_C@_02CLOBADPI@DL?$AA@   20310768     asmserv.obj
 0002:0000276c       ??_C@_02CPGMHPEK@BL?$AA@   2031076c     asmserv.obj
 0002:00002770       ??_C@_02EJEGAEBH@AH?$AA@   20310770     asmserv.obj
 0002:00002774       ??_C@_02EKMCNAHJ@CH?$AA@   20310774     asmserv.obj
 0002:00002778       ??_C@_02EPINMGPM@DH?$AA@   20310778     asmserv.obj
 0002:0000277c       ??_C@_02ELAALKEO@BH?$AA@   2031077c     asmserv.obj
 0002:00002780       ??_C@_02HIBJGAMI@R8?$AA@   20310780     asmserv.obj
 0002:00002784       ??_C@_02DIEBGEG@AX?$AA@    20310784     asmserv.obj
 0002:00002788       ??_C@_02MCCI@CX?$AA@       20310788     asmserv.obj
 0002:0000278c       ??_C@_02FEPNEKN@DX?$AA@    2031078c     asmserv.obj
 0002:00002790       ??_C@_02BMCKIBP@BX?$AA@    20310790     asmserv.obj
 0002:00002794       ??_C@_02NEPPOLFA@SP?$AA@   20310794     asmserv.obj
 0002:00002798       ??_C@_02MJBLCCBH@BP?$AA@   20310798     asmserv.obj
 0002:0000279c       ??_C@_02EPPPECEI@SI?$AA@   2031079c     asmserv.obj
 0002:000027a0       ??_C@_02FGJGPHLN@DI?$AA@   203107a0     asmserv.obj
 0002:000027a4       ??_C@_03BDAKPJBI@R16?$AA@  203107a4     asmserv.obj
 0002:000027a8       ??_C@_03HBELLIEH@EAX?$AA@  203107a8     asmserv.obj
 0002:000027ac       ??_C@_03HCMPGMCJ@ECX?$AA@  203107ac     asmserv.obj
 0002:000027b0       ??_C@_03HHIAHKKM@EDX?$AA@  203107b0     asmserv.obj
 0002:000027b4       ??_C@_03HDANAGBO@EBX?$AA@  203107b4     asmserv.obj
 0002:000027b8       ??_C@_03KGDAEFFB@ESP?$AA@  203107b8     asmserv.obj
 0002:000027bc       ??_C@_03LLNEIMBG@EBP?$AA@  203107bc     asmserv.obj
 0002:000027c0       ??_C@_03DNDAOMEJ@ESI?$AA@  203107c0     asmserv.obj
 0002:000027c4       ??_C@_03CEFJFJLM@EDI?$AA@  203107c4     asmserv.obj
 0002:000027c8       ??_C@_03HEOCOIHC@R32?$AA@  203107c8     asmserv.obj
 0002:000027cc       ??_C@_02OHHJGHFB@ES?$AA@   203107cc     asmserv.obj
 0002:000027d0       ??_C@_02ODPEBLOD@CS?$AA@   203107d0     asmserv.obj
 0002:000027d4       ??_C@_02PPNCLIJD@SS?$AA@   203107d4     asmserv.obj
 0002:000027d8       ??_C@_02OGLLANGG@DS?$AA@   203107d8     asmserv.obj
 0002:000027dc       ??_C@_02OFDPNJAI@FS?$AA@   203107dc     asmserv.obj
 0002:000027e0       ??_C@_02OEPNLDDP@GS?$AA@   203107e0     asmserv.obj
 0002:000027e4       ??_C@_04MHKPKEIP@SEG?$DP?$AA@ 203107e4     asmserv.obj
 0002:000027ec       ??_C@_08KJDIOCD@?$CI0?9BYTE?$CJ?$AA@ 203107ec     asmserv.obj
 0002:000027f8       ??_C@_04ELFAHOMP@BYTE?$AA@ 203107f8     asmserv.obj
 0002:00002800       ??_C@_04ILLECDIN@WORD?$AA@ 20310800     asmserv.obj
 0002:00002808       ??_C@_08IEBMIJMA@?$CI3?9BYTE?$CJ?$AA@ 20310808     asmserv.obj
 0002:00002814       ??_C@_05GIJNDNEJ@DWORD?$AA@ 20310814     asmserv.obj
 0002:0000281c       ??_C@_08ECHDIAEH@?$CI5?9BYTE?$CJ?$AA@ 2031081c     asmserv.obj
 0002:00002828       ??_C@_05CFFFJMEC@FWORD?$AA@ 20310828     asmserv.obj
 0002:00002830       ??_C@_08FGIHDK@?$CI7?9BYTE?$CJ?$AA@ 20310830     asmserv.obj
 0002:0000283c       ??_C@_05DLIGKOGB@QWORD?$AA@ 2031083c     asmserv.obj
 0002:00002844       ??_C@_08BFNMJFAI@?$CI9?9BYTE?$CJ?$AA@ 20310844     asmserv.obj
 0002:00002850       ??_C@_05KLKPGCJA@TBYTE?$AA@ 20310850     asmserv.obj
 0002:00002858       ??_C@_05DMLMDNKL@BX?$CLSI?$AA@ 20310858     asmserv.obj
 0002:00002860       ??_C@_05CFNFIIFO@BX?$CLDI?$AA@ 20310860     asmserv.obj
 0002:00002868       ??_C@_05MMMHGGK@BP?$CLSI?$AA@ 20310868     asmserv.obj
 0002:00002870       ??_C@_05BFKFMDJP@BP?$CLDI?$AA@ 20310870     asmserv.obj
 0002:00002877       ??_C@_00CNPNBAHC@?$AA@     20310877     asmserv.obj
 0002:00002878       ??_C@_03LDPADADA@ST0?$AA@  20310878     asmserv.obj
 0002:0000287c       ??_C@_03KKOLABHB@ST1?$AA@  2031087c     asmserv.obj
 0002:00002880       ??_C@_03IBMGFCLC@ST2?$AA@  20310880     asmserv.obj
 0002:00002884       ??_C@_03JINNGDPD@ST3?$AA@  20310884     asmserv.obj
 0002:00002888       ??_C@_03NHJMPFDE@ST4?$AA@  20310888     asmserv.obj
 0002:0000288c       ??_C@_03MOIHMEHF@ST5?$AA@  2031088c     asmserv.obj
 0002:00002890       ??_C@_03OFKKJHLG@ST6?$AA@  20310890     asmserv.obj
 0002:00002894       ??_C@_03PMLBKGPH@ST7?$AA@  20310894     asmserv.obj
 0002:00002898       ??_C@_03MLLEKAKD@FPU?$AA@  20310898     asmserv.obj
 0002:0000289c       ??_C@_03BAMBIIGD@MM0?$AA@  2031089c     asmserv.obj
 0002:000028a0       ??_C@_03JNKLJCC@MM1?$AA@   203108a0     asmserv.obj
 0002:000028a4       ??_C@_03CCPHOKOB@MM2?$AA@  203108a4     asmserv.obj
 0002:000028a8       ??_C@_03DLOMNLKA@MM3?$AA@  203108a8     asmserv.obj
 0002:000028ac       ??_C@_03HEKNENGH@MM4?$AA@  203108ac     asmserv.obj
 0002:000028b0       ??_C@_03GNLGHMCG@MM5?$AA@  203108b0     asmserv.obj
 0002:000028b4       ??_C@_03EGJLCPOF@MM6?$AA@  203108b4     asmserv.obj
 0002:000028b8       ??_C@_03FPIABOKE@MM7?$AA@  203108b8     asmserv.obj
 0002:000028bc       ??_C@_03LNOFGJMM@MMX?$AA@  203108bc     asmserv.obj
 0002:000028c0       ??_C@_03OHGEBLBN@CR0?$AA@  203108c0     asmserv.obj
 0002:000028c4       ??_C@_03POHPCKFM@CR1?$AA@  203108c4     asmserv.obj
 0002:000028c8       ??_C@_03NFFCHJJP@CR2?$AA@  203108c8     asmserv.obj
 0002:000028cc       ??_C@_03MMEJEINO@CR3?$AA@  203108cc     asmserv.obj
 0002:000028d0       ??_C@_03IDAINOBJ@CR4?$AA@  203108d0     asmserv.obj
 0002:000028d4       ??_C@_03JKBDOPFI@CR5?$AA@  203108d4     asmserv.obj
 0002:000028d8       ??_C@_03LBDOLMJL@CR6?$AA@  203108d8     asmserv.obj
 0002:000028dc       ??_C@_03KICFINNK@CR7?$AA@  203108dc     asmserv.obj
 0002:000028e0       ??_C@_03EKEAPKLC@CRX?$AA@  203108e0     asmserv.obj
 0002:000028e4       ??_C@_03HKLDCDKE@DR0?$AA@  203108e4     asmserv.obj
 0002:000028e8       ??_C@_03GDKIBCOF@DR1?$AA@  203108e8     asmserv.obj
 0002:000028ec       ??_C@_03EIIFEBCG@DR2?$AA@  203108ec     asmserv.obj
 0002:000028f0       ??_C@_03FBJOHAGH@DR3?$AA@  203108f0     asmserv.obj
 0002:000028f4       ??_C@_03BONPOGKA@DR4?$AA@  203108f4     asmserv.obj
 0002:000028f8       ??_C@_03HMENHOB@DR5?$AA@   203108f8     asmserv.obj
 0002:000028fc       ??_C@_03CMOJIECC@DR6?$AA@  203108fc     asmserv.obj
 0002:00002900       ??_C@_03DFPCLFGD@DR7?$AA@  20310900     asmserv.obj
 0002:00002904       ??_C@_03NHJHMCAL@DRX?$AA@  20310904     asmserv.obj
 0002:00002908       ??_C@_03GEANJIEE@NOP?$AA@  20310908     asmserv.obj
 0002:0000290c       ??_C@_03CAOCJACM@MOV?$AA@  2031090c     asmserv.obj
 0002:00002910       ??_C@_04KLEHGNFN@PUSH?$AA@ 20310910     asmserv.obj
 0002:00002918       ??_C@_04CAGKGBIO@CALL?$AA@ 20310918     asmserv.obj
 0002:00002920       ??_C@_03JAEKPGAJ@LEA?$AA@  20310920     asmserv.obj
 0002:00002924       ??_C@_05KHFAANCB@JE?0JZ?$AA@ 20310924     asmserv.obj
 0002:0000292c       ??_C@_03NEMLLIOI@POP?$AA@  2031092c     asmserv.obj
 0002:00002930       ??_C@_03BOJFLAKG@ADD?$AA@  20310930     asmserv.obj
 0002:00002934       ??_C@_07JMDDLKNA@JNZ?0JNE?$AA@ 20310934     asmserv.obj
 0002:00002940       ??_C@_03OIOLNLHN@JMP?$AA@  20310940     asmserv.obj
 0002:00002944       ??_C@_04OIKJMBFP@TEST?$AA@ 20310944     asmserv.obj
 0002:0000294c       ??_C@_03CDEJPCIF@XOR?$AA@  2031094c     asmserv.obj
 0002:00002950       ??_C@_03JFODJEPH@CMP?$AA@  20310950     asmserv.obj
 0002:00002954       ??_C@_08LFEDKMH@RETN?0RET?$AA@ 20310954     asmserv.obj
 0002:00002960       ??_C@_03JJPHILFI@INC?$AA@  20310960     asmserv.obj
 0002:00002964       ??_C@_03KPDLEBHD@SUB?$AA@  20310964     asmserv.obj
 0002:00002968       ??_C@_07MLBKHJDF@JLE?0JNG?$AA@ 20310968     asmserv.obj
 0002:00002974       ??_C@_04NCILNIKB@RETN?$AA@ 20310974     asmserv.obj
 0002:0000297c       ??_C@_02PDPFNDMG@OR?$AA@   2031097c     asmserv.obj
 0002:00002980       ??_C@_03GHMILMGE@DEC?$AA@  20310980     asmserv.obj
 0002:00002984       ??_C@_05NFKGJPLN@MOVSX?$AA@ 20310984     asmserv.obj
 0002:0000298c       ??_C@_07EABGGLBA@JL?0JNGE?$AA@ 2031098c     asmserv.obj
 0002:00002998       ??_C@_03BDACDFHA@AND?$AA@  20310998     asmserv.obj
 0002:0000299c       ??_C@_03GBFNEA@NOT?$AA@    2031099c     asmserv.obj
 0002:000029a0       ??_C@_03PBAHGDAB@SHR?$AA@  203109a0     asmserv.obj
 0002:000029a4       ??_C@_07CKOJPEAE@JGE?0JNL?$AA@ 203109a4     asmserv.obj
 0002:000029b0       ??_C@_07EOEENAAL@JG?0JNLE?$AA@ 203109b0     asmserv.obj
 0002:000029bc       ??_C@_03CFEGFMNO@SHL?$AA@  203109bc     asmserv.obj
 0002:000029c0       ??_C@_03LGFCPEIG@SBB?$AA@  203109c0     asmserv.obj
 0002:000029c4       ??_C@_03GMBJJJAE@NEG?$AA@  203109c4     asmserv.obj
 0002:000029c8       ??_C@_05GACDJFGI@LEAVE?$AA@ 203109c8     asmserv.obj
 0002:000029d0       ??_C@_07OFHCNFKC@?$CGPUSHA?$CK?$AA@ 203109d0     asmserv.obj
 0002:000029dc       ??_C@_06MNONMPDF@?$CGPOPA?$CK?$AA@ 203109dc     asmserv.obj
 0002:000029e4       ??_C@_04HJKOHOIB@XCHG?$AA@ 203109e4     asmserv.obj
 0002:000029ec       ??_C@_03FBNECGGB@ADC?$AA@  203109ec     asmserv.obj
 0002:000029f0       ??_C@_03IBHOEMFB@MUL?$AA@  203109f0     asmserv.obj
 0002:000029f4       ??_C@_04DDPLFOGI@IMUL?$AA@ 203109f4     asmserv.obj
 0002:000029fc       ??_C@_03FJGHKDBE@DIV?$AA@  203109fc     asmserv.obj
 0002:00002a00       ??_C@_04OLOCLBCN@IDIV?$AA@ 20310a00     asmserv.obj
 0002:00002a08       ??_C@_09CCBGGGGA@?$CGCBW?3CWDE?$AA@ 20310a08     asmserv.obj
 0002:00002a14       ??_C@_08ILLHFEMI@?$CGCWD?3CDQ?$AA@ 20310a14     asmserv.obj
 0002:00002a20       ??_C@_03JILFCNDO@ROL?$AA@  20310a20     asmserv.obj
 0002:00002a24       ??_C@_03EMPEBCOB@ROR?$AA@  20310a24     asmserv.obj
 0002:00002a28       ??_C@_03JBKPNEFK@RCL?$AA@  20310a28     asmserv.obj
 0002:00002a2c       ??_C@_03EFOOOLIF@RCR?$AA@  20310a2c     asmserv.obj
 0002:00002a30       ??_C@_03PONGFIIO@SAR?$AA@  20310a30     asmserv.obj
 0002:00002a34       ??_C@_02KFCHNDB@JO?$AA@    20310a34     asmserv.obj
 0002:00002a38       ??_C@_03CHPHGLLK@JNO?$AA@  20310a38     asmserv.obj
 0002:00002a3c       ??_C@_05IOHAHICJ@JB?0JC?$AA@ 20310a3c     asmserv.obj
 0002:00002a44       ??_C@_07CFOMJNKA@JNB?0JNC?$AA@ 20310a44     asmserv.obj
 0002:00002a50       ??_C@_07MNHPKFOO@JBE?0JNA?$AA@ 20310a50     asmserv.obj
 0002:00002a5c       ??_C@_07CHAKMIDL@JA?0JNBE?$AA@ 20310a5c     asmserv.obj
 0002:00002a68       ??_C@_02OMCFCAGM@JS?$AA@   20310a68     asmserv.obj
 0002:00002a6c       ??_C@_03MBIADGOH@JNS?$AA@  20310a6c     asmserv.obj
 0002:00002a70       ??_C@_06DDCHJALM@JPE?0JP?$AA@ 20310a70     asmserv.obj
 0002:00002a78       ??_C@_07MPHMCIHP@JPO?0JNP?$AA@ 20310a78     asmserv.obj
 0002:00002a84       ??_C@_0M@EKICBBJF@$JCXZ?3JECXZ?$AA@ 20310a84     asmserv.obj
 0002:00002a94       ??_C@_03PFMOLPFC@CLC?$AA@  20310a94     asmserv.obj
 0002:00002a98       ??_C@_03LHOCBKAF@STC?$AA@  20310a98     asmserv.obj
 0002:00002a9c       ??_C@_03PEAMNFGF@CMC?$AA@  20310a9c     asmserv.obj
 0002:00002aa0       ??_C@_03LKIPCJJF@CLD?$AA@  20310aa0     asmserv.obj
 0002:00002aa4       ??_C@_03PIKDIMMC@STD?$AA@  20310aa4     asmserv.obj
 0002:00002aa8       ??_C@_03PCBFHNI@CLI?$AA@   20310aa8     asmserv.obj
 0002:00002aac       ??_C@_03ENANPCIP@STI?$AA@  20310aac     asmserv.obj
 0002:00002ab0       ??_C@_04LCNKIKLM@CMPS?$AA@ 20310ab0     asmserv.obj
 0002:00002ab8       ??_C@_04IBKMNOEK@LODS?$AA@ 20310ab8     asmserv.obj
 0002:00002ac0       ??_C@_04KDGOIAOE@MOVS?$AA@ 20310ac0     asmserv.obj
 0002:00002ac8       ??_C@_04CPABKDEK@SCAS?$AA@ 20310ac8     asmserv.obj
 0002:00002ad0       ??_C@_04OIFBOBGG@STOS?$AA@ 20310ad0     asmserv.obj
 0002:00002ad8       ??_C@_08JKOFCKKP@REP?5MOVS?$AA@ 20310ad8     asmserv.obj
 0002:00002ae4       ??_C@_08LICHHEAB@REP?5LODS?$AA@ 20310ae4     asmserv.obj
 0002:00002af0       ??_C@_08NBNKELCN@REP?5STOS?$AA@ 20310af0     asmserv.obj
 0002:00002afc       ??_C@_09PKCPKJME@REPE?5CMPS?$AA@ 20310afc     asmserv.obj
 0002:00002b08       ??_C@_09GHPEIADC@REPE?5SCAS?$AA@ 20310b08     asmserv.obj
 0002:00002b14       ??_C@_0L@BIOEKKAN@REPNE?5CMPS?$AA@ 20310b14     asmserv.obj
 0002:00002b24       ??_C@_0L@IFDPIDPL@REPNE?5SCAS?$AA@ 20310b24     asmserv.obj
 0002:00002b34       ??_C@_04BKFCFCKJ@RETF?$AA@ 20310b34     asmserv.obj
 0002:00002b3c       ??_C@_04PFFLDDIO@SHLD?$AA@ 20310b3c     asmserv.obj
 0002:00002b44       ??_C@_04ODODLNPE@SHRD?$AA@ 20310b44     asmserv.obj
 0002:00002b4c       ??_C@_05OOCHMNJI@BSWAP?$AA@ 20310b4c     asmserv.obj
 0002:00002b54       ??_C@_04PBJABMKN@XADD?$AA@ 20310b54     asmserv.obj
 0002:00002b5c       ??_C@_06DLPIJCHC@$LOOP?$CK?$AA@ 20310b5c     asmserv.obj
 0002:00002b64       ??_C@_07DDDOFDMC@$LOOP?$CKE?$AA@ 20310b64     asmserv.obj
 0002:00002b70       ??_C@_08PEACMJGO@$LOOP?$CKNE?$AA@ 20310b70     asmserv.obj
 0002:00002b7c       ??_C@_05EMNIMLKD@ENTER?$AA@ 20310b7c     asmserv.obj
 0002:00002b84       ??_C@_02BBAPPCCJ@IN?$AA@   20310b84     asmserv.obj
 0002:00002b88       ??_C@_03KJGMBMID@OUT?$AA@  20310b88     asmserv.obj
 0002:00002b8c       ??_C@_03NDDFJJAJ@INS?$AA@  20310b8c     asmserv.obj
 0002:00002b90       ??_C@_04OFIOLABB@OUTS?$AA@ 20310b90     asmserv.obj
 0002:00002b98       ??_C@_07FLCMBAOK@REP?5INS?$AA@ 20310b98     asmserv.obj
 0002:00002ba4       ??_C@_08NMAFBKFK@REP?5OUTS?$AA@ 20310ba4     asmserv.obj
 0002:00002bb0       ??_C@_03GFCJIGAI@AAA?$AA@  20310bb0     asmserv.obj
 0002:00002bb4       ??_C@_03BNNNPGNL@AAS?$AA@  20310bb4     asmserv.obj
 0002:00002bb8       ??_C@_03MJJMMJAE@AAM?$AA@  20310bb8     asmserv.obj
 0002:00002bbc       ??_C@_03BIFOHCEN@AAD?$AA@  20310bbc     asmserv.obj
 0002:00002bc0       ??_C@_03FCPHHGDK@DAA?$AA@  20310bc0     asmserv.obj
 0002:00002bc4       ??_C@_03CKADAGOJ@DAS?$AA@  20310bc4     asmserv.obj
 0002:00002bc8       ??_C@_03CHEMLMMF@HLT?$AA@  20310bc8     asmserv.obj
 0002:00002bcc       ??_C@_04EPPDBEMK@XLAT?$AA@ 20310bcc     asmserv.obj
 0002:00002bd4       ??_C@_05NKHHKEDC@MOVZX?$AA@ 20310bd4     asmserv.obj
 0002:00002bdc       ??_C@_04DBNKAKHO@WAIT?$AA@ 20310bdc     asmserv.obj
 0002:00002be4       ??_C@_04FPNMLGAJ@LAHF?$AA@ 20310be4     asmserv.obj
 0002:00002bec       ??_C@_04LNGMLGFK@SAHF?$AA@ 20310bec     asmserv.obj
